---
triple:          'arm64-apple-darwin'
binary-path:     '/Users/albertoazzari/projects/tsrf-classification/cddiagram/target/debug/deps/libcd_diagram.dylib'
relocations:
  - { offset: 0x1E, size: 0x8, addend: 0x0, symName: '__ZN4core4hash5impls52_$LT$impl$u20$core..hash..Hash$u20$for$u20$$RF$T$GT$4hash17h7332a6bbdb768e81E', symObjAddr: 0x0, symBinAddr: 0x880, symSize: 0x3C }
  - { offset: 0x3F, size: 0x8, addend: 0x0, symName: '__ZN4core4hash5impls52_$LT$impl$u20$core..hash..Hash$u20$for$u20$$RF$T$GT$4hash17h7332a6bbdb768e81E', symObjAddr: 0x0, symBinAddr: 0x880, symSize: 0x3C }
  - { offset: 0x203, size: 0x8, addend: 0x0, symName: '__ZN106_$LT$pyo3..impl_..extract_argument..NoVarargs$u20$as$u20$pyo3..impl_..extract_argument..VarargsHandler$GT$23handle_varargs_fastcall17h518f5fec3c84d096E', symObjAddr: 0x0, symBinAddr: 0x8BC, symSize: 0xB4 }
  - { offset: 0x1A3F, size: 0x8, addend: 0x0, symName: '__ZN106_$LT$pyo3..impl_..extract_argument..NoVarargs$u20$as$u20$pyo3..impl_..extract_argument..VarargsHandler$GT$23handle_varargs_fastcall17h518f5fec3c84d096E', symObjAddr: 0x0, symBinAddr: 0x8BC, symSize: 0xB4 }
  - { offset: 0x1AB3, size: 0x8, addend: 0x0, symName: '__ZN114_$LT$pyo3..impl_..extract_argument..NoVarkeywords$u20$as$u20$pyo3..impl_..extract_argument..VarkeywordsHandler$GT$17handle_varkeyword17h467d1d458030696eE', symObjAddr: 0xB4, symBinAddr: 0x970, symSize: 0x6C }
  - { offset: 0x1BF2, size: 0x8, addend: 0x0, symName: __ZN4pyo35impl_16extract_argument24unwrap_required_argument17h91f84f3042ed2b69E, symObjAddr: 0x4D4, symBinAddr: 0xD90, symSize: 0x64 }
  - { offset: 0x1EDA, size: 0x8, addend: 0x0, symName: __ZN4pyo35impl_16extract_argument19FunctionDescription36find_keyword_parameter_in_positional17h339fc7f4be15917dE, symObjAddr: 0x120, symBinAddr: 0x9DC, symSize: 0x5C }
  - { offset: 0x1F0C, size: 0x8, addend: 0x0, symName: __ZN4pyo35impl_16extract_argument19FunctionDescription38find_keyword_parameter_in_keyword_only17h0e3a1bfbb9f3feacE, symObjAddr: 0x17C, symBinAddr: 0xA38, symSize: 0x5C }
  - { offset: 0x25C4, size: 0x8, addend: 0x0, symName: __ZN4pyo35impl_16extract_argument19FunctionDescription44ensure_no_missing_required_keyword_arguments17h1552f4f591695cadE, symObjAddr: 0x1D8, symBinAddr: 0xA94, symSize: 0x160 }
  - { offset: 0x2690, size: 0x8, addend: 0x0, symName: __ZN4pyo35impl_16extract_argument19FunctionDescription47ensure_no_missing_required_positional_arguments17hc49282334c25e50aE, symObjAddr: 0x338, symBinAddr: 0xBF4, symSize: 0x19C }
  - { offset: 0x280B, size: 0x8, addend: 0x0, symName: __ZN4pyo35impl_5panic9PanicTrap3new17h3f005ce972055102E, symObjAddr: 0x0, symBinAddr: 0xDF4, symSize: 0x18 }
  - { offset: 0x289A, size: 0x8, addend: 0x0, symName: __ZN4pyo35impl_5panic9PanicTrap3new17h3f005ce972055102E, symObjAddr: 0x0, symBinAddr: 0xDF4, symSize: 0x18 }
  - { offset: 0x28BC, size: 0x8, addend: 0x0, symName: __ZN4pyo35impl_5panic9PanicTrap6disarm17hdba867f73ffa412dE, symObjAddr: 0x18, symBinAddr: 0xE0C, symSize: 0x28 }
  - { offset: 0x28FC, size: 0x8, addend: 0x0, symName: '__ZN87_$LT$$BP$mut$u20$pyo3_ffi..object..PyObject$u20$as$u20$pyo3..ffi_ptr_ext..FfiPtrExt$GT$22assume_borrowed_or_err17hb06f302a773b4f22E', symObjAddr: 0x0, symBinAddr: 0xE34, symSize: 0x24 }
  - { offset: 0x2931, size: 0x8, addend: 0x0, symName: __ZN8pyo3_ffi6object7Py_None17hdc0e8cd31632f00aE, symObjAddr: 0x48, symBinAddr: 0xE7C, symSize: 0xC }
  - { offset: 0x3D75, size: 0x8, addend: 0x0, symName: '__ZN87_$LT$$BP$mut$u20$pyo3_ffi..object..PyObject$u20$as$u20$pyo3..ffi_ptr_ext..FfiPtrExt$GT$22assume_borrowed_or_err17hb06f302a773b4f22E', symObjAddr: 0x0, symBinAddr: 0xE34, symSize: 0x24 }
  - { offset: 0x3DBA, size: 0x8, addend: 0x0, symName: '__ZN87_$LT$$BP$mut$u20$pyo3_ffi..object..PyObject$u20$as$u20$pyo3..ffi_ptr_ext..FfiPtrExt$GT$25assume_borrowed_unchecked17hab9a0a146323e782E', symObjAddr: 0x24, symBinAddr: 0xE58, symSize: 0x24 }
  - { offset: 0x46AD, size: 0x8, addend: 0x0, symName: '__ZN59_$LT$alloc..alloc..Global$u20$as$u20$core..clone..Clone$GT$5clone17h0759eaa1fdb325d4E', symObjAddr: 0x0, symBinAddr: 0xE88, symSize: 0x10 }
  - { offset: 0x4FB0, size: 0x8, addend: 0x0, symName: '__ZN59_$LT$alloc..alloc..Global$u20$as$u20$core..clone..Clone$GT$5clone17h0759eaa1fdb325d4E', symObjAddr: 0x0, symBinAddr: 0xE88, symSize: 0x10 }
  - { offset: 0x5006, size: 0x8, addend: 0x0, symName: '__ZN63_$LT$alloc..alloc..Global$u20$as$u20$core..alloc..Allocator$GT$10deallocate17hd2049b5a5d66410dE', symObjAddr: 0x2B8, symBinAddr: 0x1140, symSize: 0x80 }
  - { offset: 0x50F6, size: 0x8, addend: 0x0, symName: __ZN5alloc5alloc15exchange_malloc17h1d40768dc488aa21E, symObjAddr: 0x10, symBinAddr: 0xE98, symSize: 0xAC }
  - { offset: 0x540F, size: 0x8, addend: 0x0, symName: __ZN5alloc5alloc6Global10alloc_impl17h628cbce285ba9241E, symObjAddr: 0xBC, symBinAddr: 0xF44, symSize: 0x1FC }
  - { offset: 0x57FF, size: 0x8, addend: 0x0, symName: __ZN10cd_diagram9py_module17h3fc4d42b8b704cf4E, symObjAddr: 0x0, symBinAddr: 0x11C0, symSize: 0x100 }
  - { offset: 0x6CEB, size: 0x8, addend: 0x0, symName: __ZN10cd_diagram9py_module17h3fc4d42b8b704cf4E, symObjAddr: 0x0, symBinAddr: 0x11C0, symSize: 0x100 }
  - { offset: 0x764B, size: 0x8, addend: 0x0, symName: __ZN10cd_diagram4draw10cd_diagram9_PYO3_DEF17hbe0eaf7a79fc2a8bE, symObjAddr: 0x60, symBinAddr: 0xC4368, symSize: 0x0 }
  - { offset: 0x8BD8, size: 0x8, addend: 0x0, symName: __ZN4core4hint16assert_unchecked18precondition_check17h8a8839adb401e156E, symObjAddr: 0x0, symBinAddr: 0x12C0, symSize: 0xA4 }
  - { offset: 0x8EFA, size: 0x8, addend: 0x0, symName: __ZN4core4hint16assert_unchecked18precondition_check17h8a8839adb401e156E, symObjAddr: 0x0, symBinAddr: 0x12C0, symSize: 0xA4 }
  - { offset: 0x9101, size: 0x8, addend: 0x0, symName: __ZN4core5alloc6layout6Layout25from_size_align_unchecked18precondition_check17hf0a8ce4c1c8eb08fE, symObjAddr: 0x0, symBinAddr: 0x1364, symSize: 0xBC }
  - { offset: 0x942D, size: 0x8, addend: 0x0, symName: __ZN4core5alloc6layout6Layout25from_size_align_unchecked18precondition_check17hf0a8ce4c1c8eb08fE, symObjAddr: 0x0, symBinAddr: 0x1364, symSize: 0xBC }
  - { offset: 0x963D, size: 0x8, addend: 0x0, symName: '__ZN4core3ptr9const_ptr33_$LT$impl$u20$$BP$const$u20$T$GT$20offset_from_unsigned18precondition_check17he2fcdb3581c41610E', symObjAddr: 0x0, symBinAddr: 0x1420, symSize: 0xAC }
  - { offset: 0x9927, size: 0x8, addend: 0x0, symName: '__ZN4core3ptr9const_ptr33_$LT$impl$u20$$BP$const$u20$T$GT$20offset_from_unsigned18precondition_check17he2fcdb3581c41610E', symObjAddr: 0x0, symBinAddr: 0x1420, symSize: 0xAC }
  - { offset: 0x9A25, size: 0x8, addend: 0x0, symName: '__ZN4core3ptr9const_ptr33_$LT$impl$u20$$BP$const$u20$T$GT$6offset18precondition_check17hf942e9f3917733f6E', symObjAddr: 0xAC, symBinAddr: 0x14CC, symSize: 0x110 }
  - { offset: 0x9FAA, size: 0x8, addend: 0x0, symName: '__ZN111_$LT$alloc..vec..Vec$LT$T$GT$$u20$as$u20$alloc..vec..spec_from_iter_nested..SpecFromIterNested$LT$T$C$I$GT$$GT$9from_iter17h9a7bd8bf92751837E', symObjAddr: 0x0, symBinAddr: 0x15DC, symSize: 0x184 }
  - { offset: 0xB570, size: 0x8, addend: 0x0, symName: '__ZN42_$LT$$RF$T$u20$as$u20$core..fmt..Debug$GT$3fmt17h549094c6da917a39E', symObjAddr: 0x184, symBinAddr: 0x1760, symSize: 0x30 }
  - { offset: 0xC45A, size: 0x8, addend: 0x0, symName: '__ZN50_$LT$T$u20$as$u20$core..convert..Into$LT$U$GT$$GT$4into17h060ce692ca78ecacE', symObjAddr: 0x37C, symBinAddr: 0x1958, symSize: 0x24 }
  - { offset: 0xC49A, size: 0x8, addend: 0x0, symName: '__ZN50_$LT$T$u20$as$u20$core..convert..Into$LT$U$GT$$GT$4into17h07e0600f121197a9E', symObjAddr: 0x3A0, symBinAddr: 0x197C, symSize: 0x24 }
  - { offset: 0xD381, size: 0x8, addend: 0x0, symName: '__ZN111_$LT$alloc..vec..Vec$LT$T$GT$$u20$as$u20$alloc..vec..spec_from_iter_nested..SpecFromIterNested$LT$T$C$I$GT$$GT$9from_iter17h9a7bd8bf92751837E', symObjAddr: 0x0, symBinAddr: 0x15DC, symSize: 0x184 }
  - { offset: 0xDA83, size: 0x8, addend: 0x0, symName: '__ZN5alloc3vec16Vec$LT$T$C$A$GT$14extend_trusted28_$u7b$$u7b$closure$u7d$$u7d$17he819cfb2169eb501E', symObjAddr: 0x600, symBinAddr: 0x1BDC, symSize: 0x44 }
  - { offset: 0xDD1B, size: 0x8, addend: 0x0, symName: '__ZN72_$LT$alloc..vec..Vec$LT$T$C$A$GT$$u20$as$u20$core..ops..deref..Deref$GT$5deref17h46d8be79da2aa40eE', symObjAddr: 0x118C, symBinAddr: 0x2768, symSize: 0x24 }
  - { offset: 0xDD61, size: 0x8, addend: 0x0, symName: '__ZN65_$LT$alloc..vec..Vec$LT$T$C$A$GT$$u20$as$u20$core..fmt..Debug$GT$3fmt17h2053a371284fad7dE', symObjAddr: 0x106C, symBinAddr: 0x2648, symSize: 0x7C }
  - { offset: 0xDE77, size: 0x8, addend: 0x0, symName: '__ZN67_$LT$alloc..vec..Vec$LT$T$C$A$GT$$u20$as$u20$core..clone..Clone$GT$5clone17hb22597a6a958be9eE', symObjAddr: 0x10E8, symBinAddr: 0x26C4, symSize: 0x90 }
  - { offset: 0xE04E, size: 0x8, addend: 0x0, symName: '__ZN67_$LT$alloc..vec..Vec$LT$T$GT$$u20$as$u20$core..default..Default$GT$7default17h8cdda13187fdfec8E', symObjAddr: 0x1178, symBinAddr: 0x2754, symSize: 0x14 }
  - { offset: 0xE070, size: 0x8, addend: 0x0, symName: '__ZN67_$LT$alloc..vec..Vec$LT$T$GT$$u20$as$u20$core..default..Default$GT$7default17h8cdda13187fdfec8E', symObjAddr: 0x1178, symBinAddr: 0x2754, symSize: 0x14 }
  - { offset: 0xE091, size: 0x8, addend: 0x0, symName: '__ZN95_$LT$alloc..vec..Vec$LT$T$GT$$u20$as$u20$core..iter..traits..collect..FromIterator$LT$T$GT$$GT$9from_iter17h0ee2bbd39db7d331E', symObjAddr: 0x1200, symBinAddr: 0x27DC, symSize: 0x3C }
  - { offset: 0xE0DD, size: 0x8, addend: 0x0, symName: '__ZN97_$LT$alloc..vec..Vec$LT$T$C$A$GT$$u20$as$u20$alloc..vec..spec_extend..SpecExtend$LT$T$C$I$GT$$GT$11spec_extend17hfa34de71fe6bddd0E', symObjAddr: 0x123C, symBinAddr: 0x2818, symSize: 0x24 }
  - { offset: 0xE13B, size: 0x8, addend: 0x0, symName: '__ZN98_$LT$alloc..vec..Vec$LT$T$GT$$u20$as$u20$alloc..vec..spec_from_iter..SpecFromIter$LT$T$C$I$GT$$GT$9from_iter17heaab5dc699199044E', symObjAddr: 0x1260, symBinAddr: 0x283C, symSize: 0x14 }
  - { offset: 0xE2A3, size: 0x8, addend: 0x0, symName: '__ZN4pyo311conversions3std3vec85_$LT$impl$u20$pyo3..conversion..FromPyObject$u20$for$u20$alloc..vec..Vec$LT$T$GT$$GT$7extract17h5486ace3d28f2847E', symObjAddr: 0x1B4, symBinAddr: 0x1790, symSize: 0xE4 }
  - { offset: 0xE2ED, size: 0x8, addend: 0x0, symName: '__ZN4pyo311conversions3std3vec85_$LT$impl$u20$pyo3..conversion..FromPyObject$u20$for$u20$alloc..vec..Vec$LT$T$GT$$GT$7extract17haf047b0cb4daf34bE', symObjAddr: 0x298, symBinAddr: 0x1874, symSize: 0xE4 }
  - { offset: 0xE34A, size: 0x8, addend: 0x0, symName: '__ZN80_$LT$T$u20$as$u20$pyo3..impl_..extract_argument..PyFunctionArgument$LT$_$GT$$GT$7extract17h2b0b6e68d3da62daE', symObjAddr: 0x11B0, symBinAddr: 0x278C, symSize: 0x28 }
  - { offset: 0xE389, size: 0x8, addend: 0x0, symName: '__ZN80_$LT$T$u20$as$u20$pyo3..impl_..extract_argument..PyFunctionArgument$LT$_$GT$$GT$7extract17h7bae35128d0d2f7eE', symObjAddr: 0x11D8, symBinAddr: 0x27B4, symSize: 0x28 }
  - { offset: 0xE69C, size: 0x8, addend: 0x0, symName: '__ZN5alloc3vec12Vec$LT$T$GT$13with_capacity17h81522bac50781499E', symObjAddr: 0x3C4, symBinAddr: 0x19A0, symSize: 0x48 }
  - { offset: 0xE77D, size: 0x8, addend: 0x0, symName: '__ZN5alloc3vec12Vec$LT$T$GT$13with_capacity17h8d63d7ffdd0bbc72E', symObjAddr: 0x40C, symBinAddr: 0x19E8, symSize: 0x44 }
  - { offset: 0xE7F5, size: 0x8, addend: 0x0, symName: '__ZN5alloc3vec12Vec$LT$T$GT$3new17h8a67feb1168e893cE', symObjAddr: 0x450, symBinAddr: 0x1A2C, symSize: 0x14 }
  - { offset: 0xE983, size: 0x8, addend: 0x0, symName: '__ZN5alloc3vec16Vec$LT$T$C$A$GT$14extend_trusted17h2bba26f9d38be47fE', symObjAddr: 0x464, symBinAddr: 0x1A40, symSize: 0x19C }
  - { offset: 0xECAA, size: 0x8, addend: 0x0, symName: '__ZN5alloc3vec16Vec$LT$T$C$A$GT$15append_elements17h7a580cf56c36a482E', symObjAddr: 0x644, symBinAddr: 0x1C20, symSize: 0xDC }
  - { offset: 0xEF1D, size: 0x8, addend: 0x0, symName: '__ZN5alloc3vec16Vec$LT$T$C$A$GT$17from_raw_parts_in17h40ae2913d4d1bbd8E', symObjAddr: 0x720, symBinAddr: 0x1CFC, symSize: 0xA8 }
  - { offset: 0xF0B0, size: 0x8, addend: 0x0, symName: '__ZN5alloc3vec16Vec$LT$T$C$A$GT$3len17h1748c2fa4b6674afE', symObjAddr: 0x7C8, symBinAddr: 0x1DA4, symSize: 0x18 }
  - { offset: 0xF0F2, size: 0x8, addend: 0x0, symName: '__ZN5alloc3vec16Vec$LT$T$C$A$GT$3len17hf77e6f31655e7bc9E', symObjAddr: 0x7E0, symBinAddr: 0x1DBC, symSize: 0x18 }
  - { offset: 0xF17C, size: 0x8, addend: 0x0, symName: '__ZN5alloc3vec16Vec$LT$T$C$A$GT$4push17h47927b12ae1fa3caE', symObjAddr: 0x7F8, symBinAddr: 0x1DD4, symSize: 0x34 }
  - { offset: 0xF1CD, size: 0x8, addend: 0x0, symName: '__ZN5alloc3vec16Vec$LT$T$C$A$GT$4push17h7d317579d9fabf71E', symObjAddr: 0x82C, symBinAddr: 0x1E08, symSize: 0x28 }
  - { offset: 0xF21E, size: 0x8, addend: 0x0, symName: '__ZN5alloc3vec16Vec$LT$T$C$A$GT$4push17hac015f78b473e221E', symObjAddr: 0x854, symBinAddr: 0x1E30, symSize: 0x30 }
  - { offset: 0xF262, size: 0x8, addend: 0x0, symName: '__ZN5alloc3vec16Vec$LT$T$C$A$GT$4push17hf4fc5be0729ae80cE', symObjAddr: 0x884, symBinAddr: 0x1E60, symSize: 0x24 }
  - { offset: 0xF4F1, size: 0x8, addend: 0x0, symName: '__ZN5alloc3vec16Vec$LT$T$C$A$GT$5drain17h6c2709243c225a19E', symObjAddr: 0x8A8, symBinAddr: 0x1E84, symSize: 0x174 }
  - { offset: 0xF9D1, size: 0x8, addend: 0x0, symName: '__ZN5alloc3vec16Vec$LT$T$C$A$GT$6append17hc45b36fc2356231fE', symObjAddr: 0xA1C, symBinAddr: 0x1FF8, symSize: 0xD8 }
  - { offset: 0xFCA7, size: 0x8, addend: 0x0, symName: '__ZN5alloc3vec16Vec$LT$T$C$A$GT$7reserve17hdb3c910e4c1fc293E', symObjAddr: 0xAF4, symBinAddr: 0x20D0, symSize: 0xBC }
  - { offset: 0xFEAC, size: 0x8, addend: 0x0, symName: '__ZN5alloc3vec16Vec$LT$T$C$A$GT$7set_len17h481ad1ba1c85a3b7E', symObjAddr: 0xBB0, symBinAddr: 0x218C, symSize: 0x80 }
  - { offset: 0x10043, size: 0x8, addend: 0x0, symName: '__ZN5alloc3vec16Vec$LT$T$C$A$GT$8as_slice17h34e5b3070a6cf353E', symObjAddr: 0xC30, symBinAddr: 0x220C, symSize: 0x68 }
  - { offset: 0x10210, size: 0x8, addend: 0x0, symName: '__ZN5alloc3vec16Vec$LT$T$C$A$GT$8push_mut17h7610c7919088e182E', symObjAddr: 0xC98, symBinAddr: 0x2274, symSize: 0xF4 }
  - { offset: 0x104AF, size: 0x8, addend: 0x0, symName: '__ZN5alloc3vec16Vec$LT$T$C$A$GT$8push_mut17hb645e34b041cc30cE', symObjAddr: 0xD8C, symBinAddr: 0x2368, symSize: 0x108 }
  - { offset: 0x10769, size: 0x8, addend: 0x0, symName: '__ZN5alloc3vec16Vec$LT$T$C$A$GT$8push_mut17hea1a3bf0195b54b4E', symObjAddr: 0xE94, symBinAddr: 0x2470, symSize: 0xF8 }
  - { offset: 0x10A06, size: 0x8, addend: 0x0, symName: '__ZN5alloc3vec16Vec$LT$T$C$A$GT$8push_mut17hf2b8bd9d16374cabE', symObjAddr: 0xF8C, symBinAddr: 0x2568, symSize: 0xE0 }
  - { offset: 0x11421, size: 0x8, addend: 0x0, symName: '__ZN110_$LT$core..iter..adapters..enumerate..Enumerate$LT$I$GT$$u20$as$u20$core..iter..traits..iterator..Iterator$GT$4next17h4133164e1e32019dE', symObjAddr: 0x0, symBinAddr: 0x2850, symSize: 0x11C }
  - { offset: 0x11911, size: 0x8, addend: 0x0, symName: '__ZN110_$LT$core..iter..adapters..enumerate..Enumerate$LT$I$GT$$u20$as$u20$core..iter..traits..iterator..Iterator$GT$4next17h4133164e1e32019dE', symObjAddr: 0x0, symBinAddr: 0x2850, symSize: 0x11C }
  - { offset: 0x119FA, size: 0x8, addend: 0x0, symName: '__ZN110_$LT$core..iter..adapters..enumerate..Enumerate$LT$I$GT$$u20$as$u20$core..iter..traits..iterator..Iterator$GT$4next17h43e6c8cf1954e14aE', symObjAddr: 0x11C, symBinAddr: 0x296C, symSize: 0xE0 }
  - { offset: 0x11B97, size: 0x8, addend: 0x0, symName: '__ZN63_$LT$I$u20$as$u20$core..iter..traits..collect..IntoIterator$GT$9into_iter17h5ab65c01765c1c05E', symObjAddr: 0x1FC, symBinAddr: 0x2A4C, symSize: 0x30 }
  - { offset: 0x11EB1, size: 0x8, addend: 0x0, symName: '__ZN4core3cmp5impls69_$LT$impl$u20$core..cmp..PartialEq$LT$$RF$B$GT$$u20$for$u20$$RF$A$GT$2eq17h7b64994c625fd11fE', symObjAddr: 0x0, symBinAddr: 0x2A7C, symSize: 0x44 }
  - { offset: 0x11ED2, size: 0x8, addend: 0x0, symName: '__ZN4core3cmp5impls69_$LT$impl$u20$core..cmp..PartialEq$LT$$RF$B$GT$$u20$for$u20$$RF$A$GT$2eq17h7b64994c625fd11fE', symObjAddr: 0x0, symBinAddr: 0x2A7C, symSize: 0x44 }
  - { offset: 0x11F8C, size: 0x8, addend: 0x0, symName: '__ZN3svg4node107_$LT$impl$u20$core..convert..From$LT$T$GT$$u20$for$u20$alloc..boxed..Box$LT$dyn$u20$svg..node..Node$GT$$GT$4from17h41bccc485dab083dE', symObjAddr: 0x0, symBinAddr: 0x2AC0, symSize: 0x80 }
  - { offset: 0x1205E, size: 0x8, addend: 0x0, symName: '__ZN3svg4node107_$LT$impl$u20$core..convert..From$LT$T$GT$$u20$for$u20$alloc..boxed..Box$LT$dyn$u20$svg..node..Node$GT$$GT$4from17h41bccc485dab083dE', symObjAddr: 0x0, symBinAddr: 0x2AC0, symSize: 0x80 }
  - { offset: 0x120B2, size: 0x8, addend: 0x0, symName: '__ZN3svg4node107_$LT$impl$u20$core..convert..From$LT$T$GT$$u20$for$u20$alloc..boxed..Box$LT$dyn$u20$svg..node..Node$GT$$GT$4from17h80c64989d71c5ed0E', symObjAddr: 0x80, symBinAddr: 0x2B40, symSize: 0x80 }
  - { offset: 0x12106, size: 0x8, addend: 0x0, symName: '__ZN3svg4node107_$LT$impl$u20$core..convert..From$LT$T$GT$$u20$for$u20$alloc..boxed..Box$LT$dyn$u20$svg..node..Node$GT$$GT$4from17hbb59bc579d563514E', symObjAddr: 0x100, symBinAddr: 0x2BC0, symSize: 0x80 }
  - { offset: 0x1215A, size: 0x8, addend: 0x0, symName: '__ZN3svg4node107_$LT$impl$u20$core..convert..From$LT$T$GT$$u20$for$u20$alloc..boxed..Box$LT$dyn$u20$svg..node..Node$GT$$GT$4from17he350491c00a6c53bE', symObjAddr: 0x180, symBinAddr: 0x2C40, symSize: 0x80 }
  - { offset: 0x12561, size: 0x8, addend: 0x0, symName: '__ZN67_$LT$alloc..boxed..Box$LT$T$C$A$GT$$u20$as$u20$core..fmt..Debug$GT$3fmt17h3ec55ec4f27c53d4E', symObjAddr: 0x2B8, symBinAddr: 0x2D78, symSize: 0x3C }
  - { offset: 0x125C6, size: 0x8, addend: 0x0, symName: '__ZN87_$LT$T$u20$as$u20$alloc..slice..$LT$impl$u20$$u5b$T$u5d$$GT$..to_vec_in..ConvertVec$GT$6to_vec17hd1f7c50e4d3ec792E', symObjAddr: 0x2F4, symBinAddr: 0x2DB4, symSize: 0x384 }
  - { offset: 0x12DA3, size: 0x8, addend: 0x0, symName: '__ZN42_$LT$$RF$T$u20$as$u20$core..fmt..Debug$GT$3fmt17h7d303e4c0d42aaaeE', symObjAddr: 0x200, symBinAddr: 0x2CC0, symSize: 0x30 }
  - { offset: 0x12DEF, size: 0x8, addend: 0x0, symName: '__ZN48_$LT$$u5b$T$u5d$$u20$as$u20$core..fmt..Debug$GT$3fmt17h4a155494cae7b5abE', symObjAddr: 0x230, symBinAddr: 0x2CF0, symSize: 0x88 }
  - { offset: 0x13AD2, size: 0x8, addend: 0x0, symName: '__ZN63_$LT$I$u20$as$u20$core..iter..traits..collect..IntoIterator$GT$9into_iter17hc7529c73bfe3b055E', symObjAddr: 0x0, symBinAddr: 0x3138, symSize: 0x14 }
  - { offset: 0x13AF8, size: 0x8, addend: 0x0, symName: '__ZN63_$LT$I$u20$as$u20$core..iter..traits..collect..IntoIterator$GT$9into_iter17hc7529c73bfe3b055E', symObjAddr: 0x0, symBinAddr: 0x3138, symSize: 0x14 }
  - { offset: 0x13B41, size: 0x8, addend: 0x0, symName: '__ZN98_$LT$core..iter..adapters..rev..Rev$LT$I$GT$$u20$as$u20$core..iter..traits..iterator..Iterator$GT$4next17hb2cdcd384b5a1c9fE', symObjAddr: 0x14, symBinAddr: 0x314C, symSize: 0x24 }
  - { offset: 0x13C70, size: 0x8, addend: 0x0, symName: '__ZN4core3f6421_$LT$impl$u20$f64$GT$3abs17h61179154906da764E', symObjAddr: 0x0, symBinAddr: 0x3170, symSize: 0x1C }
  - { offset: 0x13C8C, size: 0x8, addend: 0x0, symName: '__ZN4core3f6421_$LT$impl$u20$f64$GT$3abs17h61179154906da764E', symObjAddr: 0x0, symBinAddr: 0x3170, symSize: 0x1C }
  - { offset: 0x13CBA, size: 0x8, addend: 0x0, symName: '__ZN4core3f6421_$LT$impl$u20$f64$GT$3max17h5f9f35592fa94fa9E', symObjAddr: 0x1C, symBinAddr: 0x318C, symSize: 0x20 }
  - { offset: 0x13D1F, size: 0x8, addend: 0x0, symName: '__ZN4core3ptr9const_ptr33_$LT$impl$u20$$BP$const$u20$T$GT$7is_null17hc11add649dc41efaE', symObjAddr: 0x0, symBinAddr: 0x31AC, symSize: 0x18 }
  - { offset: 0x14566, size: 0x8, addend: 0x0, symName: '__ZN4core3ptr9const_ptr33_$LT$impl$u20$$BP$const$u20$T$GT$7is_null17hc11add649dc41efaE', symObjAddr: 0x0, symBinAddr: 0x31AC, symSize: 0x18 }
  - { offset: 0x14770, size: 0x8, addend: 0x0, symName: '__ZN4core5slice29_$LT$impl$u20$$u5b$T$u5d$$GT$15copy_from_slice17h54a3e1b0a658a556E', symObjAddr: 0x18, symBinAddr: 0x31C4, symSize: 0xAC }
  - { offset: 0x1483B, size: 0x8, addend: 0x0, symName: '__ZN4core5slice29_$LT$impl$u20$$u5b$T$u5d$$GT$18split_at_unchecked17ha4674567d7eb53b7E', symObjAddr: 0xC4, symBinAddr: 0x3270, symSize: 0xEC }
  - { offset: 0x149C7, size: 0x8, addend: 0x0, symName: '__ZN4core5slice29_$LT$impl$u20$$u5b$T$u5d$$GT$8split_at17h9001ac6cf3b1ef6fE', symObjAddr: 0x1B0, symBinAddr: 0x335C, symSize: 0xD8 }
  - { offset: 0x156E5, size: 0x8, addend: 0x0, symName: __ZN4core6option6Option4Some17h03f4666607f6ca2cE, symObjAddr: 0x478, symBinAddr: 0x3624, symSize: 0x28 }
  - { offset: 0x15718, size: 0x8, addend: 0x0, symName: __ZN4core6option6Option4Some17h7790f5db9948e062E, symObjAddr: 0x4A0, symBinAddr: 0x364C, symSize: 0x18 }
  - { offset: 0x15752, size: 0x8, addend: 0x0, symName: '__ZN78_$LT$core..option..Option$LT$T$GT$$u20$as$u20$core..convert..From$LT$T$GT$$GT$4from17h86dbcfd6df7b7563E', symObjAddr: 0x5AC, symBinAddr: 0x3758, symSize: 0x14 }
  - { offset: 0x15789, size: 0x8, addend: 0x0, symName: '__ZN78_$LT$core..option..Option$LT$T$GT$$u20$as$u20$core..convert..From$LT$T$GT$$GT$4from17hb847c6a440652548E', symObjAddr: 0x5C0, symBinAddr: 0x376C, symSize: 0x14 }
  - { offset: 0x157C0, size: 0x8, addend: 0x0, symName: '__ZN78_$LT$core..option..Option$LT$T$GT$$u20$as$u20$core..convert..From$LT$T$GT$$GT$4from17hc5219a661acf0f19E', symObjAddr: 0x5D4, symBinAddr: 0x3780, symSize: 0x14 }
  - { offset: 0x157F7, size: 0x8, addend: 0x0, symName: '__ZN78_$LT$core..option..Option$LT$T$GT$$u20$as$u20$core..convert..From$LT$T$GT$$GT$4from17hfd9e14c8ecd95076E', symObjAddr: 0x5E8, symBinAddr: 0x3794, symSize: 0x14 }
  - { offset: 0x16293, size: 0x8, addend: 0x0, symName: '__ZN80_$LT$T$u20$as$u20$pyo3..impl_..extract_argument..PyFunctionArgument$LT$_$GT$$GT$7extract17h6a6419f1c2a90c36E', symObjAddr: 0x5FC, symBinAddr: 0x37A8, symSize: 0x28 }
  - { offset: 0x162D2, size: 0x8, addend: 0x0, symName: '__ZN80_$LT$T$u20$as$u20$pyo3..impl_..extract_argument..PyFunctionArgument$LT$_$GT$$GT$7extract17ha08bf904f4a79613E', symObjAddr: 0x624, symBinAddr: 0x37D0, symSize: 0x28 }
  - { offset: 0x1631D, size: 0x8, addend: 0x0, symName: '__ZN86_$LT$core..option..Option$LT$T$GT$$u20$as$u20$pyo3..impl_..wrap..SomeWrap$LT$T$GT$$GT$4wrap17h81f90cd41c3ae257E', symObjAddr: 0x64C, symBinAddr: 0x37F8, symSize: 0x18 }
  - { offset: 0x16352, size: 0x8, addend: 0x0, symName: '__ZN86_$LT$core..option..Option$LT$T$GT$$u20$as$u20$pyo3..impl_..wrap..SomeWrap$LT$T$GT$$GT$4wrap17he173018364aaec11E', symObjAddr: 0x664, symBinAddr: 0x3810, symSize: 0x18 }
  - { offset: 0x1639E, size: 0x8, addend: 0x0, symName: '__ZN4pyo311conversions3std6option90_$LT$impl$u20$pyo3..conversion..FromPyObject$u20$for$u20$core..option..Option$LT$T$GT$$GT$7extract17h18f94327a885bf31E', symObjAddr: 0x4B8, symBinAddr: 0x3664, symSize: 0x7C }
  - { offset: 0x163D3, size: 0x8, addend: 0x0, symName: '__ZN4pyo311conversions3std6option90_$LT$impl$u20$pyo3..conversion..FromPyObject$u20$for$u20$core..option..Option$LT$T$GT$$GT$7extract17h25b9c026cf925403E', symObjAddr: 0x534, symBinAddr: 0x36E0, symSize: 0x78 }
  - { offset: 0x16B69, size: 0x8, addend: 0x0, symName: '__ZN4core6option15Option$LT$T$GT$3map17h261c153059d67c98E', symObjAddr: 0x288, symBinAddr: 0x3434, symSize: 0x5C }
  - { offset: 0x16BE1, size: 0x8, addend: 0x0, symName: '__ZN4core6option15Option$LT$T$GT$3map17h35c2f3606cf4ecc7E', symObjAddr: 0x2E4, symBinAddr: 0x3490, symSize: 0x50 }
  - { offset: 0x16C59, size: 0x8, addend: 0x0, symName: '__ZN4core6option15Option$LT$T$GT$7is_some17hcb6f4c119c4b041fE', symObjAddr: 0x334, symBinAddr: 0x34E0, symSize: 0x28 }
  - { offset: 0x16C92, size: 0x8, addend: 0x0, symName: '__ZN4core6option15Option$LT$T$GT$7replace17h1a0b6f2fbef27423E', symObjAddr: 0x35C, symBinAddr: 0x3508, symSize: 0x28 }
  - { offset: 0x16D09, size: 0x8, addend: 0x0, symName: '__ZN4core6option15Option$LT$T$GT$9unwrap_or17h6a2bc1de19d2d733E', symObjAddr: 0x384, symBinAddr: 0x3530, symSize: 0x68 }
  - { offset: 0x16EAE, size: 0x8, addend: 0x0, symName: '__ZN4core6option15Option$LT$T$GT$9unwrap_or17h933b107edf244270E', symObjAddr: 0x3EC, symBinAddr: 0x3598, symSize: 0x8C }
  - { offset: 0x17313, size: 0x8, addend: 0x0, symName: '__ZN106_$LT$core..ops..range..Range$LT$usize$GT$$u20$as$u20$core..slice..index..SliceIndex$LT$$u5b$T$u5d$$GT$$GT$9index_mut17ha403c64e36ce71daE', symObjAddr: 0x0, symBinAddr: 0x3828, symSize: 0xBC }
  - { offset: 0x18534, size: 0x8, addend: 0x0, symName: '__ZN106_$LT$core..ops..range..Range$LT$usize$GT$$u20$as$u20$core..slice..index..SliceIndex$LT$$u5b$T$u5d$$GT$$GT$9index_mut17ha403c64e36ce71daE', symObjAddr: 0x0, symBinAddr: 0x3828, symSize: 0xBC }
  - { offset: 0x1866B, size: 0x8, addend: 0x0, symName: '__ZN108_$LT$core..ops..range..RangeTo$LT$usize$GT$$u20$as$u20$core..slice..index..SliceIndex$LT$$u5b$T$u5d$$GT$$GT$9index_mut17hc9006f1575ac1430E', symObjAddr: 0xBC, symBinAddr: 0x38E4, symSize: 0x54 }
  - { offset: 0x186EB, size: 0x8, addend: 0x0, symName: '__ZN110_$LT$core..ops..range..RangeFrom$LT$usize$GT$$u20$as$u20$core..slice..index..SliceIndex$LT$$u5b$T$u5d$$GT$$GT$5index17h0e172ce980ae042bE', symObjAddr: 0x110, symBinAddr: 0x3938, symSize: 0x94 }
  - { offset: 0x187EF, size: 0x8, addend: 0x0, symName: '__ZN110_$LT$core..ops..range..RangeFrom$LT$usize$GT$$u20$as$u20$core..slice..index..SliceIndex$LT$$u5b$T$u5d$$GT$$GT$5index17h7af68733dbeac8feE', symObjAddr: 0x1A4, symBinAddr: 0x39CC, symSize: 0x94 }
  - { offset: 0x18A3D, size: 0x8, addend: 0x0, symName: '__ZN86_$LT$core..ops..range..RangeFull$u20$as$u20$core..ops..range..RangeBounds$LT$T$GT$$GT$11start_bound17h46998cbcc14f2f31E', symObjAddr: 0x270, symBinAddr: 0x3A98, symSize: 0x18 }
  - { offset: 0x18A74, size: 0x8, addend: 0x0, symName: '__ZN86_$LT$core..ops..range..RangeFull$u20$as$u20$core..ops..range..RangeBounds$LT$T$GT$$GT$9end_bound17haf6b51130e755d66E', symObjAddr: 0x288, symBinAddr: 0x3AB0, symSize: 0x18 }
  - { offset: 0x18B71, size: 0x8, addend: 0x0, symName: '__ZN4core4iter5range116_$LT$impl$u20$core..iter..traits..double_ended..DoubleEndedIterator$u20$for$u20$core..ops..range..Range$LT$A$GT$$GT$9next_back17h658128f1994eab7aE', symObjAddr: 0x238, symBinAddr: 0x3A60, symSize: 0x24 }
  - { offset: 0x18BAE, size: 0x8, addend: 0x0, symName: '__ZN89_$LT$core..ops..range..Range$LT$T$GT$$u20$as$u20$core..iter..range..RangeIteratorImpl$GT$14spec_next_back17he72fe665629c4f57E', symObjAddr: 0x2A0, symBinAddr: 0x3AC8, symSize: 0x8C }
  - { offset: 0x18C1C, size: 0x8, addend: 0x0, symName: __ZN4core4iter6traits8iterator8Iterator3rev17h57c7ae545414344cE, symObjAddr: 0x25C, symBinAddr: 0x3A84, symSize: 0x14 }
  - { offset: 0x19380, size: 0x8, addend: 0x0, symName: _PyInit_cd_diagram, symObjAddr: 0x0, symBinAddr: 0x3B54, symSize: 0x34 }
  - { offset: 0x193A4, size: 0x8, addend: 0x0, symName: __ZN10cd_diagram9py_module9_PYO3_DEF17h8ff4e725baa96316E, symObjAddr: 0x108, symBinAddr: 0xC4388, symSize: 0x0 }
  - { offset: 0x193C3, size: 0x8, addend: 0x0, symName: __ZN10cd_diagram9py_module9_PYO3_DEF5SLOTS17h84124a82a8e3ae4eE, symObjAddr: 0x188, symBinAddr: 0xC4408, symSize: 0x0 }
  - { offset: 0x193D0, size: 0x8, addend: 0x0, symName: __ZN10cd_diagram9py_module9_PYO3_DEF18__pyo3_module_exec17h6bb25e6ff7a55fe0E, symObjAddr: 0x78, symBinAddr: 0x3BCC, symSize: 0x3C }
  - { offset: 0x193FD, size: 0x8, addend: 0x0, symName: _PyInit_cd_diagram, symObjAddr: 0x0, symBinAddr: 0x3B54, symSize: 0x34 }
  - { offset: 0x1B7F1, size: 0x8, addend: 0x0, symName: '__ZN10cd_diagram51_$LT$impl$u20$cd_diagram..py_module..ModuleExec$GT$18__pyo3_module_exec17hb7fdb1fcafaee1a8E', symObjAddr: 0x34, symBinAddr: 0x3B88, symSize: 0x44 }
  - { offset: 0x1B831, size: 0x8, addend: 0x0, symName: __ZN4core4char7methods15encode_utf8_raw17h69cb7c7c9be46507E, symObjAddr: 0x0, symBinAddr: 0x3C08, symSize: 0x110 }
  - { offset: 0x1B89F, size: 0x8, addend: 0x0, symName: __ZN4core4char7methods15encode_utf8_raw17h69cb7c7c9be46507E, symObjAddr: 0x0, symBinAddr: 0x3C08, symSize: 0x110 }
  - { offset: 0x1B986, size: 0x8, addend: 0x0, symName: '__ZN4core4char7methods22_$LT$impl$u20$char$GT$8to_digit17hf7fa3e1f9ab4ed76E', symObjAddr: 0x110, symBinAddr: 0x3D18, symSize: 0x14C }
  - { offset: 0x1BA52, size: 0x8, addend: 0x0, symName: __ZN4core4char7methods25encode_utf8_raw_unchecked17h388a8afbff189cf6E, symObjAddr: 0x25C, symBinAddr: 0x3E64, symSize: 0x188 }
  - { offset: 0x1C21D, size: 0x8, addend: 0x0, symName: __ZN4pyo35types4none6PyNone3get17h9fbb9ffc81d06b4dE, symObjAddr: 0x0, symBinAddr: 0x3FEC, symSize: 0x24 }
  - { offset: 0x1D98A, size: 0x8, addend: 0x0, symName: __ZN4pyo35types4none6PyNone3get17h9fbb9ffc81d06b4dE, symObjAddr: 0x0, symBinAddr: 0x3FEC, symSize: 0x24 }
  - { offset: 0x1D9D5, size: 0x8, addend: 0x0, symName: __ZN4core9core_arch10arm_shared4neon9generated19vreinterpret_u64_u817h267f0af53942d560E, symObjAddr: 0x0, symBinAddr: 0x4010, symSize: 0xC }
  - { offset: 0x1D9FB, size: 0x8, addend: 0x0, symName: __ZN4core9core_arch10arm_shared4neon9generated19vreinterpret_u64_u817h267f0af53942d560E, symObjAddr: 0x0, symBinAddr: 0x4010, symSize: 0xC }
  - { offset: 0x1DA29, size: 0x8, addend: 0x0, symName: __ZN4core9core_arch10arm_shared4neon9generated7vceq_u817h9fbd207df4b4c8d9E, symObjAddr: 0xC, symBinAddr: 0x401C, symSize: 0x14 }
  - { offset: 0x1DA66, size: 0x8, addend: 0x0, symName: __ZN4core9core_arch10arm_shared4neon9generated9vdup_n_u817h49967845f3c42b9dE, symObjAddr: 0x20, symBinAddr: 0x4030, symSize: 0x2C }
  - { offset: 0x1DBAB, size: 0x8, addend: 0x0, symName: __ZN4core3fmt8builders8DebugMap7entries17hb33f7c697f1db9baE, symObjAddr: 0x0, symBinAddr: 0x405C, symSize: 0xF8 }
  - { offset: 0x1E27B, size: 0x8, addend: 0x0, symName: __ZN4core3fmt8builders8DebugMap7entries17hb33f7c697f1db9baE, symObjAddr: 0x0, symBinAddr: 0x405C, symSize: 0xF8 }
  - { offset: 0x1E328, size: 0x8, addend: 0x0, symName: __ZN4core3fmt8builders9DebugList7entries17hd3e0656b3a1f5c7fE, symObjAddr: 0xF8, symBinAddr: 0x4154, symSize: 0xD0 }
  - { offset: 0x1E3BE, size: 0x8, addend: 0x0, symName: __ZN4core9ub_checks23maybe_is_nonoverlapping7runtime17h1bf7ea7b8b3b4523E, symObjAddr: 0x0, symBinAddr: 0x4224, symSize: 0xD8 }
  - { offset: 0x1E543, size: 0x8, addend: 0x0, symName: __ZN4core9ub_checks23maybe_is_nonoverlapping7runtime17h1bf7ea7b8b3b4523E, symObjAddr: 0x0, symBinAddr: 0x4224, symSize: 0xD8 }
  - { offset: 0x1E756, size: 0x8, addend: 0x0, symName: '__ZN106_$LT$core..ops..range..Range$LT$usize$GT$$u20$as$u20$core..slice..index..SliceIndex$LT$$u5b$T$u5d$$GT$$GT$13get_unchecked18precondition_check17hd153f2c83b5d9166E', symObjAddr: 0x0, symBinAddr: 0x42FC, symSize: 0xCC }
  - { offset: 0x1EA82, size: 0x8, addend: 0x0, symName: '__ZN106_$LT$core..ops..range..Range$LT$usize$GT$$u20$as$u20$core..slice..index..SliceIndex$LT$$u5b$T$u5d$$GT$$GT$13get_unchecked18precondition_check17hd153f2c83b5d9166E', symObjAddr: 0x0, symBinAddr: 0x42FC, symSize: 0xCC }
  - { offset: 0x1ECA0, size: 0x8, addend: 0x0, symName: '__ZN4pyo35impl_4wrap82EmptyTupleConverter$LT$core..result..Result$LT$$LP$$RP$$C$pyo3..err..PyErr$GT$$GT$12map_into_ptr17h253b594b2beaa486E', symObjAddr: 0x0, symBinAddr: 0x43C8, symSize: 0x2C }
  - { offset: 0x20A30, size: 0x8, addend: 0x0, symName: '__ZN4pyo35impl_4wrap82EmptyTupleConverter$LT$core..result..Result$LT$$LP$$RP$$C$pyo3..err..PyErr$GT$$GT$12map_into_ptr17h253b594b2beaa486E', symObjAddr: 0x0, symBinAddr: 0x43C8, symSize: 0x2C }
  - { offset: 0x20A98, size: 0x8, addend: 0x0, symName: __ZN4pyo36marker6Python15assume_attached17hf06df9d28fa388c9E, symObjAddr: 0x0, symBinAddr: 0x43F4, symSize: 0x4 }
  - { offset: 0x20BD4, size: 0x8, addend: 0x0, symName: __ZN4pyo36marker6Python15assume_attached17hf06df9d28fa388c9E, symObjAddr: 0x0, symBinAddr: 0x43F4, symSize: 0x4 }
  - { offset: 0x20C05, size: 0x8, addend: 0x0, symName: __ZN4core3num9int_log103u6417h2bbb10496d04762eE, symObjAddr: 0x0, symBinAddr: 0x43F8, symSize: 0xE8 }
  - { offset: 0x20C3D, size: 0x8, addend: 0x0, symName: __ZN4core3num9int_log103u6417h2bbb10496d04762eE, symObjAddr: 0x0, symBinAddr: 0x43F8, symSize: 0xE8 }
  - { offset: 0x20CD2, size: 0x8, addend: 0x0, symName: __ZN4pyo35impl_16extract_argument16extract_argument17h21a06c7aba67dc3bE, symObjAddr: 0x0, symBinAddr: 0x44E0, symSize: 0x15C }
  - { offset: 0x229F7, size: 0x8, addend: 0x0, symName: __ZN4pyo35impl_16extract_argument16extract_argument17h21a06c7aba67dc3bE, symObjAddr: 0x0, symBinAddr: 0x44E0, symSize: 0x15C }
  - { offset: 0x22A7B, size: 0x8, addend: 0x0, symName: __ZN4pyo35impl_16extract_argument16extract_argument17h281b99c4e010e408E, symObjAddr: 0x15C, symBinAddr: 0x463C, symSize: 0x174 }
  - { offset: 0x22B00, size: 0x8, addend: 0x0, symName: __ZN4pyo35impl_16extract_argument16extract_argument17h2aba77c1ce23e3a6E, symObjAddr: 0x2D0, symBinAddr: 0x47B0, symSize: 0x174 }
  - { offset: 0x22B85, size: 0x8, addend: 0x0, symName: __ZN4pyo35impl_16extract_argument16extract_argument17h90c5af31636226b7E, symObjAddr: 0x444, symBinAddr: 0x4924, symSize: 0x174 }
  - { offset: 0x22C0A, size: 0x8, addend: 0x0, symName: __ZN4pyo35impl_16extract_argument16extract_argument17hf0158ca2a5c2e414E, symObjAddr: 0x5B8, symBinAddr: 0x4A98, symSize: 0x174 }
  - { offset: 0x22D98, size: 0x8, addend: 0x0, symName: '__ZN4pyo35impl_16extract_argument19FunctionDescription26extract_arguments_fastcall28_$u7b$$u7b$closure$u7d$$u7d$17hf16f7c5a55a55519E', symObjAddr: 0x1400, symBinAddr: 0x58E0, symSize: 0x24 }
  - { offset: 0x22DF0, size: 0x8, addend: 0x0, symName: '__ZN4pyo35impl_16extract_argument19FunctionDescription36find_keyword_parameter_in_positional28_$u7b$$u7b$closure$u7d$$u7d$17hfa670ce346732c03E', symObjAddr: 0x1424, symBinAddr: 0x5904, symSize: 0x48 }
  - { offset: 0x22E50, size: 0x8, addend: 0x0, symName: '__ZN4pyo35impl_16extract_argument19FunctionDescription38find_keyword_parameter_in_keyword_only28_$u7b$$u7b$closure$u7d$$u7d$17h81a29228c97a724fE', symObjAddr: 0x146C, symBinAddr: 0x594C, symSize: 0x38 }
  - { offset: 0x22E92, size: 0x8, addend: 0x0, symName: __ZN4pyo35impl_16extract_argument29extract_argument_with_default17ha902eeeeb4bfb60bE, symObjAddr: 0x14A4, symBinAddr: 0x5984, symSize: 0x9C }
  - { offset: 0x22F0E, size: 0x8, addend: 0x0, symName: __ZN4pyo35impl_16extract_argument29extract_argument_with_default17haab8c48452c40e77E, symObjAddr: 0x1540, symBinAddr: 0x5A20, symSize: 0x9C }
  - { offset: 0x22F8F, size: 0x8, addend: 0x0, symName: '__ZN80_$LT$T$u20$as$u20$pyo3..impl_..extract_argument..PyFunctionArgument$LT$_$GT$$GT$7extract17hafd5d3aa28946fa6E', symObjAddr: 0x15DC, symBinAddr: 0x5ABC, symSize: 0x28 }
  - { offset: 0x239EB, size: 0x8, addend: 0x0, symName: __ZN4pyo35impl_16extract_argument19FunctionDescription13handle_kwargs17h784f9c9b7e3767caE, symObjAddr: 0x72C, symBinAddr: 0x4C0C, symSize: 0x6FC }
  - { offset: 0x23C04, size: 0x8, addend: 0x0, symName: __ZN4pyo35impl_16extract_argument19FunctionDescription26extract_arguments_fastcall17hb1ab09f889fe36edE, symObjAddr: 0xE28, symBinAddr: 0x5308, symSize: 0x5D8 }
  - { offset: 0x2421F, size: 0x8, addend: 0x0, symName: __ZN3std2io5Write9write_all17h7230ea8a2e3dd461E, symObjAddr: 0x0, symBinAddr: 0x5AE4, symSize: 0x268 }
  - { offset: 0x245AC, size: 0x8, addend: 0x0, symName: __ZN3std2io5Write9write_all17h7230ea8a2e3dd461E, symObjAddr: 0x0, symBinAddr: 0x5AE4, symSize: 0x268 }
  - { offset: 0x24754, size: 0x8, addend: 0x0, symName: __ZN3std2io5Write9write_fmt17hea545f734e64c04fE, symObjAddr: 0x268, symBinAddr: 0x5D4C, symSize: 0x154 }
  - { offset: 0x24FE2, size: 0x8, addend: 0x0, symName: '__ZN104_$LT$core..iter..adapters..copied..Copied$LT$I$GT$$u20$as$u20$core..iter..traits..iterator..Iterator$GT$4next17h6d334144318a4b00E', symObjAddr: 0x0, symBinAddr: 0x5EA0, symSize: 0x5C }
  - { offset: 0x26293, size: 0x8, addend: 0x0, symName: '__ZN104_$LT$core..iter..adapters..copied..Copied$LT$I$GT$$u20$as$u20$core..iter..traits..iterator..Iterator$GT$4next17h6d334144318a4b00E', symObjAddr: 0x0, symBinAddr: 0x5EA0, symSize: 0x5C }
  - { offset: 0x26338, size: 0x8, addend: 0x0, symName: '__ZN63_$LT$I$u20$as$u20$core..iter..traits..collect..IntoIterator$GT$9into_iter17h947a122613f17bb6E', symObjAddr: 0x5C, symBinAddr: 0x5EFC, symSize: 0x1C }
  - { offset: 0x269D6, size: 0x8, addend: 0x0, symName: '__ZN68_$LT$core..num..error..ParseIntError$u20$as$u20$core..fmt..Debug$GT$3fmt17h2bd01ea26baceaa6E', symObjAddr: 0x0, symBinAddr: 0x5F18, symSize: 0x64 }
  - { offset: 0x26A2F, size: 0x8, addend: 0x0, symName: '__ZN68_$LT$core..num..error..ParseIntError$u20$as$u20$core..fmt..Debug$GT$3fmt17h2bd01ea26baceaa6E', symObjAddr: 0x0, symBinAddr: 0x5F18, symSize: 0x64 }
  - { offset: 0x26C00, size: 0x8, addend: 0x0, symName: __ZN3svg4node7element4path4data4Data3new17h2b20cf17f34ec7dbE, symObjAddr: 0x0, symBinAddr: 0x5F7C, symSize: 0x14 }
  - { offset: 0x26C67, size: 0x8, addend: 0x0, symName: '__ZN79_$LT$svg..node..element..path..data..Data$u20$as$u20$core..default..Default$GT$7default17h84567da54a158fe6E', symObjAddr: 0x14, symBinAddr: 0x5F90, symSize: 0x38 }
  - { offset: 0x2707F, size: 0x8, addend: 0x0, symName: __ZN3svg4node7element4path4data4Data3new17h2b20cf17f34ec7dbE, symObjAddr: 0x0, symBinAddr: 0x5F7C, symSize: 0x14 }
  - { offset: 0x270B0, size: 0x8, addend: 0x0, symName: '__ZN103_$LT$pyo3..instance..Bound$LT$pyo3..types..any..PyAny$GT$$u20$as$u20$pyo3..types..any..PyAnyMethods$GT$7is_none17hf78b44f9e6f43187E', symObjAddr: 0x0, symBinAddr: 0x5FC8, symSize: 0x4C }
  - { offset: 0x28A2D, size: 0x8, addend: 0x0, symName: '__ZN103_$LT$pyo3..instance..Bound$LT$pyo3..types..any..PyAny$GT$$u20$as$u20$pyo3..types..any..PyAnyMethods$GT$7is_none17hf78b44f9e6f43187E', symObjAddr: 0x0, symBinAddr: 0x5FC8, symSize: 0x4C }
  - { offset: 0x28D56, size: 0x8, addend: 0x0, symName: '__ZN4pyo38instance39Borrowed$LT$pyo3..types..any..PyAny$GT$13from_non_null17h48e0a54a313b0c63E', symObjAddr: 0x4C, symBinAddr: 0x6014, symSize: 0x14 }
  - { offset: 0x28F82, size: 0x8, addend: 0x0, symName: '__ZN4pyo38instance39Borrowed$LT$pyo3..types..any..PyAny$GT$15from_ptr_or_err17hf758707d49b6864bE', symObjAddr: 0x60, symBinAddr: 0x6028, symSize: 0x38 }
  - { offset: 0x28FC0, size: 0x8, addend: 0x0, symName: '__ZN4pyo38instance39Borrowed$LT$pyo3..types..any..PyAny$GT$15from_ptr_or_opt17h6515fc4dab8d551eE', symObjAddr: 0x98, symBinAddr: 0x6060, symSize: 0x2C }
  - { offset: 0x28FFE, size: 0x8, addend: 0x0, symName: '__ZN4pyo38instance39Borrowed$LT$pyo3..types..any..PyAny$GT$18from_ptr_unchecked17h75ee61effae97a94E', symObjAddr: 0xC4, symBinAddr: 0x608C, symSize: 0x30 }
  - { offset: 0x29067, size: 0x8, addend: 0x0, symName: '__ZN4core3fmt2rt38_$LT$impl$u20$core..fmt..Arguments$GT$16new_v1_formatted17h57096315c5c4b4a7E', symObjAddr: 0x0, symBinAddr: 0x60BC, symSize: 0x48 }
  - { offset: 0x2958B, size: 0x8, addend: 0x0, symName: '__ZN4core3fmt2rt38_$LT$impl$u20$core..fmt..Arguments$GT$16new_v1_formatted17h57096315c5c4b4a7E', symObjAddr: 0x0, symBinAddr: 0x60BC, symSize: 0x48 }
  - { offset: 0x29627, size: 0x8, addend: 0x0, symName: __ZN4core3fmt9Formatter9write_fmt17h6201ced4942b0d61E, symObjAddr: 0x48, symBinAddr: 0x6104, symSize: 0x17C }
  - { offset: 0x296EB, size: 0x8, addend: 0x0, symName: '__ZN99_$LT$svg..node..element..path..parameters..Parameters$u20$as$u20$core..convert..From$LT$f64$GT$$GT$4from17h547ce2fd9d472fb5E', symObjAddr: 0x0, symBinAddr: 0x6280, symSize: 0xBC }
  - { offset: 0x29716, size: 0x8, addend: 0x0, symName: '__ZN99_$LT$svg..node..element..path..parameters..Parameters$u20$as$u20$core..convert..From$LT$f64$GT$$GT$4from17h547ce2fd9d472fb5E', symObjAddr: 0x0, symBinAddr: 0x6280, symSize: 0xBC }
  - { offset: 0x2990B, size: 0x8, addend: 0x0, symName: '__ZN4core3ptr8non_null16NonNull$LT$T$GT$13new_unchecked18precondition_check17hec811e545f6fd33eE', symObjAddr: 0x0, symBinAddr: 0x633C, symSize: 0xA4 }
  - { offset: 0x29B8D, size: 0x8, addend: 0x0, symName: '__ZN4core3ptr8non_null16NonNull$LT$T$GT$13new_unchecked18precondition_check17hec811e545f6fd33eE', symObjAddr: 0x0, symBinAddr: 0x633C, symSize: 0xA4 }
  - { offset: 0x29E3A, size: 0x8, addend: 0x0, symName: '__ZN4core3str6traits54_$LT$impl$u20$core..cmp..PartialEq$u20$for$u20$str$GT$2eq17ha048452508f48107E', symObjAddr: 0x0, symBinAddr: 0x63E0, symSize: 0xAC }
  - { offset: 0x29E7F, size: 0x8, addend: 0x0, symName: '__ZN4core3str6traits54_$LT$impl$u20$core..cmp..PartialEq$u20$for$u20$str$GT$2eq17ha048452508f48107E', symObjAddr: 0x0, symBinAddr: 0x63E0, symSize: 0xAC }
  - { offset: 0x2A1AA, size: 0x8, addend: 0x0, symName: '__ZN57_$LT$svg..node..text..Text$u20$as$u20$svg..node..Node$GT$7is_bare17h695cdb6dafd975dbE', symObjAddr: 0x0, symBinAddr: 0x648C, symSize: 0x18 }
  - { offset: 0x2A519, size: 0x8, addend: 0x0, symName: '__ZN57_$LT$svg..node..text..Text$u20$as$u20$svg..node..Node$GT$7is_bare17h695cdb6dafd975dbE', symObjAddr: 0x0, symBinAddr: 0x648C, symSize: 0x18 }
  - { offset: 0x2A545, size: 0x8, addend: 0x0, symName: '__ZN57_$LT$svg..node..text..Text$u20$as$u20$svg..node..Node$GT$8get_name17h364131221274ec15E', symObjAddr: 0x18, symBinAddr: 0x64A4, symSize: 0x20 }
  - { offset: 0x2A577, size: 0x8, addend: 0x0, symName: '__ZN58_$LT$svg..node..text..Text$u20$as$u20$core..fmt..Debug$GT$3fmt17hd51a187e7a474a73E', symObjAddr: 0x38, symBinAddr: 0x64C4, symSize: 0x64 }
  - { offset: 0x2A5B7, size: 0x8, addend: 0x0, symName: '__ZN60_$LT$svg..node..text..Text$u20$as$u20$core..clone..Clone$GT$5clone17hc8f1b7ea1a83e33bE', symObjAddr: 0x9C, symBinAddr: 0x6528, symSize: 0x48 }
  - { offset: 0x2A5E9, size: 0x8, addend: 0x0, symName: '__ZN60_$LT$svg..node..text..Text$u20$as$u20$core..fmt..Display$GT$3fmt17hf34485e7e131e080E', symObjAddr: 0xE4, symBinAddr: 0x6570, symSize: 0x80 }
  - { offset: 0x2A629, size: 0x8, addend: 0x0, symName: '__ZN68_$LT$svg..node..text..Text$u20$as$u20$svg..node..NodeDefaultHash$GT$12default_hash17ha5733f76d523d1e0E', symObjAddr: 0x164, symBinAddr: 0x65F0, symSize: 0x2C }
  - { offset: 0x2A776, size: 0x8, addend: 0x0, symName: '__ZN3std3ffi6os_str103_$LT$impl$u20$core..convert..AsRef$LT$std..ffi..os_str..OsStr$GT$$u20$for$u20$alloc..string..String$GT$6as_ref17hcb80acf40d106a1aE', symObjAddr: 0x0, symBinAddr: 0x661C, symSize: 0x80 }
  - { offset: 0x2A8AD, size: 0x8, addend: 0x0, symName: '__ZN65_$LT$alloc..string..String$u20$as$u20$core..ops..deref..Deref$GT$5deref17he0cafdc195ada694E', symObjAddr: 0x4E0, symBinAddr: 0x6AFC, symSize: 0x24 }
  - { offset: 0x2A965, size: 0x8, addend: 0x0, symName: '__ZN53_$LT$usize$u20$as$u20$alloc..string..SpecToString$GT$14spec_to_string17hf4878cf948598664E', symObjAddr: 0xA4, symBinAddr: 0x66C0, symSize: 0x6C }
  - { offset: 0x2AAE4, size: 0x8, addend: 0x0, symName: '__ZN58_$LT$alloc..string..String$u20$as$u20$core..fmt..Debug$GT$3fmt17hfbe292ac26bf28f5E', symObjAddr: 0x110, symBinAddr: 0x672C, symSize: 0x88 }
  - { offset: 0x2AC49, size: 0x8, addend: 0x0, symName: '__ZN58_$LT$alloc..string..String$u20$as$u20$core..fmt..Write$GT$10write_char17h02b57148c5324e0bE', symObjAddr: 0x198, symBinAddr: 0x67B4, symSize: 0x38 }
  - { offset: 0x2AC86, size: 0x8, addend: 0x0, symName: '__ZN58_$LT$alloc..string..String$u20$as$u20$core..fmt..Write$GT$9write_str17h32b6a1b3789a3a22E', symObjAddr: 0x1D0, symBinAddr: 0x67EC, symSize: 0x40 }
  - { offset: 0x2ACC9, size: 0x8, addend: 0x0, symName: '__ZN60_$LT$alloc..string..String$u20$as$u20$core..fmt..Display$GT$3fmt17h3f6ddb725fb0f1ffE', symObjAddr: 0x458, symBinAddr: 0x6A74, symSize: 0x88 }
  - { offset: 0x2B0EF, size: 0x8, addend: 0x0, symName: '__ZN5alloc3str83_$LT$impl$u20$core..borrow..Borrow$LT$str$GT$$u20$for$u20$alloc..string..String$GT$6borrow17h80ff381c0c7c6c87E', symObjAddr: 0x210, symBinAddr: 0x682C, symSize: 0x2C }
  - { offset: 0x2B9FB, size: 0x8, addend: 0x0, symName: '__ZN3std3ffi6os_str103_$LT$impl$u20$core..convert..AsRef$LT$std..ffi..os_str..OsStr$GT$$u20$for$u20$alloc..string..String$GT$6as_ref17hcb80acf40d106a1aE', symObjAddr: 0x0, symBinAddr: 0x661C, symSize: 0x80 }
  - { offset: 0x2BBBF, size: 0x8, addend: 0x0, symName: '__ZN3std4path95_$LT$impl$u20$core..convert..AsRef$LT$std..path..Path$GT$$u20$for$u20$alloc..string..String$GT$6as_ref17ha16e530bd782eb53E', symObjAddr: 0x80, symBinAddr: 0x669C, symSize: 0x24 }
  - { offset: 0x2BD33, size: 0x8, addend: 0x0, symName: __ZN5alloc6string6String10into_bytes17ha91f9cc7c3960adaE, symObjAddr: 0x23C, symBinAddr: 0x6858, symSize: 0x18 }
  - { offset: 0x2BF18, size: 0x8, addend: 0x0, symName: __ZN5alloc6string6String4push17h1b0c1c23f3497349E, symObjAddr: 0x254, symBinAddr: 0x6870, symSize: 0x13C }
  - { offset: 0x2C1DA, size: 0x8, addend: 0x0, symName: __ZN5alloc6string6String6as_str17hfd0843d7f18bec42E, symObjAddr: 0x390, symBinAddr: 0x69AC, symSize: 0x78 }
  - { offset: 0x2C3A8, size: 0x8, addend: 0x0, symName: __ZN5alloc6string6String8push_str17h6266426cd832383aE, symObjAddr: 0x408, symBinAddr: 0x6A24, symSize: 0x50 }
  - { offset: 0x2C65E, size: 0x8, addend: 0x0, symName: '__ZN4core5slice29_$LT$impl$u20$$u5b$T$u5d$$GT$18split_at_unchecked18precondition_check17h65e137624f29da0eE', symObjAddr: 0x0, symBinAddr: 0x6B20, symSize: 0xAC }
  - { offset: 0x2C985, size: 0x8, addend: 0x0, symName: '__ZN4core5slice29_$LT$impl$u20$$u5b$T$u5d$$GT$18split_at_unchecked18precondition_check17h65e137624f29da0eE', symObjAddr: 0x0, symBinAddr: 0x6B20, symSize: 0xAC }
  - { offset: 0x2CB94, size: 0x8, addend: 0x0, symName: '__ZN150_$LT$$LT$alloc..vec..drain..Drain$LT$T$C$A$GT$$u20$as$u20$core..ops..drop..Drop$GT$..drop..DropGuard$LT$T$C$A$GT$$u20$as$u20$core..ops..drop..Drop$GT$4drop17h2afb35a2fd2a0e63E', symObjAddr: 0x0, symBinAddr: 0x6BCC, symSize: 0x1A4 }
  - { offset: 0x2DD03, size: 0x8, addend: 0x0, symName: '__ZN4core3ptr189drop_in_place$LT$$LT$alloc..vec..drain..Drain$LT$T$C$A$GT$$u20$as$u20$core..ops..drop..Drop$GT$..drop..DropGuard$LT$svg..node..element..path..command..Command$C$alloc..alloc..Global$GT$$GT$17hf6f76903bddbc0bdE', symObjAddr: 0x488, symBinAddr: 0x6FC4, symSize: 0x24 }
  - { offset: 0x2DD32, size: 0x8, addend: 0x0, symName: '__ZN4core3ptr205drop_in_place$LT$$LT$T$u20$as$u20$alloc..slice..$LT$impl$u20$$u5b$T$u5d$$GT$..to_vec_in..ConvertVec$GT$..to_vec..DropGuard$LT$alloc..boxed..Box$LT$dyn$u20$svg..node..Node$GT$$C$alloc..alloc..Global$GT$$GT$17h90ad627f2e3d78f7E', symObjAddr: 0x4AC, symBinAddr: 0x6FE8, symSize: 0x24 }
  - { offset: 0x2DD61, size: 0x8, addend: 0x0, symName: '__ZN4core3ptr252drop_in_place$LT$core..iter..adapters..map..Map$LT$alloc..vec..drain..Drain$LT$svg..node..element..path..command..Command$GT$$C$$LT$alloc..string..String$u20$as$u20$core..convert..From$LT$svg..node..element..path..command..Command$GT$$GT$..from$GT$$GT$17h4601ae65f3d2fcb1E', symObjAddr: 0x4D0, symBinAddr: 0x700C, symSize: 0x24 }
  - { offset: 0x2DD90, size: 0x8, addend: 0x0, symName: '__ZN4core3ptr313drop_in_place$LT$hashbrown..scopeguard..ScopeGuard$LT$$LP$usize$C$$RF$mut$u20$hashbrown..raw..RawTable$LT$$LP$alloc..string..String$C$svg..node..value..Value$RP$$GT$$RP$$C$hashbrown..raw..RawTable$LT$$LP$alloc..string..String$C$svg..node..value..Value$RP$$GT$..clone_from_impl..$u7b$$u7b$closure$u7d$$u7d$$GT$$GT$17hd4a5feb341e9ddc2E', symObjAddr: 0x4F4, symBinAddr: 0x7030, symSize: 0x24 }
  - { offset: 0x2DDBF, size: 0x8, addend: 0x0, symName: '__ZN4core3ptr349drop_in_place$LT$alloc..vec..Vec$LT$alloc..string..String$GT$..extend_trusted$LT$core..iter..adapters..map..Map$LT$alloc..vec..drain..Drain$LT$svg..node..element..path..command..Command$GT$$C$$LT$alloc..string..String$u20$as$u20$core..convert..From$LT$svg..node..element..path..command..Command$GT$$GT$..from$GT$$GT$..$u7b$$u7b$closure$u7d$$u7d$$GT$17hfd532d0bede777f4E', symObjAddr: 0x518, symBinAddr: 0x7054, symSize: 0x24 }
  - { offset: 0x2DDEE, size: 0x8, addend: 0x0, symName: '__ZN4core3ptr34drop_in_place$LT$std..fs..File$GT$17h77752b2a844324a2E', symObjAddr: 0x53C, symBinAddr: 0x7078, symSize: 0x24 }
  - { offset: 0x2DE1D, size: 0x8, addend: 0x0, symName: '__ZN4core3ptr42drop_in_place$LT$svg..node..text..Text$GT$17h8c95f58dfd39b3c2E', symObjAddr: 0x560, symBinAddr: 0x709C, symSize: 0x24 }
  - { offset: 0x2DE4C, size: 0x8, addend: 0x0, symName: '__ZN4core3ptr44drop_in_place$LT$svg..node..element..SVG$GT$17h3e38436c4e44645eE', symObjAddr: 0x5CC, symBinAddr: 0x70C0, symSize: 0x24 }
  - { offset: 0x2DE7B, size: 0x8, addend: 0x0, symName: '__ZN4core3ptr45drop_in_place$LT$std..sys..fs..unix..File$GT$17hffe8e24023170ec1E', symObjAddr: 0x5F0, symBinAddr: 0x70E4, symSize: 0x24 }
  - { offset: 0x2DEAA, size: 0x8, addend: 0x0, symName: '__ZN4core3ptr45drop_in_place$LT$svg..node..element..Path$GT$17hc53087d019c4c0aeE', symObjAddr: 0x614, symBinAddr: 0x7108, symSize: 0x24 }
  - { offset: 0x2DED9, size: 0x8, addend: 0x0, symName: '__ZN4core3ptr45drop_in_place$LT$svg..node..element..Text$GT$17h798bb12439f45da5E', symObjAddr: 0x638, symBinAddr: 0x712C, symSize: 0x24 }
  - { offset: 0x2DF08, size: 0x8, addend: 0x0, symName: '__ZN4core3ptr464drop_in_place$LT$core..iter..traits..iterator..Iterator..for_each..call$LT$alloc..string..String$C$alloc..vec..Vec$LT$alloc..string..String$GT$..extend_trusted$LT$core..iter..adapters..map..Map$LT$alloc..vec..drain..Drain$LT$svg..node..element..path..command..Command$GT$$C$$LT$alloc..string..String$u20$as$u20$core..convert..From$LT$svg..node..element..path..command..Command$GT$$GT$..from$GT$$GT$..$u7b$$u7b$closure$u7d$$u7d$$GT$..$u7b$$u7b$closure$u7d$$u7d$$GT$17h31ba59bcb0c07632E', symObjAddr: 0x65C, symBinAddr: 0x7150, symSize: 0x24 }
  - { offset: 0x2DF37, size: 0x8, addend: 0x0, symName: '__ZN4core3ptr47drop_in_place$LT$alloc..vec..Vec$LT$f64$GT$$GT$17h5782d6be8684c1ceE', symObjAddr: 0x680, symBinAddr: 0x7174, symSize: 0x5C }
  - { offset: 0x2DF66, size: 0x8, addend: 0x0, symName: '__ZN4core3ptr48drop_in_place$LT$std..os..fd..owned..OwnedFd$GT$17hd93cad579a9a4ae1E', symObjAddr: 0x6DC, symBinAddr: 0x71D0, symSize: 0x24 }
  - { offset: 0x2DF95, size: 0x8, addend: 0x0, symName: '__ZN4core3ptr48drop_in_place$LT$svg..node..element..Element$GT$17he133fc208687b98fE', symObjAddr: 0x700, symBinAddr: 0x71F4, symSize: 0x90 }
  - { offset: 0x2DFC4, size: 0x8, addend: 0x0, symName: '__ZN4core3ptr49drop_in_place$LT$std..sys..fd..unix..FileDesc$GT$17h3c5f8fda77760899E', symObjAddr: 0x790, symBinAddr: 0x7284, symSize: 0x24 }
  - { offset: 0x2DFF3, size: 0x8, addend: 0x0, symName: '__ZN4core3ptr50drop_in_place$LT$svg..node..element..Rectangle$GT$17he0962208ef6f8289E', symObjAddr: 0x7B4, symBinAddr: 0x72A8, symSize: 0x24 }
  - { offset: 0x2E022, size: 0x8, addend: 0x0, symName: '__ZN4core3ptr54drop_in_place$LT$alloc..raw_vec..RawVec$LT$f64$GT$$GT$17hf175f6487c94b76aE', symObjAddr: 0x7FC, symBinAddr: 0x72CC, symSize: 0x24 }
  - { offset: 0x2E051, size: 0x8, addend: 0x0, symName: '__ZN4core3ptr69drop_in_place$LT$alloc..boxed..Box$LT$dyn$u20$svg..node..Node$GT$$GT$17h9711fa42795d9bddE', symObjAddr: 0x820, symBinAddr: 0x72F0, symSize: 0x80 }
  - { offset: 0x2E080, size: 0x8, addend: 0x0, symName: '__ZN4core3ptr735drop_in_place$LT$core..iter..adapters..map..map_fold$LT$svg..node..element..path..command..Command$C$alloc..string..String$C$$LP$$RP$$C$$LT$alloc..string..String$u20$as$u20$core..convert..From$LT$svg..node..element..path..command..Command$GT$$GT$..from$C$core..iter..traits..iterator..Iterator..for_each..call$LT$alloc..string..String$C$alloc..vec..Vec$LT$alloc..string..String$GT$..extend_trusted$LT$core..iter..adapters..map..Map$LT$alloc..vec..drain..Drain$LT$svg..node..element..path..command..Command$GT$$C$$LT$alloc..string..String$u20$as$u20$core..convert..From$LT$svg..node..element..path..command..Command$GT$$GT$..from$GT$$GT$..$u7b$$u7b$closure$u7d$$u7d$$GT$..$u7b$$u7b$closure$u7d$$u7d$$GT$..$u7b$$u7b$closure$u7d$$u7d$$GT$17h9f3a01e4d04675f1E', symObjAddr: 0x8A0, symBinAddr: 0x7370, symSize: 0x24 }
  - { offset: 0x2E0AF, size: 0x8, addend: 0x0, symName: '__ZN4core3ptr79drop_in_place$LT$$u5b$alloc..boxed..Box$LT$dyn$u20$svg..node..Node$GT$$u5d$$GT$17h0111963fb7b34bf3E', symObjAddr: 0x8C4, symBinAddr: 0x7394, symSize: 0xB4 }
  - { offset: 0x2E0DE, size: 0x8, addend: 0x0, symName: '__ZN4core3ptr81drop_in_place$LT$core..result..Result$LT$$LP$$RP$$C$std..io..error..Error$GT$$GT$17h7937d494b88e8c8cE', symObjAddr: 0x978, symBinAddr: 0x7448, symSize: 0x44 }
  - { offset: 0x2E10D, size: 0x8, addend: 0x0, symName: '__ZN4core3ptr92drop_in_place$LT$alloc..vec..Vec$LT$alloc..boxed..Box$LT$dyn$u20$svg..node..Node$GT$$GT$$GT$17hc1c81ef2ed570413E', symObjAddr: 0x9BC, symBinAddr: 0x748C, symSize: 0x5C }
  - { offset: 0x2E13C, size: 0x8, addend: 0x0, symName: '__ZN4core3ptr93drop_in_place$LT$std..io..default_write_fmt..Adapter$LT$std..sys..stdio..unix..Stderr$GT$$GT$17h75b9db515981dc3dE', symObjAddr: 0xA18, symBinAddr: 0x74E8, symSize: 0x24 }
  - { offset: 0x2E16B, size: 0x8, addend: 0x0, symName: '__ZN4core3ptr95drop_in_place$LT$alloc..vec..drain..Drain$LT$svg..node..element..path..command..Command$GT$$GT$17hcbb1129cb3941ed2E', symObjAddr: 0xA3C, symBinAddr: 0x750C, symSize: 0x24 }
  - { offset: 0x2E19A, size: 0x8, addend: 0x0, symName: '__ZN4core3ptr99drop_in_place$LT$alloc..raw_vec..RawVec$LT$alloc..boxed..Box$LT$dyn$u20$svg..node..Node$GT$$GT$$GT$17h60c71d694aa61842E', symObjAddr: 0xA60, symBinAddr: 0x7530, symSize: 0x24 }
  - { offset: 0x2E4F2, size: 0x8, addend: 0x0, symName: __ZN4core3ops8function5FnMut8call_mut17h2d7b41cebee01552E, symObjAddr: 0x1D4, symBinAddr: 0x6DA0, symSize: 0x38 }
  - { offset: 0x2E53C, size: 0x8, addend: 0x0, symName: '__ZN4core3ops8function6FnOnce40call_once$u7b$$u7b$vtable.shim$u7d$$u7d$17hdfe58b89015194a6E', symObjAddr: 0x20C, symBinAddr: 0x6DD8, symSize: 0x38 }
  - { offset: 0x2E580, size: 0x8, addend: 0x0, symName: __ZN4core3ops8function6FnOnce9call_once17h0abfe11d43ac430aE, symObjAddr: 0x244, symBinAddr: 0x6E10, symSize: 0x2C }
  - { offset: 0x2E5C4, size: 0x8, addend: 0x0, symName: __ZN4core3ops8function6FnOnce9call_once17h27319075eda50a78E, symObjAddr: 0x270, symBinAddr: 0x6E3C, symSize: 0x3C }
  - { offset: 0x2E608, size: 0x8, addend: 0x0, symName: __ZN4core3ops8function6FnOnce9call_once17h47bbd9d687a4cb32E, symObjAddr: 0x2AC, symBinAddr: 0x6E78, symSize: 0x3C }
  - { offset: 0x2E64C, size: 0x8, addend: 0x0, symName: __ZN4core3ops8function6FnOnce9call_once17ha147bb519d21bb7fE, symObjAddr: 0x2E8, symBinAddr: 0x6EB4, symSize: 0x48 }
  - { offset: 0x2E690, size: 0x8, addend: 0x0, symName: __ZN4core3ops8function6FnOnce9call_once17ha84f72afa4aa2b7bE, symObjAddr: 0x330, symBinAddr: 0x6EFC, symSize: 0x34 }
  - { offset: 0x2E6D4, size: 0x8, addend: 0x0, symName: __ZN4core3ops8function6FnOnce9call_once17he1943fc2e63f162bE, symObjAddr: 0x364, symBinAddr: 0x6F30, symSize: 0x58 }
  - { offset: 0x2E718, size: 0x8, addend: 0x0, symName: __ZN4core3ops8function6FnOnce9call_once17he75c023976996c51E, symObjAddr: 0x3BC, symBinAddr: 0x6F88, symSize: 0x3C }
  - { offset: 0x2E769, size: 0x8, addend: 0x0, symName: __ZN4core5clone5Clone5clone17h915bf5a3832a274bE, symObjAddr: 0xA84, symBinAddr: 0x7554, symSize: 0x70 }
  - { offset: 0x2F94D, size: 0x8, addend: 0x0, symName: '__ZN69_$LT$std..os..fd..owned..OwnedFd$u20$as$u20$core..ops..drop..Drop$GT$4drop17haa816eb32a9cb866E', symObjAddr: 0xAF4, symBinAddr: 0x75C4, symSize: 0x40 }
  - { offset: 0x2FCF5, size: 0x8, addend: 0x0, symName: '__ZN150_$LT$$LT$alloc..vec..drain..Drain$LT$T$C$A$GT$$u20$as$u20$core..ops..drop..Drop$GT$..drop..DropGuard$LT$T$C$A$GT$$u20$as$u20$core..ops..drop..Drop$GT$4drop17h2afb35a2fd2a0e63E', symObjAddr: 0x0, symBinAddr: 0x6BCC, symSize: 0x1A4 }
  - { offset: 0x3002C, size: 0x8, addend: 0x0, symName: '__ZN79_$LT$alloc..vec..drain..Drain$LT$T$C$A$GT$$u20$as$u20$core..ops..drop..Drop$GT$4drop17h8b926a6b7188a5b4E', symObjAddr: 0xCC0, symBinAddr: 0x7790, symSize: 0x250 }
  - { offset: 0x30597, size: 0x8, addend: 0x0, symName: '__ZN70_$LT$alloc..vec..Vec$LT$T$C$A$GT$$u20$as$u20$core..ops..drop..Drop$GT$4drop17hd760508e2578c0eeE', symObjAddr: 0xB34, symBinAddr: 0x7604, symSize: 0x38 }
  - { offset: 0x30647, size: 0x8, addend: 0x0, symName: '__ZN70_$LT$alloc..vec..Vec$LT$T$C$A$GT$$u20$as$u20$core..ops..drop..Drop$GT$4drop17he4c6d0ef769260abE', symObjAddr: 0xB6C, symBinAddr: 0x763C, symSize: 0x24 }
  - { offset: 0x30AA6, size: 0x8, addend: 0x0, symName: '__ZN77_$LT$alloc..raw_vec..RawVec$LT$T$C$A$GT$$u20$as$u20$core..ops..drop..Drop$GT$4drop17h7073502e8ec59b56E', symObjAddr: 0xC5C, symBinAddr: 0x772C, symSize: 0x30 }
  - { offset: 0x30AE2, size: 0x8, addend: 0x0, symName: '__ZN77_$LT$alloc..raw_vec..RawVec$LT$T$C$A$GT$$u20$as$u20$core..ops..drop..Drop$GT$4drop17h818f1802d7e701a7E', symObjAddr: 0xC8C, symBinAddr: 0x775C, symSize: 0x34 }
  - { offset: 0x30B71, size: 0x8, addend: 0x0, symName: '__ZN160_$LT$$LT$T$u20$as$u20$alloc..slice..$LT$impl$u20$$u5b$T$u5d$$GT$..to_vec_in..ConvertVec$GT$..to_vec..DropGuard$LT$T$C$A$GT$$u20$as$u20$core..ops..drop..Drop$GT$4drop17h96b6082a6f396bcbE', symObjAddr: 0x1A4, symBinAddr: 0x6D70, symSize: 0x30 }
  - { offset: 0x30BF0, size: 0x8, addend: 0x0, symName: '__ZN72_$LT$alloc..boxed..Box$LT$T$C$A$GT$$u20$as$u20$core..ops..drop..Drop$GT$4drop17h8f0ffe1210c3cbf0E', symObjAddr: 0xB90, symBinAddr: 0x7660, symSize: 0xCC }
  - { offset: 0x31471, size: 0x8, addend: 0x0, symName: '__ZN88_$LT$hashbrown..scopeguard..ScopeGuard$LT$T$C$F$GT$$u20$as$u20$core..ops..drop..Drop$GT$4drop17h64508b1fd208f2beE', symObjAddr: 0xF10, symBinAddr: 0x79E0, symSize: 0x2C }
  - { offset: 0x32039, size: 0x8, addend: 0x0, symName: '__ZN159_$LT$pyo3..conversion..FromPyObject..sequence_extractor..NeverASequence$LT$T$GT$$u20$as$u20$pyo3..conversion..from_py_object_sequence..FromPyObjectSequence$GT$6to_vec17h2f722a6f2cc879e1E', symObjAddr: 0x0, symBinAddr: 0x7A0C, symSize: 0x2C }
  - { offset: 0x3205F, size: 0x8, addend: 0x0, symName: '__ZN159_$LT$pyo3..conversion..FromPyObject..sequence_extractor..NeverASequence$LT$T$GT$$u20$as$u20$pyo3..conversion..from_py_object_sequence..FromPyObjectSequence$GT$6to_vec17h2f722a6f2cc879e1E', symObjAddr: 0x0, symBinAddr: 0x7A0C, symSize: 0x2C }
  - { offset: 0x32096, size: 0x8, addend: 0x0, symName: '__ZN159_$LT$pyo3..conversion..FromPyObject..sequence_extractor..NeverASequence$LT$T$GT$$u20$as$u20$pyo3..conversion..from_py_object_sequence..FromPyObjectSequence$GT$6to_vec17h71a9060aa4ba4da6E', symObjAddr: 0x2C, symBinAddr: 0x7A38, symSize: 0x2C }
  - { offset: 0x323C8, size: 0x8, addend: 0x0, symName: '__ZN42_$LT$$RF$T$u20$as$u20$core..fmt..Debug$GT$3fmt17hb045999a8441dff6E', symObjAddr: 0x0, symBinAddr: 0x7A64, symSize: 0x30 }
  - { offset: 0x323E4, size: 0x8, addend: 0x0, symName: '__ZN42_$LT$$RF$T$u20$as$u20$core..fmt..Debug$GT$3fmt17hb045999a8441dff6E', symObjAddr: 0x0, symBinAddr: 0x7A64, symSize: 0x30 }
  - { offset: 0x3275E, size: 0x8, addend: 0x0, symName: __ZN3svg4node4Node11is_bareable17h01f732054c4eaf34E, symObjAddr: 0x0, symBinAddr: 0x7A94, symSize: 0x18 }
  - { offset: 0x327C1, size: 0x8, addend: 0x0, symName: __ZN3svg4node4Node11is_bareable17h01f732054c4eaf34E, symObjAddr: 0x0, symBinAddr: 0x7A94, symSize: 0x18 }
  - { offset: 0x327F6, size: 0x8, addend: 0x0, symName: __ZN3svg4node4Node12get_children17h43301eb3442ebd3aE, symObjAddr: 0x18, symBinAddr: 0x7AAC, symSize: 0x14 }
  - { offset: 0x3282B, size: 0x8, addend: 0x0, symName: __ZN3svg4node4Node14get_attributes17h2ea91d223d274317E, symObjAddr: 0x2C, symBinAddr: 0x7AC0, symSize: 0x14 }
  - { offset: 0x32860, size: 0x8, addend: 0x0, symName: __ZN3svg4node4Node16get_children_mut17h77ed9e7792a84dc0E, symObjAddr: 0x40, symBinAddr: 0x7AD4, symSize: 0x14 }
  - { offset: 0x32895, size: 0x8, addend: 0x0, symName: __ZN3svg4node4Node18get_attributes_mut17hc0ac949a4f784bc8E, symObjAddr: 0x54, symBinAddr: 0x7AE8, symSize: 0x14 }
  - { offset: 0x328D0, size: 0x8, addend: 0x0, symName: '__ZN42_$LT$T$u20$as$u20$svg..node..NodeClone$GT$5clone17hb49057e7dd578b8aE', symObjAddr: 0xA8, symBinAddr: 0x7B3C, symSize: 0x84 }
  - { offset: 0x32B7D, size: 0x8, addend: 0x0, symName: '__ZN50_$LT$T$u20$as$u20$core..convert..Into$LT$U$GT$$GT$4into17h8d823b43ffa2f1f9E', symObjAddr: 0x12C, symBinAddr: 0x7BC0, symSize: 0x14 }
  - { offset: 0x32D58, size: 0x8, addend: 0x0, symName: __ZN3svg4node4text4Text3new17h64bacc55f293a4b8E, symObjAddr: 0x68, symBinAddr: 0x7AFC, symSize: 0x40 }
  - { offset: 0x32FBC, size: 0x8, addend: 0x0, symName: __ZN4core3ptr19copy_nonoverlapping18precondition_check17h29e3853baabe21b1E, symObjAddr: 0x0, symBinAddr: 0x7BD4, symSize: 0x36C }
  - { offset: 0x3330D, size: 0x8, addend: 0x0, symName: __ZN4core3ptr19copy_nonoverlapping18precondition_check17h29e3853baabe21b1E, symObjAddr: 0x0, symBinAddr: 0x7BD4, symSize: 0x36C }
  - { offset: 0x335ED, size: 0x8, addend: 0x0, symName: __ZN4core3ptr4copy18precondition_check17h3dcee66856a63affE, symObjAddr: 0x36C, symBinAddr: 0x7F40, symSize: 0x240 }
  - { offset: 0x33C7F, size: 0x8, addend: 0x0, symName: __ZN10cd_diagram4draw10cd_diagram17h5e56754933b8a080E, symObjAddr: 0x0, symBinAddr: 0x8180, symSize: 0xA24 }
  - { offset: 0x3620A, size: 0x8, addend: 0x0, symName: __ZN10cd_diagram4draw10cd_diagram17h5e56754933b8a080E, symObjAddr: 0x0, symBinAddr: 0x8180, symSize: 0xA24 }
  - { offset: 0x363CD, size: 0x8, addend: 0x0, symName: __ZN10cd_diagram4draw10draw_ruler17h1ecd4614de654c9fE, symObjAddr: 0xA24, symBinAddr: 0x8BA4, symSize: 0xB28 }
  - { offset: 0x3669C, size: 0x8, addend: 0x0, symName: __ZN10cd_diagram4draw11draw_clique17hd9958284aba31ff1E, symObjAddr: 0x154C, symBinAddr: 0x96CC, symSize: 0x5D8 }
  - { offset: 0x36768, size: 0x8, addend: 0x0, symName: __ZN10cd_diagram4draw11draw_models17hb235c62fa5ee6385E, symObjAddr: 0x1B24, symBinAddr: 0x9CA4, symSize: 0x1004 }
  - { offset: 0x36AB3, size: 0x8, addend: 0x0, symName: __ZN10cd_diagram4draw12draw_cliques17h02adfeaae24d93a0E, symObjAddr: 0x2B28, symBinAddr: 0xACA8, symSize: 0xB44 }
  - { offset: 0x36DC0, size: 0x8, addend: 0x0, symName: __ZN10cd_diagram4draw14get_relative_x17h5dfc5cd449576d9aE, symObjAddr: 0x366C, symBinAddr: 0xB7EC, symSize: 0x38 }
  - { offset: 0x36E08, size: 0x8, addend: 0x0, symName: __ZN10cd_diagram4draw23__pyfunction_cd_diagram17h5538ceebb8be0227E, symObjAddr: 0x36A4, symBinAddr: 0xB824, symSize: 0x934 }
  - { offset: 0x37EC5, size: 0x8, addend: 0x0, symName: '__ZN4core4iter6traits8iterator8Iterator8for_each4call28_$u7b$$u7b$closure$u7d$$u7d$17h0c05abc9e8749e19E', symObjAddr: 0x0, symBinAddr: 0xC158, symSize: 0x3C }
  - { offset: 0x37EF5, size: 0x8, addend: 0x0, symName: '__ZN4core4iter6traits8iterator8Iterator8for_each4call28_$u7b$$u7b$closure$u7d$$u7d$17h0c05abc9e8749e19E', symObjAddr: 0x0, symBinAddr: 0xC158, symSize: 0x3C }
  - { offset: 0x3816A, size: 0x8, addend: 0x0, symName: '__ZN102_$LT$core..iter..adapters..zip..Zip$LT$A$C$B$GT$$u20$as$u20$core..iter..traits..iterator..Iterator$GT$4next17h627b8105f02f2f2fE', symObjAddr: 0x0, symBinAddr: 0xC194, symSize: 0x24 }
  - { offset: 0x3899F, size: 0x8, addend: 0x0, symName: '__ZN102_$LT$core..iter..adapters..zip..Zip$LT$A$C$B$GT$$u20$as$u20$core..iter..traits..iterator..Iterator$GT$4next17h627b8105f02f2f2fE', symObjAddr: 0x0, symBinAddr: 0xC194, symSize: 0x24 }
  - { offset: 0x389DD, size: 0x8, addend: 0x0, symName: '__ZN102_$LT$core..iter..adapters..zip..Zip$LT$A$C$B$GT$$u20$as$u20$core..iter..traits..iterator..Iterator$GT$4next17hce32455dfff33981E', symObjAddr: 0x24, symBinAddr: 0xC1B8, symSize: 0x24 }
  - { offset: 0x38A21, size: 0x8, addend: 0x0, symName: '__ZN111_$LT$core..iter..adapters..zip..Zip$LT$A$C$B$GT$$u20$as$u20$core..iter..adapters..zip..ZipImpl$LT$A$C$B$GT$$GT$3new17h39aa768b271e7195E', symObjAddr: 0x48, symBinAddr: 0xC1DC, symSize: 0x3C }
  - { offset: 0x38A6D, size: 0x8, addend: 0x0, symName: '__ZN111_$LT$core..iter..adapters..zip..Zip$LT$A$C$B$GT$$u20$as$u20$core..iter..adapters..zip..ZipImpl$LT$A$C$B$GT$$GT$4next17h86e5345d606d4ccaE', symObjAddr: 0x1F0, symBinAddr: 0xC384, symSize: 0xE0 }
  - { offset: 0x38BD4, size: 0x8, addend: 0x0, symName: '__ZN111_$LT$core..iter..adapters..zip..Zip$LT$A$C$B$GT$$u20$as$u20$core..iter..adapters..zip..ZipImpl$LT$A$C$B$GT$$GT$3new17hc9ddc8f37032d57aE', symObjAddr: 0x84, symBinAddr: 0xC218, symSize: 0xBC }
  - { offset: 0x38C67, size: 0x8, addend: 0x0, symName: '__ZN111_$LT$core..iter..adapters..zip..Zip$LT$A$C$B$GT$$u20$as$u20$core..iter..adapters..zip..ZipImpl$LT$A$C$B$GT$$GT$4next17h1e0004fe0d18f909E', symObjAddr: 0x140, symBinAddr: 0xC2D4, symSize: 0xB0 }
  - { offset: 0x38E22, size: 0x8, addend: 0x0, symName: __ZN4core4iter6traits8iterator8Iterator9enumerate17h1c64ba5a26178243E, symObjAddr: 0x2D0, symBinAddr: 0xC464, symSize: 0x38 }
  - { offset: 0x38E7B, size: 0x8, addend: 0x0, symName: '__ZN63_$LT$I$u20$as$u20$core..iter..traits..collect..IntoIterator$GT$9into_iter17h3a92f9a579c6a785E', symObjAddr: 0x308, symBinAddr: 0xC49C, symSize: 0x30 }
  - { offset: 0x38EB3, size: 0x8, addend: 0x0, symName: '__ZN63_$LT$I$u20$as$u20$core..iter..traits..collect..IntoIterator$GT$9into_iter17ha11523bead2e8b40E', symObjAddr: 0x338, symBinAddr: 0xC4CC, symSize: 0x30 }
  - { offset: 0x3A673, size: 0x8, addend: 0x0, symName: '__ZN52_$LT$Q$u20$as$u20$hashbrown..Equivalent$LT$K$GT$$GT$10equivalent17h6870bb6132f5841fE', symObjAddr: 0x0, symBinAddr: 0xC4FC, symSize: 0x60 }
  - { offset: 0x3A7BA, size: 0x8, addend: 0x0, symName: '__ZN52_$LT$Q$u20$as$u20$hashbrown..Equivalent$LT$K$GT$$GT$10equivalent17h6870bb6132f5841fE', symObjAddr: 0x0, symBinAddr: 0xC4FC, symSize: 0x60 }
  - { offset: 0x3A93C, size: 0x8, addend: 0x0, symName: __ZN3std9panicking12catch_unwind7do_call17h1878a3c644b98d33E, symObjAddr: 0x0, symBinAddr: 0xC55C, symSize: 0x80 }
  - { offset: 0x3C89B, size: 0x8, addend: 0x0, symName: __ZN3std9panicking12catch_unwind7do_call17h1878a3c644b98d33E, symObjAddr: 0x0, symBinAddr: 0xC55C, symSize: 0x80 }
  - { offset: 0x3C982, size: 0x8, addend: 0x0, symName: __ZN3std9panicking12catch_unwind7do_call17h8c90764f5fe39424E, symObjAddr: 0x80, symBinAddr: 0xC5DC, symSize: 0x90 }
  - { offset: 0x3CA69, size: 0x8, addend: 0x0, symName: __ZN3std9panicking12catch_unwind8do_catch17h78aceb4240f7eb56E, symObjAddr: 0x110, symBinAddr: 0xC66C, symSize: 0x70 }
  - { offset: 0x3CAFE, size: 0x8, addend: 0x0, symName: __ZN3std9panicking12catch_unwind8do_catch17haa3838b095882825E, symObjAddr: 0x180, symBinAddr: 0xC6DC, symSize: 0x70 }
  - { offset: 0x3CE3B, size: 0x8, addend: 0x0, symName: '__ZN5alloc7raw_vec19RawVec$LT$T$C$A$GT$8grow_one17h6f08f366410fd15fE', symObjAddr: 0x0, symBinAddr: 0xC74C, symSize: 0x90 }
  - { offset: 0x3D574, size: 0x8, addend: 0x0, symName: '__ZN5alloc7raw_vec19RawVec$LT$T$C$A$GT$8grow_one17h6f08f366410fd15fE', symObjAddr: 0x0, symBinAddr: 0xC74C, symSize: 0x90 }
  - { offset: 0x3D626, size: 0x8, addend: 0x0, symName: '__ZN5alloc7raw_vec19RawVec$LT$T$C$A$GT$8grow_one17h6f0d753749b12273E', symObjAddr: 0x90, symBinAddr: 0xC7DC, symSize: 0x90 }
  - { offset: 0x3D6DF, size: 0x8, addend: 0x0, symName: '__ZN5alloc7raw_vec19RawVec$LT$T$C$A$GT$8grow_one17hd4776952e205ed89E', symObjAddr: 0x120, symBinAddr: 0xC86C, symSize: 0x8C }
  - { offset: 0x3D76A, size: 0x8, addend: 0x0, symName: __ZN4pyo311conversions3std3vec16extract_sequence17h09c6c85f54e7446aE, symObjAddr: 0x0, symBinAddr: 0xC8F8, symSize: 0x3E0 }
  - { offset: 0x3EE64, size: 0x8, addend: 0x0, symName: __ZN4pyo311conversions3std3vec16extract_sequence17h09c6c85f54e7446aE, symObjAddr: 0x0, symBinAddr: 0xC8F8, symSize: 0x3E0 }
  - { offset: 0x3EF59, size: 0x8, addend: 0x0, symName: __ZN4pyo311conversions3std3vec16extract_sequence17h30dc2330aff887b6E, symObjAddr: 0x3E0, symBinAddr: 0xCCD8, symSize: 0x3CC }
  - { offset: 0x3FBD5, size: 0x8, addend: 0x0, symName: '__ZN50_$LT$T$u20$as$u20$core..convert..Into$LT$U$GT$$GT$4into17h97d5a3d48958fd9eE', symObjAddr: 0x0, symBinAddr: 0xD0A4, symSize: 0x24 }
  - { offset: 0x40407, size: 0x8, addend: 0x0, symName: '__ZN50_$LT$T$u20$as$u20$core..convert..Into$LT$U$GT$$GT$4into17h97d5a3d48958fd9eE', symObjAddr: 0x0, symBinAddr: 0xD0A4, symSize: 0x24 }
  - { offset: 0x413CD, size: 0x8, addend: 0x0, symName: __ZN4pyo35impl_10trampoline32fastcall_cfunction_with_keywords5inner17h5f270b99fba48985E, symObjAddr: 0x0, symBinAddr: 0xD0C8, symSize: 0x5C }
  - { offset: 0x42809, size: 0x8, addend: 0x0, symName: __ZN4pyo35impl_10trampoline32fastcall_cfunction_with_keywords5inner17h5f270b99fba48985E, symObjAddr: 0x0, symBinAddr: 0xD0C8, symSize: 0x5C }
  - { offset: 0x430DB, size: 0x8, addend: 0x0, symName: __ZN4core5slice3raw14from_raw_parts17h7d4d18926d75296fE, symObjAddr: 0x0, symBinAddr: 0xD124, symSize: 0x58 }
  - { offset: 0x43906, size: 0x8, addend: 0x0, symName: __ZN4core5slice3raw14from_raw_parts17h7d4d18926d75296fE, symObjAddr: 0x0, symBinAddr: 0xD124, symSize: 0x58 }
  - { offset: 0x43949, size: 0x8, addend: 0x0, symName: __ZN4core5slice3raw14from_raw_parts17hd44cee32f8c73f7cE, symObjAddr: 0x58, symBinAddr: 0xD17C, symSize: 0x58 }
  - { offset: 0x44991, size: 0x8, addend: 0x0, symName: '__ZN111_$LT$svg..node..element..path..parameters..Parameters$u20$as$u20$core..convert..From$LT$$LP$T0$C$T1$RP$$GT$$GT$4from17h20eb8bd4611c20d4E', symObjAddr: 0x0, symBinAddr: 0xD1D4, symSize: 0x1B4 }
  - { offset: 0x449BC, size: 0x8, addend: 0x0, symName: '__ZN111_$LT$svg..node..element..path..parameters..Parameters$u20$as$u20$core..convert..From$LT$$LP$T0$C$T1$RP$$GT$$GT$4from17h20eb8bd4611c20d4E', symObjAddr: 0x0, symBinAddr: 0xD1D4, symSize: 0x1B4 }
  - { offset: 0x44A39, size: 0x8, addend: 0x0, symName: '__ZN50_$LT$T$u20$as$u20$core..convert..Into$LT$U$GT$$GT$4into17h51cf994e146a5268E', symObjAddr: 0x1B4, symBinAddr: 0xD388, symSize: 0x14 }
  - { offset: 0x44C43, size: 0x8, addend: 0x0, symName: '__ZN4core3num23_$LT$impl$u20$usize$GT$13unchecked_sub18precondition_check17hc0086d43ec53638dE', symObjAddr: 0x0, symBinAddr: 0xD39C, symSize: 0xAC }
  - { offset: 0x44CA9, size: 0x8, addend: 0x0, symName: '__ZN4core3num23_$LT$impl$u20$usize$GT$13unchecked_sub18precondition_check17hc0086d43ec53638dE', symObjAddr: 0x0, symBinAddr: 0xD39C, symSize: 0xAC }
  - { offset: 0x44DF5, size: 0x8, addend: 0x0, symName: '__ZN4core3num23_$LT$impl$u20$usize$GT$6ilog1017hb761ecf53980c64bE', symObjAddr: 0x628, symBinAddr: 0xD9C4, symSize: 0x64 }
  - { offset: 0x44F37, size: 0x8, addend: 0x0, symName: '__ZN4core3num23_$LT$impl$u20$usize$GT$16from_ascii_radix17h98554cd835790124E', symObjAddr: 0xAC, symBinAddr: 0xD448, symSize: 0x57C }
  - { offset: 0x45265, size: 0x8, addend: 0x0, symName: '__ZN4core3num62_$LT$impl$u20$core..str..traits..FromStr$u20$for$u20$usize$GT$8from_str17h2bc824338bf193f0E', symObjAddr: 0x68C, symBinAddr: 0xDA28, symSize: 0x30 }
  - { offset: 0x459C9, size: 0x8, addend: 0x0, symName: __ZN3std2io17default_write_fmt17h5245d2830c308492E, symObjAddr: 0x0, symBinAddr: 0xDA58, symSize: 0x120 }
  - { offset: 0x45A2F, size: 0x8, addend: 0x0, symName: '__ZN81_$LT$std..io..default_write_fmt..Adapter$LT$T$GT$$u20$as$u20$core..fmt..Write$GT$9write_str17hb44f58c3f632cb80E', symObjAddr: 0x314, symBinAddr: 0xDD6C, symSize: 0xB4 }
  - { offset: 0x45CDF, size: 0x8, addend: 0x0, symName: __ZN3std2io17default_write_fmt17h5245d2830c308492E, symObjAddr: 0x0, symBinAddr: 0xDA58, symSize: 0x120 }
  - { offset: 0x4616C, size: 0x8, addend: 0x0, symName: __ZN4core3fmt5Write10write_char17h707bd786a785c601E, symObjAddr: 0x120, symBinAddr: 0xDB78, symSize: 0x70 }
  - { offset: 0x461D4, size: 0x8, addend: 0x0, symName: __ZN4core3fmt5Write9write_fmt17h2185120c0434b3deE, symObjAddr: 0x190, symBinAddr: 0xDBE8, symSize: 0x24 }
  - { offset: 0x46222, size: 0x8, addend: 0x0, symName: '__ZN75_$LT$$RF$mut$u20$W$u20$as$u20$core..fmt..Write..write_fmt..SpecWriteFmt$GT$14spec_write_fmt17h06ce69ac2070535eE', symObjAddr: 0x1B4, symBinAddr: 0xDC0C, symSize: 0x160 }
  - { offset: 0x466DE, size: 0x8, addend: 0x0, symName: '__ZN3std11collections4hash3map24HashMap$LT$K$C$V$C$S$GT$3get17h7da8bb59ccec9886E', symObjAddr: 0x0, symBinAddr: 0xDE20, symSize: 0x74 }
  - { offset: 0x46BE0, size: 0x8, addend: 0x0, symName: '__ZN50_$LT$T$u20$as$u20$core..convert..Into$LT$U$GT$$GT$4into17h2634e684645e06a5E', symObjAddr: 0x74, symBinAddr: 0xDE94, symSize: 0x24 }
  - { offset: 0x46C20, size: 0x8, addend: 0x0, symName: '__ZN50_$LT$T$u20$as$u20$core..convert..Into$LT$U$GT$$GT$4into17h462d16313e250812E', symObjAddr: 0x98, symBinAddr: 0xDEB8, symSize: 0x24 }
  - { offset: 0x46E8D, size: 0x8, addend: 0x0, symName: '__ZN90_$LT$std..collections..hash..map..HashMap$LT$K$C$V$C$S$GT$$u20$as$u20$core..fmt..Debug$GT$3fmt17hd63e927605414a22E', symObjAddr: 0xBC, symBinAddr: 0xDEDC, symSize: 0x74 }
  - { offset: 0x46F09, size: 0x8, addend: 0x0, symName: '__ZN92_$LT$std..collections..hash..map..HashMap$LT$K$C$V$C$S$GT$$u20$as$u20$core..clone..Clone$GT$5clone17h2b287d7366531336E', symObjAddr: 0x130, symBinAddr: 0xDF50, symSize: 0x44 }
  - { offset: 0x47025, size: 0x8, addend: 0x0, symName: '__ZN3std11collections4hash3map24HashMap$LT$K$C$V$C$S$GT$3get17h7da8bb59ccec9886E', symObjAddr: 0x0, symBinAddr: 0xDE20, symSize: 0x74 }
  - { offset: 0x471BD, size: 0x8, addend: 0x0, symName: '__ZN3svg4node7element4path4data117_$LT$impl$u20$core..convert..From$LT$svg..node..element..path..data..Data$GT$$u20$for$u20$svg..node..value..Value$GT$4from17h8fb9fcf34ad94728E', symObjAddr: 0x0, symBinAddr: 0xDF94, symSize: 0x108 }
  - { offset: 0x47564, size: 0x8, addend: 0x0, symName: '__ZN3svg4node7element4path4data117_$LT$impl$u20$core..convert..From$LT$svg..node..element..path..data..Data$GT$$u20$for$u20$svg..node..value..Value$GT$4from17h8fb9fcf34ad94728E', symObjAddr: 0x0, symBinAddr: 0xDF94, symSize: 0x108 }
  - { offset: 0x477B9, size: 0x8, addend: 0x0, symName: '__ZN60_$LT$svg..node..value..Value$u20$as$u20$core..fmt..Debug$GT$3fmt17h1676c5a3ba6d311cE', symObjAddr: 0x108, symBinAddr: 0xE09C, symSize: 0x54 }
  - { offset: 0x477F9, size: 0x8, addend: 0x0, symName: '__ZN62_$LT$svg..node..value..Value$u20$as$u20$core..clone..Clone$GT$5clone17h367fdc17ccd15b8bE', symObjAddr: 0x15C, symBinAddr: 0xE0F0, symSize: 0x48 }
  - { offset: 0x4782B, size: 0x8, addend: 0x0, symName: '__ZN67_$LT$svg..node..value..Value$u20$as$u20$core..ops..deref..Deref$GT$5deref17he36bae5ab84fb300E', symObjAddr: 0x1A4, symBinAddr: 0xE138, symSize: 0x24 }
  - { offset: 0x4785D, size: 0x8, addend: 0x0, symName: '__ZN74_$LT$svg..node..value..Value$u20$as$u20$core..convert..From$LT$f64$GT$$GT$4from17h618b13c1a78f8c1cE', symObjAddr: 0x1C8, symBinAddr: 0xE15C, symSize: 0x40 }
  - { offset: 0x4788F, size: 0x8, addend: 0x0, symName: '__ZN76_$LT$svg..node..value..Value$u20$as$u20$core..convert..From$LT$usize$GT$$GT$4from17h706da601fc5d1b1cE', symObjAddr: 0x208, symBinAddr: 0xE19C, symSize: 0x44 }
  - { offset: 0x478C1, size: 0x8, addend: 0x0, symName: '__ZN78_$LT$svg..node..value..Value$u20$as$u20$core..convert..From$LT$$RF$str$GT$$GT$4from17h80550d4b951d3495E', symObjAddr: 0x24C, symBinAddr: 0xE1E0, symSize: 0x44 }
  - { offset: 0x479D0, size: 0x8, addend: 0x0, symName: __ZN4core4iter6traits8iterator8Iterator3zip17ha50ae0510313227fE, symObjAddr: 0x0, symBinAddr: 0xE224, symSize: 0xC8 }
  - { offset: 0x4827C, size: 0x8, addend: 0x0, symName: __ZN4core4iter8adapters3zip27TrustedRandomAccessNoCoerce4size17h620ddcecfe099e81E, symObjAddr: 0xE4, symBinAddr: 0xE308, symSize: 0x2C }
  - { offset: 0x482B3, size: 0x8, addend: 0x0, symName: __ZN4core4iter8adapters3zip27TrustedRandomAccessNoCoerce4size17hba5a3c0a54810f91E, symObjAddr: 0x110, symBinAddr: 0xE334, symSize: 0x2C }
  - { offset: 0x48320, size: 0x8, addend: 0x0, symName: __ZN4core4iter6traits8iterator8Iterator3zip17ha50ae0510313227fE, symObjAddr: 0x0, symBinAddr: 0xE224, symSize: 0xC8 }
  - { offset: 0x48396, size: 0x8, addend: 0x0, symName: __ZN4core4iter6traits8iterator8Iterator6copied17h5f0c51fad3433df8E, symObjAddr: 0xC8, symBinAddr: 0xE2EC, symSize: 0x1C }
  - { offset: 0x484E5, size: 0x8, addend: 0x0, symName: '__ZN4core5slice4iter87_$LT$impl$u20$core..iter..traits..collect..IntoIterator$u20$for$u20$$RF$$u5b$T$u5d$$GT$9into_iter17hd46520c27ba2fe6dE', symObjAddr: 0x1E4, symBinAddr: 0xE408, symSize: 0x50 }
  - { offset: 0x48628, size: 0x8, addend: 0x0, symName: '__ZN91_$LT$core..slice..iter..Iter$LT$T$GT$$u20$as$u20$core..iter..traits..iterator..Iterator$GT$24__iterator_get_unchecked17h0c077085de6f3b07E', symObjAddr: 0x234, symBinAddr: 0xE458, symSize: 0x28 }
  - { offset: 0x48683, size: 0x8, addend: 0x0, symName: '__ZN91_$LT$core..slice..iter..Iter$LT$T$GT$$u20$as$u20$core..iter..traits..iterator..Iterator$GT$24__iterator_get_unchecked17h45ed793870de7b15E', symObjAddr: 0x25C, symBinAddr: 0xE480, symSize: 0x20 }
  - { offset: 0x486DE, size: 0x8, addend: 0x0, symName: '__ZN91_$LT$core..slice..iter..Iter$LT$T$GT$$u20$as$u20$core..iter..traits..iterator..Iterator$GT$4next17h33c1d63cefcb7a00E', symObjAddr: 0x27C, symBinAddr: 0xE4A0, symSize: 0xA8 }
  - { offset: 0x48818, size: 0x8, addend: 0x0, symName: '__ZN91_$LT$core..slice..iter..Iter$LT$T$GT$$u20$as$u20$core..iter..traits..iterator..Iterator$GT$4next17ha3e9bd92ecfedca2E', symObjAddr: 0x324, symBinAddr: 0xE548, symSize: 0xA8 }
  - { offset: 0x48952, size: 0x8, addend: 0x0, symName: '__ZN91_$LT$core..slice..iter..Iter$LT$T$GT$$u20$as$u20$core..iter..traits..iterator..Iterator$GT$4next17hf5a4fdf55e8189b1E', symObjAddr: 0x3CC, symBinAddr: 0xE5F0, symSize: 0xA8 }
  - { offset: 0x48A8C, size: 0x8, addend: 0x0, symName: '__ZN91_$LT$core..slice..iter..Iter$LT$T$GT$$u20$as$u20$core..iter..traits..iterator..Iterator$GT$8position17hda2b351d91783919E', symObjAddr: 0x474, symBinAddr: 0xE698, symSize: 0x188 }
  - { offset: 0x48B4A, size: 0x8, addend: 0x0, symName: '__ZN91_$LT$core..slice..iter..Iter$LT$T$GT$$u20$as$u20$core..iter..traits..iterator..Iterator$GT$8position17hf0d2c85841796b75E', symObjAddr: 0x5FC, symBinAddr: 0xE820, symSize: 0x188 }
  - { offset: 0x48C08, size: 0x8, addend: 0x0, symName: '__ZN91_$LT$core..slice..iter..Iter$LT$T$GT$$u20$as$u20$core..iter..traits..iterator..Iterator$GT$9size_hint17h9d208aa2daec7c7cE', symObjAddr: 0x784, symBinAddr: 0xE9A8, symSize: 0x60 }
  - { offset: 0x48C77, size: 0x8, addend: 0x0, symName: '__ZN91_$LT$core..slice..iter..Iter$LT$T$GT$$u20$as$u20$core..iter..traits..iterator..Iterator$GT$9size_hint17hb607616f46ac052eE', symObjAddr: 0x7E4, symBinAddr: 0xEA08, symSize: 0x60 }
  - { offset: 0x4AA2A, size: 0x8, addend: 0x0, symName: '__ZN4core5slice4iter13Iter$LT$T$GT$3new17ha779eb3b0cbb399aE', symObjAddr: 0x13C, symBinAddr: 0xE360, symSize: 0x50 }
  - { offset: 0x4ABDA, size: 0x8, addend: 0x0, symName: '__ZN4core5slice4iter13Iter$LT$T$GT$3new17hc0eb9b0631360f5aE', symObjAddr: 0x18C, symBinAddr: 0xE3B0, symSize: 0x58 }
  - { offset: 0x4B037, size: 0x8, addend: 0x0, symName: '__ZN76_$LT$hashbrown..raw..RawTable$LT$T$C$A$GT$$u20$as$u20$core..clone..Clone$GT$5clone17hdbc1a287bdd3cb99E', symObjAddr: 0x0, symBinAddr: 0xEA68, symSize: 0x124 }
  - { offset: 0x4B066, size: 0x8, addend: 0x0, symName: '__ZN9hashbrown3raw21RawTable$LT$T$C$A$GT$4find28_$u7b$$u7b$closure$u7d$$u7d$17hc17d4e50667c2328E', symObjAddr: 0xAF0, symBinAddr: 0xF558, symSize: 0xCC }
  - { offset: 0x4B54F, size: 0x8, addend: 0x0, symName: '__ZN76_$LT$hashbrown..raw..RawTable$LT$T$C$A$GT$$u20$as$u20$core..clone..Clone$GT$5clone17hdbc1a287bdd3cb99E', symObjAddr: 0x0, symBinAddr: 0xEA68, symSize: 0x124 }
  - { offset: 0x4B624, size: 0x8, addend: 0x0, symName: '__ZN87_$LT$hashbrown..raw..RawTable$LT$T$C$A$GT$$u20$as$u20$hashbrown..raw..RawTableClone$GT$15clone_from_spec17h57adf476330e468cE', symObjAddr: 0x124, symBinAddr: 0xEB8C, symSize: 0x2C }
  - { offset: 0x4B7CB, size: 0x8, addend: 0x0, symName: '__ZN9hashbrown3raw21RawTable$LT$T$C$A$GT$15clone_from_impl28_$u7b$$u7b$closure$u7d$$u7d$17h1704f31624ab73f3E', symObjAddr: 0x4E0, symBinAddr: 0xEF48, symSize: 0x198 }
  - { offset: 0x4D1B9, size: 0x8, addend: 0x0, symName: '__ZN9hashbrown3raw21RawTable$LT$T$C$A$GT$15clone_from_impl17hbcf43a1f591d8d9aE', symObjAddr: 0x150, symBinAddr: 0xEBB8, symSize: 0x390 }
  - { offset: 0x4D9B6, size: 0x8, addend: 0x0, symName: '__ZN9hashbrown3raw21RawTable$LT$T$C$A$GT$17new_uninitialized17hc8e1b4c625f038bdE', symObjAddr: 0x678, symBinAddr: 0xF0E0, symSize: 0x144 }
  - { offset: 0x4DDBE, size: 0x8, addend: 0x0, symName: '__ZN9hashbrown3raw21RawTable$LT$T$C$A$GT$4find17h6152e4c2086664eaE', symObjAddr: 0x7BC, symBinAddr: 0xF224, symSize: 0x334 }
  - { offset: 0x4E3EA, size: 0x8, addend: 0x0, symName: __ZN4core4iter6traits8iterator8Iterator3zip17h861b5f3394f141bbE, symObjAddr: 0x0, symBinAddr: 0xF624, symSize: 0xB4 }
  - { offset: 0x4ECC6, size: 0x8, addend: 0x0, symName: __ZN4core4iter6traits8iterator8Iterator3zip17h861b5f3394f141bbE, symObjAddr: 0x0, symBinAddr: 0xF624, symSize: 0xB4 }
  - { offset: 0x4FB77, size: 0x8, addend: 0x0, symName: '__ZN4pyo35types5tuple76_$LT$impl$u20$pyo3..conversion..FromPyObject$u20$for$u20$$LP$T0$C$T1$RP$$GT$7extract17h68ad2f7d2922f364E', symObjAddr: 0xB4, symBinAddr: 0xF6D8, symSize: 0x23C }
  - { offset: 0x50618, size: 0x8, addend: 0x0, symName: __ZN4core4hash11BuildHasher8hash_one17he0c3629ef44d3317E, symObjAddr: 0x0, symBinAddr: 0xF914, symSize: 0x88 }
  - { offset: 0x50634, size: 0x8, addend: 0x0, symName: __ZN4core4hash11BuildHasher8hash_one17he0c3629ef44d3317E, symObjAddr: 0x0, symBinAddr: 0xF914, symSize: 0x88 }
  - { offset: 0x50825, size: 0x8, addend: 0x0, symName: '__ZN45_$LT$T$u20$as$u20$alloc..string..ToString$GT$9to_string17h4e42faefe0570a57E', symObjAddr: 0x0, symBinAddr: 0xF99C, symSize: 0x24 }
  - { offset: 0x50874, size: 0x8, addend: 0x0, symName: '__ZN45_$LT$T$u20$as$u20$alloc..string..ToString$GT$9to_string17h4e42faefe0570a57E', symObjAddr: 0x0, symBinAddr: 0xF99C, symSize: 0x24 }
  - { offset: 0x508AB, size: 0x8, addend: 0x0, symName: '__ZN45_$LT$T$u20$as$u20$alloc..string..ToString$GT$9to_string17hc0431aac9776fef2E', symObjAddr: 0x24, symBinAddr: 0xF9C0, symSize: 0x24 }
  - { offset: 0x508E8, size: 0x8, addend: 0x0, symName: '__ZN49_$LT$T$u20$as$u20$alloc..string..SpecToString$GT$14spec_to_string17hed57a504f3b42ef9E', symObjAddr: 0x48, symBinAddr: 0xF9E4, symSize: 0xF4 }
  - { offset: 0x50BDD, size: 0x8, addend: 0x0, symName: '__ZN4core5slice29_$LT$impl$u20$$u5b$T$u5d$$GT$4iter17h9d1ca2db2c203a8aE', symObjAddr: 0x13C, symBinAddr: 0xFAD8, symSize: 0x28 }
  - { offset: 0x50D7F, size: 0x8, addend: 0x0, symName: '__ZN55_$LT$$RF$T$u20$as$u20$core..convert..AsRef$LT$U$GT$$GT$6as_ref17h88d0eb0615077821E', symObjAddr: 0x0, symBinAddr: 0xFB00, symSize: 0x30 }
  - { offset: 0x50D9B, size: 0x8, addend: 0x0, symName: '__ZN55_$LT$$RF$T$u20$as$u20$core..convert..AsRef$LT$U$GT$$GT$6as_ref17h88d0eb0615077821E', symObjAddr: 0x0, symBinAddr: 0xFB00, symSize: 0x30 }
  - { offset: 0x50EA7, size: 0x8, addend: 0x0, symName: '__ZN50_$LT$T$u20$as$u20$core..convert..Into$LT$U$GT$$GT$4into17h1083cb62de24ddb1E', symObjAddr: 0x0, symBinAddr: 0xFB30, symSize: 0x24 }
  - { offset: 0x50EC3, size: 0x8, addend: 0x0, symName: '__ZN50_$LT$T$u20$as$u20$core..convert..Into$LT$U$GT$$GT$4into17h1083cb62de24ddb1E', symObjAddr: 0x0, symBinAddr: 0xFB30, symSize: 0x24 }
  - { offset: 0x50F03, size: 0x8, addend: 0x0, symName: '__ZN50_$LT$T$u20$as$u20$core..convert..Into$LT$U$GT$$GT$4into17h3a8675b228288ce5E', symObjAddr: 0x24, symBinAddr: 0xFB54, symSize: 0x20 }
  - { offset: 0x50F43, size: 0x8, addend: 0x0, symName: '__ZN50_$LT$T$u20$as$u20$core..convert..Into$LT$U$GT$$GT$4into17h483f9495189e7681E', symObjAddr: 0x44, symBinAddr: 0xFB74, symSize: 0x20 }
  - { offset: 0x50F83, size: 0x8, addend: 0x0, symName: '__ZN50_$LT$T$u20$as$u20$core..convert..Into$LT$U$GT$$GT$4into17h733b92eaaee83e51E', symObjAddr: 0x64, symBinAddr: 0xFB94, symSize: 0x20 }
  - { offset: 0x50FC3, size: 0x8, addend: 0x0, symName: '__ZN50_$LT$T$u20$as$u20$core..convert..Into$LT$U$GT$$GT$4into17h82c1418600074b9dE', symObjAddr: 0x84, symBinAddr: 0xFBB4, symSize: 0x28 }
  - { offset: 0x512C2, size: 0x8, addend: 0x0, symName: __ZN3svg4node7element4path4data4Data7line_to17h32027627a328369fE, symObjAddr: 0x0, symBinAddr: 0xFBDC, symSize: 0xB0 }
  - { offset: 0x517E6, size: 0x8, addend: 0x0, symName: '__ZN50_$LT$T$u20$as$u20$core..convert..Into$LT$U$GT$$GT$4into17h226758427631a570E', symObjAddr: 0x15C, symBinAddr: 0xFD38, symSize: 0x14 }
  - { offset: 0x51863, size: 0x8, addend: 0x0, symName: __ZN3svg4node7element4path4data4Data7line_to17h32027627a328369fE, symObjAddr: 0x0, symBinAddr: 0xFBDC, symSize: 0xB0 }
  - { offset: 0x5189D, size: 0x8, addend: 0x0, symName: __ZN3svg4node7element4path4data4Data7move_to17h3981c43cd0ac7adcE, symObjAddr: 0xB0, symBinAddr: 0xFC8C, symSize: 0xAC }
  - { offset: 0x518F5, size: 0x8, addend: 0x0, symName: __ZN3std3sys2fs4unix23debug_assert_fd_is_open17h5f10cd757c3bc3abE, symObjAddr: 0x0, symBinAddr: 0xFD4C, symSize: 0xCC }
  - { offset: 0x51DF5, size: 0x8, addend: 0x0, symName: __ZN3std3sys2fs4unix23debug_assert_fd_is_open17h5f10cd757c3bc3abE, symObjAddr: 0x0, symBinAddr: 0xFD4C, symSize: 0xCC }
  - { offset: 0x51EA3, size: 0x8, addend: 0x0, symName: '__ZN49_$LT$usize$u20$as$u20$core..iter..range..Step$GT$18backward_unchecked17h2a65843dd8bcee54E', symObjAddr: 0x0, symBinAddr: 0xFE18, symSize: 0x50 }
  - { offset: 0x51EFA, size: 0x8, addend: 0x0, symName: '__ZN49_$LT$usize$u20$as$u20$core..iter..range..Step$GT$18backward_unchecked17h2a65843dd8bcee54E', symObjAddr: 0x0, symBinAddr: 0xFE18, symSize: 0x50 }
  - { offset: 0x51F82, size: 0x8, addend: 0x0, symName: '__ZN100_$LT$pyo3..types..tuple..BorrowedTupleIterator$u20$as$u20$core..iter..traits..iterator..Iterator$GT$4next17h8224118e619de1edE', symObjAddr: 0x0, symBinAddr: 0xFE68, symSize: 0x9C }
  - { offset: 0x531B6, size: 0x8, addend: 0x0, symName: '__ZN100_$LT$pyo3..types..tuple..BorrowedTupleIterator$u20$as$u20$core..iter..traits..iterator..Iterator$GT$4next17h8224118e619de1edE', symObjAddr: 0x0, symBinAddr: 0xFE68, symSize: 0x9C }
  - { offset: 0x5386E, size: 0x8, addend: 0x0, symName: '__ZN4core3ptr8non_null16NonNull$LT$T$GT$20offset_from_unsigned17h2351b9f15060d565E', symObjAddr: 0x0, symBinAddr: 0xFF04, symSize: 0x7C }
  - { offset: 0x53E5E, size: 0x8, addend: 0x0, symName: '__ZN4core3ptr8non_null16NonNull$LT$T$GT$20offset_from_unsigned17h2351b9f15060d565E', symObjAddr: 0x0, symBinAddr: 0xFF04, symSize: 0x7C }
  - { offset: 0x53F6F, size: 0x8, addend: 0x0, symName: '__ZN4core3ptr8non_null16NonNull$LT$T$GT$20offset_from_unsigned17ha18fd88192f06243E', symObjAddr: 0x7C, symBinAddr: 0xFF80, symSize: 0x7C }
  - { offset: 0x54061, size: 0x8, addend: 0x0, symName: __ZN4core9core_arch7aarch644neon9generated7vld1_u817h2eb63638938e9a7cE, symObjAddr: 0x0, symBinAddr: 0xFFFC, symSize: 0x34 }
  - { offset: 0x54087, size: 0x8, addend: 0x0, symName: __ZN4core9core_arch7aarch644neon9generated7vld1_u817h2eb63638938e9a7cE, symObjAddr: 0x0, symBinAddr: 0xFFFC, symSize: 0x34 }
  - { offset: 0x54121, size: 0x8, addend: 0x0, symName: __ZN5alloc3fmt6format17hf8e3ee97ce73adbcE, symObjAddr: 0x0, symBinAddr: 0x10030, symSize: 0xD4 }
  - { offset: 0x546BC, size: 0x8, addend: 0x0, symName: __ZN5alloc3fmt6format17hf8e3ee97ce73adbcE, symObjAddr: 0x0, symBinAddr: 0x10030, symSize: 0xD4 }
  - { offset: 0x54819, size: 0x8, addend: 0x0, symName: __ZN4pyo35impl_10trampoline10trampoline17h18fc680ed4a825c1E, symObjAddr: 0x0, symBinAddr: 0x10104, symSize: 0x160 }
  - { offset: 0x55ED6, size: 0x8, addend: 0x0, symName: __ZN4pyo35impl_10trampoline10trampoline17h18fc680ed4a825c1E, symObjAddr: 0x0, symBinAddr: 0x10104, symSize: 0x160 }
  - { offset: 0x55F80, size: 0x8, addend: 0x0, symName: __ZN4pyo35impl_10trampoline10trampoline17hab92a0b3d2a96e78E, symObjAddr: 0x160, symBinAddr: 0x10264, symSize: 0x158 }
  - { offset: 0x5602E, size: 0x8, addend: 0x0, symName: '__ZN4pyo35impl_10trampoline10trampoline28_$u7b$$u7b$closure$u7d$$u7d$17hc579116e2bdd569eE', symObjAddr: 0x2B8, symBinAddr: 0x103BC, symSize: 0x2C }
  - { offset: 0x5607F, size: 0x8, addend: 0x0, symName: '__ZN4pyo35impl_10trampoline10trampoline28_$u7b$$u7b$closure$u7d$$u7d$17hf765c1c8949b9974E', symObjAddr: 0x2E4, symBinAddr: 0x103E8, symSize: 0x40 }
  - { offset: 0x560D7, size: 0x8, addend: 0x0, symName: '__ZN4pyo35impl_10trampoline11module_exec28_$u7b$$u7b$closure$u7d$$u7d$17hfa93454fdf2fd44eE', symObjAddr: 0x324, symBinAddr: 0x10428, symSize: 0x174 }
  - { offset: 0x561E5, size: 0x8, addend: 0x0, symName: __ZN4pyo35impl_10trampoline32fastcall_cfunction_with_keywords17h188f1702bffa8b2bE, symObjAddr: 0x498, symBinAddr: 0x1059C, symSize: 0x50 }
  - { offset: 0x56D34, size: 0x8, addend: 0x0, symName: '__ZN3svg4node7element4path10parameters132_$LT$impl$u20$core..convert..From$LT$svg..node..element..path..parameters..Parameters$GT$$u20$for$u20$alloc..vec..Vec$LT$f32$GT$$GT$4from17h70f27f8c8f4e6d42E', symObjAddr: 0x0, symBinAddr: 0x105EC, symSize: 0x18 }
  - { offset: 0x56D5F, size: 0x8, addend: 0x0, symName: '__ZN3svg4node7element4path10parameters132_$LT$impl$u20$core..convert..From$LT$svg..node..element..path..parameters..Parameters$GT$$u20$for$u20$alloc..vec..Vec$LT$f32$GT$$GT$4from17h70f27f8c8f4e6d42E', symObjAddr: 0x0, symBinAddr: 0x105EC, symSize: 0x18 }
  - { offset: 0x572DA, size: 0x8, addend: 0x0, symName: '__ZN5alloc3vec16Vec$LT$T$C$A$GT$17from_raw_parts_in18precondition_check17h9c03922cddb1fedbE', symObjAddr: 0x18, symBinAddr: 0x10604, symSize: 0xAC }
  - { offset: 0x57348, size: 0x8, addend: 0x0, symName: '__ZN5alloc3vec16Vec$LT$T$C$A$GT$7set_len18precondition_check17hdf7a50b5dbe721a3E', symObjAddr: 0xC4, symBinAddr: 0x106B0, symSize: 0xAC }
  - { offset: 0x574A8, size: 0x8, addend: 0x0, symName: __ZN3std2fs11OpenOptions4open17h63513f13d8e45a4aE, symObjAddr: 0x0, symBinAddr: 0x1075C, symSize: 0x74 }
  - { offset: 0x57835, size: 0x8, addend: 0x0, symName: __ZN3std2io5Write9write_all17h665c4728c4c4298bE, symObjAddr: 0x144, symBinAddr: 0x108A0, symSize: 0x268 }
  - { offset: 0x57FC0, size: 0x8, addend: 0x0, symName: __ZN3std2fs11OpenOptions4open17h63513f13d8e45a4aE, symObjAddr: 0x0, symBinAddr: 0x1075C, symSize: 0x74 }
  - { offset: 0x58177, size: 0x8, addend: 0x0, symName: __ZN3std2fs4File6create17h37f0960cd7d28b43E, symObjAddr: 0x74, symBinAddr: 0x107D0, symSize: 0xD0 }
  - { offset: 0x5834D, size: 0x8, addend: 0x0, symName: __ZN9hashbrown7control5group4neon5Group9match_tag17h4bb886809ebf74efE, symObjAddr: 0x0, symBinAddr: 0x10B08, symSize: 0x7C }
  - { offset: 0x58426, size: 0x8, addend: 0x0, symName: __ZN9hashbrown7control5group4neon5Group9match_tag17h4bb886809ebf74efE, symObjAddr: 0x0, symBinAddr: 0x10B08, symSize: 0x7C }
  - { offset: 0x58492, size: 0x8, addend: 0x0, symName: __ZN4core4iter6traits8iterator8Iterator3map17ha4cb0b48a763667eE, symObjAddr: 0x0, symBinAddr: 0x10B84, symSize: 0x30 }
  - { offset: 0x58772, size: 0x8, addend: 0x0, symName: __ZN4core4iter6traits8iterator8Iterator3map17ha4cb0b48a763667eE, symObjAddr: 0x0, symBinAddr: 0x10B84, symSize: 0x30 }
  - { offset: 0x587E0, size: 0x8, addend: 0x0, symName: __ZN4core4iter6traits8iterator8Iterator4fold17hc771f08228f1cfb7E, symObjAddr: 0x30, symBinAddr: 0x10BB4, symSize: 0xF8 }
  - { offset: 0x58C52, size: 0x8, addend: 0x0, symName: '__ZN96_$LT$alloc..vec..drain..Drain$LT$T$C$A$GT$$u20$as$u20$core..iter..traits..iterator..Iterator$GT$4next17h16a599e783efffc8E', symObjAddr: 0x128, symBinAddr: 0x10CAC, symSize: 0x84 }
  - { offset: 0x58D0A, size: 0x8, addend: 0x0, symName: '__ZN96_$LT$alloc..vec..drain..Drain$LT$T$C$A$GT$$u20$as$u20$core..iter..traits..iterator..Iterator$GT$9size_hint17h8104bd691c98bf37E', symObjAddr: 0x1AC, symBinAddr: 0x10D30, symSize: 0x68 }
  - { offset: 0x590CD, size: 0x8, addend: 0x0, symName: '__ZN4pyo35impl_10trampoline32fastcall_cfunction_with_keywords5inner28_$u7b$$u7b$closure$u7d$$u7d$17hdfe198835f7c66e3E', symObjAddr: 0x0, symBinAddr: 0x10D98, symSize: 0x48 }
  - { offset: 0x5A50E, size: 0x8, addend: 0x0, symName: '__ZN4pyo35impl_10trampoline32fastcall_cfunction_with_keywords5inner28_$u7b$$u7b$closure$u7d$$u7d$17hdfe198835f7c66e3E', symObjAddr: 0x0, symBinAddr: 0x10D98, symSize: 0x48 }
  - { offset: 0x5AE04, size: 0x8, addend: 0x0, symName: '__ZN153_$LT$core..result..Result$LT$T$C$F$GT$$u20$as$u20$core..ops..try_trait..FromResidual$LT$core..result..Result$LT$core..convert..Infallible$C$E$GT$$GT$$GT$13from_residual17h1830be054dcbaac0E', symObjAddr: 0x0, symBinAddr: 0x10DE0, symSize: 0x6C }
  - { offset: 0x5C3F2, size: 0x8, addend: 0x0, symName: '__ZN153_$LT$core..result..Result$LT$T$C$F$GT$$u20$as$u20$core..ops..try_trait..FromResidual$LT$core..result..Result$LT$core..convert..Infallible$C$E$GT$$GT$$GT$13from_residual17h1830be054dcbaac0E', symObjAddr: 0x0, symBinAddr: 0x10DE0, symSize: 0x6C }
  - { offset: 0x5C478, size: 0x8, addend: 0x0, symName: '__ZN153_$LT$core..result..Result$LT$T$C$F$GT$$u20$as$u20$core..ops..try_trait..FromResidual$LT$core..result..Result$LT$core..convert..Infallible$C$E$GT$$GT$$GT$13from_residual17h288c054fab136d7dE', symObjAddr: 0x6C, symBinAddr: 0x10E4C, symSize: 0x6C }
  - { offset: 0x5C4FE, size: 0x8, addend: 0x0, symName: '__ZN153_$LT$core..result..Result$LT$T$C$F$GT$$u20$as$u20$core..ops..try_trait..FromResidual$LT$core..result..Result$LT$core..convert..Infallible$C$E$GT$$GT$$GT$13from_residual17h28c7ce8969220491E', symObjAddr: 0xD8, symBinAddr: 0x10EB8, symSize: 0x6C }
  - { offset: 0x5C584, size: 0x8, addend: 0x0, symName: '__ZN153_$LT$core..result..Result$LT$T$C$F$GT$$u20$as$u20$core..ops..try_trait..FromResidual$LT$core..result..Result$LT$core..convert..Infallible$C$E$GT$$GT$$GT$13from_residual17h51f044e988fe5ef1E', symObjAddr: 0x144, symBinAddr: 0x10F24, symSize: 0x6C }
  - { offset: 0x5C5EB, size: 0x8, addend: 0x0, symName: '__ZN153_$LT$core..result..Result$LT$T$C$F$GT$$u20$as$u20$core..ops..try_trait..FromResidual$LT$core..result..Result$LT$core..convert..Infallible$C$E$GT$$GT$$GT$13from_residual17h842f7391a92e389fE', symObjAddr: 0x1B0, symBinAddr: 0x10F90, symSize: 0x24 }
  - { offset: 0x5C634, size: 0x8, addend: 0x0, symName: '__ZN153_$LT$core..result..Result$LT$T$C$F$GT$$u20$as$u20$core..ops..try_trait..FromResidual$LT$core..result..Result$LT$core..convert..Infallible$C$E$GT$$GT$$GT$13from_residual17hbbc13e3691bbdd90E', symObjAddr: 0x1D4, symBinAddr: 0x10FB4, symSize: 0x6C }
  - { offset: 0x5C69B, size: 0x8, addend: 0x0, symName: '__ZN153_$LT$core..result..Result$LT$T$C$F$GT$$u20$as$u20$core..ops..try_trait..FromResidual$LT$core..result..Result$LT$core..convert..Infallible$C$E$GT$$GT$$GT$13from_residual17hd3f6c6a521689e8bE', symObjAddr: 0x240, symBinAddr: 0x11020, symSize: 0x6C }
  - { offset: 0x5CD30, size: 0x8, addend: 0x0, symName: '__ZN79_$LT$core..result..Result$LT$T$C$E$GT$$u20$as$u20$core..ops..try_trait..Try$GT$6branch17h195fafd810582988E', symObjAddr: 0x79C, symBinAddr: 0x1157C, symSize: 0xB4 }
  - { offset: 0x5CDAE, size: 0x8, addend: 0x0, symName: '__ZN79_$LT$core..result..Result$LT$T$C$E$GT$$u20$as$u20$core..ops..try_trait..Try$GT$6branch17h430a9f010fa7b5c3E', symObjAddr: 0x850, symBinAddr: 0x11630, symSize: 0x68 }
  - { offset: 0x5CE2B, size: 0x8, addend: 0x0, symName: '__ZN79_$LT$core..result..Result$LT$T$C$E$GT$$u20$as$u20$core..ops..try_trait..Try$GT$6branch17h52011d0bb6dc114eE', symObjAddr: 0x8B8, symBinAddr: 0x11698, symSize: 0xB4 }
  - { offset: 0x5CEA9, size: 0x8, addend: 0x0, symName: '__ZN79_$LT$core..result..Result$LT$T$C$E$GT$$u20$as$u20$core..ops..try_trait..Try$GT$6branch17h754adc74db06ac0fE', symObjAddr: 0x96C, symBinAddr: 0x1174C, symSize: 0xB4 }
  - { offset: 0x5CF27, size: 0x8, addend: 0x0, symName: '__ZN79_$LT$core..result..Result$LT$T$C$E$GT$$u20$as$u20$core..ops..try_trait..Try$GT$6branch17ha1cebc0e8bb4fb7cE', symObjAddr: 0xA20, symBinAddr: 0x11800, symSize: 0x68 }
  - { offset: 0x5CFA4, size: 0x8, addend: 0x0, symName: '__ZN79_$LT$core..result..Result$LT$T$C$E$GT$$u20$as$u20$core..ops..try_trait..Try$GT$6branch17ha634ef8cd878f437E', symObjAddr: 0xA88, symBinAddr: 0x11868, symSize: 0x64 }
  - { offset: 0x5D021, size: 0x8, addend: 0x0, symName: '__ZN79_$LT$core..result..Result$LT$T$C$E$GT$$u20$as$u20$core..ops..try_trait..Try$GT$6branch17ha8f228d79427c401E', symObjAddr: 0xAEC, symBinAddr: 0x118CC, symSize: 0xB4 }
  - { offset: 0x5D09F, size: 0x8, addend: 0x0, symName: '__ZN79_$LT$core..result..Result$LT$T$C$E$GT$$u20$as$u20$core..ops..try_trait..Try$GT$6branch17hc5e23b739a9767dcE', symObjAddr: 0xBA0, symBinAddr: 0x11980, symSize: 0xB4 }
  - { offset: 0x5D11D, size: 0x8, addend: 0x0, symName: '__ZN79_$LT$core..result..Result$LT$T$C$E$GT$$u20$as$u20$core..ops..try_trait..Try$GT$6branch17hcabdf6fd94622111E', symObjAddr: 0xC54, symBinAddr: 0x11A34, symSize: 0x90 }
  - { offset: 0x5E896, size: 0x8, addend: 0x0, symName: '__ZN4core6result19Result$LT$T$C$E$GT$3map17h63e01aa34aaebe7bE', symObjAddr: 0x2AC, symBinAddr: 0x1108C, symSize: 0x90 }
  - { offset: 0x5E95F, size: 0x8, addend: 0x0, symName: '__ZN4core6result19Result$LT$T$C$E$GT$3map17h7cd4a8fb91cdc09bE', symObjAddr: 0x33C, symBinAddr: 0x1111C, symSize: 0xA8 }
  - { offset: 0x5EBBB, size: 0x8, addend: 0x0, symName: '__ZN4core6result19Result$LT$T$C$E$GT$3map17hd3a358af0dd46a56E', symObjAddr: 0x3E4, symBinAddr: 0x111C4, symSize: 0xBC }
  - { offset: 0x5EC87, size: 0x8, addend: 0x0, symName: '__ZN4core6result19Result$LT$T$C$E$GT$6is_err17hc212b5c560619668E', symObjAddr: 0x4A0, symBinAddr: 0x11280, symSize: 0x20 }
  - { offset: 0x5ECF9, size: 0x8, addend: 0x0, symName: '__ZN4core6result19Result$LT$T$C$E$GT$7map_err17h08f4ea7234aa6f2bE', symObjAddr: 0x4C0, symBinAddr: 0x112A0, symSize: 0xB8 }
  - { offset: 0x5ED8C, size: 0x8, addend: 0x0, symName: '__ZN4core6result19Result$LT$T$C$E$GT$7map_err17h9034af3cf19d09c4E', symObjAddr: 0x578, symBinAddr: 0x11358, symSize: 0xCC }
  - { offset: 0x5EE20, size: 0x8, addend: 0x0, symName: '__ZN4core6result19Result$LT$T$C$E$GT$7map_err17hb536569612d045f2E', symObjAddr: 0x644, symBinAddr: 0x11424, symSize: 0xA0 }
  - { offset: 0x5EEB3, size: 0x8, addend: 0x0, symName: '__ZN4core6result19Result$LT$T$C$E$GT$7map_err17hb5ecec742c398861E', symObjAddr: 0x6E4, symBinAddr: 0x114C4, symSize: 0xB8 }
  - { offset: 0x5F03F, size: 0x8, addend: 0x0, symName: __ZN4pyo35impl_10trampoline11module_exec17h13b9a7ab3d9bfc65E, symObjAddr: 0x0, symBinAddr: 0x11AC4, symSize: 0x34 }
  - { offset: 0x604B2, size: 0x8, addend: 0x0, symName: __ZN4pyo35impl_10trampoline11module_exec17h13b9a7ab3d9bfc65E, symObjAddr: 0x0, symBinAddr: 0x11AC4, symSize: 0x34 }
  - { offset: 0x60DC1, size: 0x8, addend: 0x0, symName: __ZN4core5slice3raw14from_raw_parts18precondition_check17h2b941464d6606899E, symObjAddr: 0x0, symBinAddr: 0x11AF8, symSize: 0x1D8 }
  - { offset: 0x61358, size: 0x8, addend: 0x0, symName: __ZN4core5slice3raw14from_raw_parts18precondition_check17h2b941464d6606899E, symObjAddr: 0x0, symBinAddr: 0x11AF8, symSize: 0x1D8 }
  - { offset: 0x614F6, size: 0x8, addend: 0x0, symName: __ZN4core5slice3raw18from_raw_parts_mut18precondition_check17hda906f0de24fadc6E, symObjAddr: 0x1D8, symBinAddr: 0x11CD0, symSize: 0x1D8 }
  - { offset: 0x61873, size: 0x8, addend: 0x0, symName: __ZN3svg4save17h08a2323214de4894E, symObjAddr: 0x0, symBinAddr: 0x11EA8, symSize: 0x144 }
  - { offset: 0x61BE3, size: 0x8, addend: 0x0, symName: __ZN3svg4save17h08a2323214de4894E, symObjAddr: 0x0, symBinAddr: 0x11EA8, symSize: 0x144 }
  - { offset: 0x62256, size: 0x8, addend: 0x0, symName: __ZN4pyo38internal5state11AttachGuard6python17h8f777bc58f66f465E, symObjAddr: 0x0, symBinAddr: 0x11FEC, symSize: 0x20 }
  - { offset: 0x6230C, size: 0x8, addend: 0x0, symName: __ZN4pyo38internal5state11AttachGuard6python17h8f777bc58f66f465E, symObjAddr: 0x0, symBinAddr: 0x11FEC, symSize: 0x20 }
  - { offset: 0x6234C, size: 0x8, addend: 0x0, symName: __ZN3svg4node7element3SVG3new17h2d166b4012f0ee80E, symObjAddr: 0x0, symBinAddr: 0x1200C, symSize: 0xCC }
  - { offset: 0x624C0, size: 0x8, addend: 0x0, symName: '__ZN59_$LT$svg..node..element..SVG$u20$as$u20$svg..node..Node$GT$11is_bareable17hdde84a976caeb294E', symObjAddr: 0x1D8, symBinAddr: 0x121E4, symSize: 0x18 }
  - { offset: 0x624F2, size: 0x8, addend: 0x0, symName: '__ZN60_$LT$svg..node..element..Path$u20$as$u20$svg..node..Node$GT$12get_children17h5d83abe922b2da79E', symObjAddr: 0x1F0, symBinAddr: 0x121FC, symSize: 0x30 }
  - { offset: 0x6251E, size: 0x8, addend: 0x0, symName: '__ZN60_$LT$svg..node..element..Path$u20$as$u20$svg..node..Node$GT$14get_attributes17h058ae39198169b0cE', symObjAddr: 0x220, symBinAddr: 0x1222C, symSize: 0x30 }
  - { offset: 0x6254A, size: 0x8, addend: 0x0, symName: '__ZN60_$LT$svg..node..element..Path$u20$as$u20$svg..node..Node$GT$16get_children_mut17hbb46df82906afee7E', symObjAddr: 0x250, symBinAddr: 0x1225C, symSize: 0x30 }
  - { offset: 0x62576, size: 0x8, addend: 0x0, symName: '__ZN60_$LT$svg..node..element..Path$u20$as$u20$svg..node..Node$GT$18get_attributes_mut17hd255cf73b8b8de5aE', symObjAddr: 0x280, symBinAddr: 0x1228C, symSize: 0x30 }
  - { offset: 0x625A2, size: 0x8, addend: 0x0, symName: '__ZN60_$LT$svg..node..element..Path$u20$as$u20$svg..node..Node$GT$8get_name17h6aa2b3d149236950E', symObjAddr: 0x2B0, symBinAddr: 0x122BC, symSize: 0x24 }
  - { offset: 0x625D4, size: 0x8, addend: 0x0, symName: '__ZN60_$LT$svg..node..element..Text$u20$as$u20$svg..node..Node$GT$11is_bareable17h990cad65af21945cE', symObjAddr: 0x2D4, symBinAddr: 0x122E0, symSize: 0x18 }
  - { offset: 0x62600, size: 0x8, addend: 0x0, symName: '__ZN60_$LT$svg..node..element..Text$u20$as$u20$svg..node..Node$GT$12get_children17h4db7025b0436e261E', symObjAddr: 0x2EC, symBinAddr: 0x122F8, symSize: 0x30 }
  - { offset: 0x6262C, size: 0x8, addend: 0x0, symName: '__ZN60_$LT$svg..node..element..Text$u20$as$u20$svg..node..Node$GT$14get_attributes17h413538068e30db4aE', symObjAddr: 0x31C, symBinAddr: 0x12328, symSize: 0x30 }
  - { offset: 0x62658, size: 0x8, addend: 0x0, symName: '__ZN60_$LT$svg..node..element..Text$u20$as$u20$svg..node..Node$GT$16get_children_mut17h979abc8c44979c1aE', symObjAddr: 0x34C, symBinAddr: 0x12358, symSize: 0x30 }
  - { offset: 0x62684, size: 0x8, addend: 0x0, symName: '__ZN60_$LT$svg..node..element..Text$u20$as$u20$svg..node..Node$GT$18get_attributes_mut17h5bbf2cecdd5dde94E', symObjAddr: 0x37C, symBinAddr: 0x12388, symSize: 0x30 }
  - { offset: 0x626B0, size: 0x8, addend: 0x0, symName: '__ZN60_$LT$svg..node..element..Text$u20$as$u20$svg..node..Node$GT$8get_name17haf44305ce8e422fcE', symObjAddr: 0x3AC, symBinAddr: 0x123B8, symSize: 0x24 }
  - { offset: 0x626E2, size: 0x8, addend: 0x0, symName: '__ZN61_$LT$svg..node..element..Path$u20$as$u20$core..fmt..Debug$GT$3fmt17hd07e261d0c85be75E', symObjAddr: 0x3D0, symBinAddr: 0x123DC, symSize: 0x64 }
  - { offset: 0x62722, size: 0x8, addend: 0x0, symName: '__ZN61_$LT$svg..node..element..Text$u20$as$u20$core..fmt..Debug$GT$3fmt17h03a6538b48fc21ebE', symObjAddr: 0x434, symBinAddr: 0x12440, symSize: 0x64 }
  - { offset: 0x62765, size: 0x8, addend: 0x0, symName: '__ZN62_$LT$svg..node..element..SVG$u20$as$u20$core..fmt..Display$GT$3fmt17h6a1a9d92fb6dc909E', symObjAddr: 0x498, symBinAddr: 0x124A4, symSize: 0xAC }
  - { offset: 0x627C2, size: 0x8, addend: 0x0, symName: '__ZN63_$LT$svg..node..element..Path$u20$as$u20$core..clone..Clone$GT$5clone17hb6bdfd55f0cf5fc3E', symObjAddr: 0x544, symBinAddr: 0x12550, symSize: 0x44 }
  - { offset: 0x627F4, size: 0x8, addend: 0x0, symName: '__ZN63_$LT$svg..node..element..Path$u20$as$u20$core..fmt..Display$GT$3fmt17hf6bbccfb6824053bE', symObjAddr: 0x588, symBinAddr: 0x12594, symSize: 0xAC }
  - { offset: 0x62851, size: 0x8, addend: 0x0, symName: '__ZN63_$LT$svg..node..element..Text$u20$as$u20$core..clone..Clone$GT$5clone17h4d593f8cedd75ed9E', symObjAddr: 0x634, symBinAddr: 0x12640, symSize: 0x44 }
  - { offset: 0x62885, size: 0x8, addend: 0x0, symName: '__ZN63_$LT$svg..node..element..Text$u20$as$u20$core..fmt..Display$GT$3fmt17h0d4d374d94b7f864E', symObjAddr: 0x678, symBinAddr: 0x12684, symSize: 0xAC }
  - { offset: 0x628E2, size: 0x8, addend: 0x0, symName: '__ZN64_$LT$svg..node..element..Element$u20$as$u20$core..fmt..Debug$GT$3fmt17h2ada28ab87d325acE', symObjAddr: 0x724, symBinAddr: 0x12730, symSize: 0xB8 }
  - { offset: 0x62922, size: 0x8, addend: 0x0, symName: '__ZN65_$LT$svg..node..element..Rectangle$u20$as$u20$svg..node..Node$GT$12get_children17h78b74d23112de98bE', symObjAddr: 0x7DC, symBinAddr: 0x127E8, symSize: 0x30 }
  - { offset: 0x6294E, size: 0x8, addend: 0x0, symName: '__ZN65_$LT$svg..node..element..Rectangle$u20$as$u20$svg..node..Node$GT$14get_attributes17h814a90d1a8b73678E', symObjAddr: 0x80C, symBinAddr: 0x12818, symSize: 0x30 }
  - { offset: 0x6297A, size: 0x8, addend: 0x0, symName: '__ZN65_$LT$svg..node..element..Rectangle$u20$as$u20$svg..node..Node$GT$16get_children_mut17h8274ff265145c270E', symObjAddr: 0x83C, symBinAddr: 0x12848, symSize: 0x30 }
  - { offset: 0x629A6, size: 0x8, addend: 0x0, symName: '__ZN65_$LT$svg..node..element..Rectangle$u20$as$u20$svg..node..Node$GT$18get_attributes_mut17h18fb967e4bf77c6bE', symObjAddr: 0x86C, symBinAddr: 0x12878, symSize: 0x30 }
  - { offset: 0x629D2, size: 0x8, addend: 0x0, symName: '__ZN65_$LT$svg..node..element..Rectangle$u20$as$u20$svg..node..Node$GT$8get_name17ha60d9effda873d3eE', symObjAddr: 0x89C, symBinAddr: 0x128A8, symSize: 0x24 }
  - { offset: 0x62A04, size: 0x8, addend: 0x0, symName: '__ZN66_$LT$svg..node..element..Element$u20$as$u20$core..clone..Clone$GT$5clone17h9c91108c3ca4fab9E', symObjAddr: 0x8C0, symBinAddr: 0x128CC, symSize: 0xE4 }
  - { offset: 0x62A36, size: 0x8, addend: 0x0, symName: '__ZN66_$LT$svg..node..element..Rectangle$u20$as$u20$core..fmt..Debug$GT$3fmt17hf405c3d6cc9ac93bE', symObjAddr: 0x9A4, symBinAddr: 0x129B0, symSize: 0x64 }
  - { offset: 0x62A76, size: 0x8, addend: 0x0, symName: '__ZN67_$LT$svg..node..element..SVG$u20$as$u20$core..ops..deref..Deref$GT$5deref17h8bab974d6b4cf848E', symObjAddr: 0xA08, symBinAddr: 0x12A14, symSize: 0x14 }
  - { offset: 0x62AA8, size: 0x8, addend: 0x0, symName: '__ZN68_$LT$svg..node..element..Rectangle$u20$as$u20$core..clone..Clone$GT$5clone17h63f9ccdf27e4ceddE', symObjAddr: 0xA1C, symBinAddr: 0x12A28, symSize: 0x44 }
  - { offset: 0x62ADA, size: 0x8, addend: 0x0, symName: '__ZN68_$LT$svg..node..element..Rectangle$u20$as$u20$core..fmt..Display$GT$3fmt17h601af857a57d91daE', symObjAddr: 0xA60, symBinAddr: 0x12A6C, symSize: 0xAC }
  - { offset: 0x62B37, size: 0x8, addend: 0x0, symName: '__ZN71_$LT$svg..node..element..Path$u20$as$u20$svg..node..NodeDefaultHash$GT$12default_hash17heca2550d02de8edaE', symObjAddr: 0xB0C, symBinAddr: 0x12B18, symSize: 0x2C }
  - { offset: 0x62B76, size: 0x8, addend: 0x0, symName: '__ZN76_$LT$svg..node..element..Rectangle$u20$as$u20$svg..node..NodeDefaultHash$GT$12default_hash17hcd167b47cb70f147E', symObjAddr: 0xB38, symBinAddr: 0x12B44, symSize: 0x2C }
  - { offset: 0x633DC, size: 0x8, addend: 0x0, symName: __ZN3svg4node7element3SVG3new17h2d166b4012f0ee80E, symObjAddr: 0x0, symBinAddr: 0x1200C, symSize: 0xCC }
  - { offset: 0x63424, size: 0x8, addend: 0x0, symName: __ZN3svg4node7element4Path3new17hed65cc9098eca27fE, symObjAddr: 0xCC, symBinAddr: 0x120D8, symSize: 0x4C }
  - { offset: 0x63437, size: 0x8, addend: 0x0, symName: __ZN3svg4node7element7Element12get_children17h15b119511a29dd22E, symObjAddr: 0x118, symBinAddr: 0x12124, symSize: 0x14 }
  - { offset: 0x63466, size: 0x8, addend: 0x0, symName: __ZN3svg4node7element7Element14get_attributes17h6f47ed72df5c4144E, symObjAddr: 0x12C, symBinAddr: 0x12138, symSize: 0x14 }
  - { offset: 0x63495, size: 0x8, addend: 0x0, symName: __ZN3svg4node7element7Element16get_children_mut17h2b8c61638e19e3e2E, symObjAddr: 0x140, symBinAddr: 0x1214C, symSize: 0x14 }
  - { offset: 0x634C4, size: 0x8, addend: 0x0, symName: __ZN3svg4node7element7Element18get_attributes_mut17h08c1b175e8bf9686E, symObjAddr: 0x154, symBinAddr: 0x12160, symSize: 0x14 }
  - { offset: 0x6350D, size: 0x8, addend: 0x0, symName: __ZN3svg4node7element7Element8get_name17h107b2284960a00beE, symObjAddr: 0x168, symBinAddr: 0x12174, symSize: 0x24 }
  - { offset: 0x6352F, size: 0x8, addend: 0x0, symName: __ZN3svg4node7element9Rectangle3new17h69e58f04a107a726E, symObjAddr: 0x18C, symBinAddr: 0x12198, symSize: 0x4C }
  - { offset: 0x63669, size: 0x8, addend: 0x0, symName: '__ZN10cd_diagram4draw23__pyfunction_cd_diagram28_$u7b$$u7b$closure$u7d$$u7d$17h58514ecd5551e3abE', symObjAddr: 0x0, symBinAddr: 0x12B70, symSize: 0x2C }
  - { offset: 0x63685, size: 0x8, addend: 0x0, symName: '__ZN10cd_diagram4draw23__pyfunction_cd_diagram28_$u7b$$u7b$closure$u7d$$u7d$17h58514ecd5551e3abE', symObjAddr: 0x0, symBinAddr: 0x12B70, symSize: 0x2C }
  - { offset: 0x636AF, size: 0x8, addend: 0x0, symName: '__ZN10cd_diagram4draw23__pyfunction_cd_diagram28_$u7b$$u7b$closure$u7d$$u7d$17hc77bb4a2f4fed7e7E', symObjAddr: 0x2C, symBinAddr: 0x12B9C, symSize: 0x28 }
  - { offset: 0x636D9, size: 0x8, addend: 0x0, symName: '__ZN10cd_diagram4draw23__pyfunction_cd_diagram28_$u7b$$u7b$closure$u7d$$u7d$17hfa7fe573742f1472E', symObjAddr: 0x54, symBinAddr: 0x12BC4, symSize: 0x2C }
  - { offset: 0x639E0, size: 0x8, addend: 0x0, symName: __ZN4core3fmt2rt8Argument11new_display17h64ba1ad90f150941E, symObjAddr: 0x0, symBinAddr: 0x12BF0, symSize: 0x2C }
  - { offset: 0x63D57, size: 0x8, addend: 0x0, symName: __ZN4core3fmt2rt8Argument11new_display17h64ba1ad90f150941E, symObjAddr: 0x0, symBinAddr: 0x12BF0, symSize: 0x2C }
  - { offset: 0x640DD, size: 0x8, addend: 0x0, symName: __ZN4core3fmt2rt8Argument11new_display17hec936833c8bd8d31E, symObjAddr: 0x2C, symBinAddr: 0x12C1C, symSize: 0x2C }
  - { offset: 0x64126, size: 0x8, addend: 0x0, symName: __ZN4pyo33err10cast_error9CastError3new17h3ab8e387b964f247E, symObjAddr: 0x0, symBinAddr: 0x12C48, symSize: 0x1C }
  - { offset: 0x658FE, size: 0x8, addend: 0x0, symName: __ZN4pyo33err10cast_error9CastError3new17h3ab8e387b964f247E, symObjAddr: 0x0, symBinAddr: 0x12C48, symSize: 0x1C }
  - { offset: 0x6594C, size: 0x8, addend: 0x0, symName: '__ZN4pyo35impl_4wrap62IntoPyObjectConverter$LT$core..result..Result$LT$T$C$E$GT$$GT$4wrap17h1b62e5c72a58aa18E', symObjAddr: 0x0, symBinAddr: 0x12C64, symSize: 0x34 }
  - { offset: 0x66E25, size: 0x8, addend: 0x0, symName: '__ZN4pyo35impl_4wrap82EmptyTupleConverter$LT$core..result..Result$LT$$LP$$RP$$C$pyo3..err..PyErr$GT$$GT$12map_into_ptr28_$u7b$$u7b$closure$u7d$$u7d$17h60174f4271b5fe40E', symObjAddr: 0x34, symBinAddr: 0x12C98, symSize: 0x28 }
  - { offset: 0x66E7B, size: 0x8, addend: 0x0, symName: __ZN4pyo35impl_4wrap9converter17h952e31bc92bdef27E, symObjAddr: 0x5C, symBinAddr: 0x12CC0, symSize: 0x10 }
  - { offset: 0x66EAD, size: 0x8, addend: 0x0, symName: '__ZN81_$LT$pyo3..impl_..wrap..Converter$LT$T$GT$$u20$as$u20$core..ops..deref..Deref$GT$5deref17h3a9dbffefd180bbbE', symObjAddr: 0x6C, symBinAddr: 0x12CD0, symSize: 0x14 }
  - { offset: 0x66EE8, size: 0x8, addend: 0x0, symName: '__ZN91_$LT$pyo3..impl_..wrap..EmptyTupleConverter$LT$T$GT$$u20$as$u20$core..ops..deref..Deref$GT$5deref17h912abbcf15b591eaE', symObjAddr: 0x80, symBinAddr: 0x12CE4, symSize: 0x14 }
  - { offset: 0x67770, size: 0x8, addend: 0x0, symName: '__ZN4pyo35impl_4wrap62IntoPyObjectConverter$LT$core..result..Result$LT$T$C$E$GT$$GT$4wrap17h1b62e5c72a58aa18E', symObjAddr: 0x0, symBinAddr: 0x12C64, symSize: 0x34 }
  - { offset: 0x6781F, size: 0x8, addend: 0x0, symName: '__ZN4core3str21_$LT$impl$u20$str$GT$5parse17h648adc55897ee56eE', symObjAddr: 0x0, symBinAddr: 0x12CF8, symSize: 0x28 }
  - { offset: 0x67886, size: 0x8, addend: 0x0, symName: '__ZN4core3str21_$LT$impl$u20$str$GT$5parse17h648adc55897ee56eE', symObjAddr: 0x0, symBinAddr: 0x12CF8, symSize: 0x28 }
  - { offset: 0x67999, size: 0x8, addend: 0x0, symName: '__ZN79_$LT$std..path..Path$u20$as$u20$core..convert..AsRef$LT$std..path..Path$GT$$GT$6as_ref17h8c4e1c56a4821dcdE', symObjAddr: 0x0, symBinAddr: 0x12D20, symSize: 0x18 }
  - { offset: 0x679B5, size: 0x8, addend: 0x0, symName: '__ZN79_$LT$std..path..Path$u20$as$u20$core..convert..AsRef$LT$std..path..Path$GT$$GT$6as_ref17h8c4e1c56a4821dcdE', symObjAddr: 0x0, symBinAddr: 0x12D20, symSize: 0x18 }
  - { offset: 0x67A96, size: 0x8, addend: 0x0, symName: '__ZN102_$LT$core..iter..adapters..map..Map$LT$I$C$F$GT$$u20$as$u20$core..iter..traits..iterator..Iterator$GT$4fold17hc7212faeb9dd4fd3E', symObjAddr: 0x0, symBinAddr: 0x12D38, symSize: 0x5C }
  - { offset: 0x67D59, size: 0x8, addend: 0x0, symName: '__ZN4core4iter8adapters3map8map_fold28_$u7b$$u7b$closure$u7d$$u7d$17h4ce76f26f50d417fE', symObjAddr: 0x128, symBinAddr: 0x12E60, symSize: 0x9C }
  - { offset: 0x67DE5, size: 0x8, addend: 0x0, symName: '__ZN102_$LT$core..iter..adapters..map..Map$LT$I$C$F$GT$$u20$as$u20$core..iter..traits..iterator..Iterator$GT$4fold17hc7212faeb9dd4fd3E', symObjAddr: 0x0, symBinAddr: 0x12D38, symSize: 0x5C }
  - { offset: 0x67E7E, size: 0x8, addend: 0x0, symName: '__ZN102_$LT$core..iter..adapters..map..Map$LT$I$C$F$GT$$u20$as$u20$core..iter..traits..iterator..Iterator$GT$9size_hint17h5b41901b18550fdeE', symObjAddr: 0x5C, symBinAddr: 0x12D94, symSize: 0x24 }
  - { offset: 0x67F59, size: 0x8, addend: 0x0, symName: __ZN4core4iter6traits8iterator8Iterator7collect17h646bda86c7502031E, symObjAddr: 0x80, symBinAddr: 0x12DB8, symSize: 0x74 }
  - { offset: 0x67FEF, size: 0x8, addend: 0x0, symName: __ZN4core4iter6traits8iterator8Iterator8for_each17h785a21a8c48bb827E, symObjAddr: 0xF4, symBinAddr: 0x12E2C, symSize: 0x34 }
  - { offset: 0x68067, size: 0x8, addend: 0x0, symName: '__ZN63_$LT$I$u20$as$u20$core..iter..traits..collect..IntoIterator$GT$9into_iter17h55ba2e62c096aff4E', symObjAddr: 0x1C4, symBinAddr: 0x12EFC, symSize: 0x30 }
  - { offset: 0x68A5D, size: 0x8, addend: 0x0, symName: __ZN4core5slice5index5range17h95a1f7501f3a066eE, symObjAddr: 0x0, symBinAddr: 0x12F2C, symSize: 0x23C }
  - { offset: 0x68A79, size: 0x8, addend: 0x0, symName: __ZN4core5slice5index5range17h95a1f7501f3a066eE, symObjAddr: 0x0, symBinAddr: 0x12F2C, symSize: 0x23C }
  - { offset: 0x68CD2, size: 0x8, addend: 0x0, symName: __ZN3std5panic12catch_unwind17h20faa74f70066fe7E, symObjAddr: 0x0, symBinAddr: 0x13168, symSize: 0xC0 }
  - { offset: 0x6A642, size: 0x8, addend: 0x0, symName: __ZN3std5panic12catch_unwind17h20faa74f70066fe7E, symObjAddr: 0x0, symBinAddr: 0x13168, symSize: 0xC0 }
  - { offset: 0x6A6D4, size: 0x8, addend: 0x0, symName: __ZN3std5panic12catch_unwind17he215ad1a5b45ff43E, symObjAddr: 0xC0, symBinAddr: 0x13228, symSize: 0xDC }
  - { offset: 0x6B0A9, size: 0x8, addend: 0x0, symName: '__ZN103_$LT$pyo3..instance..Bound$LT$pyo3..types..any..PyAny$GT$$u20$as$u20$pyo3..types..any..PyAnyMethods$GT$7extract17h8dace5d33cb6a4eaE', symObjAddr: 0x0, symBinAddr: 0x13358, symSize: 0x30 }
  - { offset: 0x6B8D4, size: 0x8, addend: 0x0, symName: '__ZN4core5slice29_$LT$impl$u20$$u5b$T$u5d$$GT$4iter17h9e9df56b7816a47fE', symObjAddr: 0x30, symBinAddr: 0x13388, symSize: 0x28 }
  - { offset: 0x6CB59, size: 0x8, addend: 0x0, symName: '__ZN103_$LT$pyo3..instance..Bound$LT$pyo3..types..any..PyAny$GT$$u20$as$u20$pyo3..types..any..PyAnyMethods$GT$7extract17h8dace5d33cb6a4eaE', symObjAddr: 0x0, symBinAddr: 0x13358, symSize: 0x30 }
  - { offset: 0x6CC08, size: 0x8, addend: 0x0, symName: '__ZN4pyo35impl_9pymethods133_$LT$impl$u20$core..convert..From$LT$pyo3..impl_..pymethods..BoundRef$LT$T$GT$$GT$$u20$for$u20$$RF$pyo3..instance..Bound$LT$T$GT$$GT$4from17hbc2edaf5eb07d9d2E', symObjAddr: 0x58, symBinAddr: 0x133B0, symSize: 0x14 }
  - { offset: 0x6CFAA, size: 0x8, addend: 0x0, symName: '__ZN4pyo38instance17Borrowed$LT$T$GT$4cast5inner17h2711c20975982a7dE', symObjAddr: 0x154, symBinAddr: 0x134AC, symSize: 0x7C }
  - { offset: 0x6CFE1, size: 0x8, addend: 0x0, symName: '__ZN4pyo38instance17Borrowed$LT$T$GT$4cast5inner17hf47e3b93b050a15eE', symObjAddr: 0x1D0, symBinAddr: 0x13528, symSize: 0x7C }
  - { offset: 0x6D04E, size: 0x8, addend: 0x0, symName: '__ZN4pyo38instance39Borrowed$LT$pyo3..types..any..PyAny$GT$15from_ptr_or_opt28_$u7b$$u7b$closure$u7d$$u7d$17h5d71d24a606204b1E', symObjAddr: 0x36C, symBinAddr: 0x136C4, symSize: 0x30 }
  - { offset: 0x6D6D3, size: 0x8, addend: 0x0, symName: '__ZN4pyo38instance11Py$LT$T$GT$6as_ptr17hc8bca2c2a1ecd71cE', symObjAddr: 0x6C, symBinAddr: 0x133C4, symSize: 0x1C }
  - { offset: 0x6D726, size: 0x8, addend: 0x0, symName: '__ZN4pyo38instance14Bound$LT$T$GT$6as_ptr17h67fd209d3aecf427E', symObjAddr: 0x88, symBinAddr: 0x133E0, symSize: 0x2C }
  - { offset: 0x6D752, size: 0x8, addend: 0x0, symName: '__ZN4pyo38instance14Bound$LT$T$GT$8into_ptr17h8306ab883d996275E', symObjAddr: 0xB4, symBinAddr: 0x1340C, symSize: 0x40 }
  - { offset: 0x6D798, size: 0x8, addend: 0x0, symName: '__ZN4pyo38instance17Borrowed$LT$T$GT$4cast17h42003e5fa96512edE', symObjAddr: 0xF4, symBinAddr: 0x1344C, symSize: 0x30 }
  - { offset: 0x6D7DA, size: 0x8, addend: 0x0, symName: '__ZN4pyo38instance17Borrowed$LT$T$GT$4cast17hef47147bc6304316E', symObjAddr: 0x124, symBinAddr: 0x1347C, symSize: 0x30 }
  - { offset: 0x6DA1B, size: 0x8, addend: 0x0, symName: '__ZN4pyo38instance17Borrowed$LT$T$GT$7extract17h22ec6488f5eeefd6E', symObjAddr: 0x24C, symBinAddr: 0x135A4, symSize: 0x30 }
  - { offset: 0x6DC07, size: 0x8, addend: 0x0, symName: '__ZN4pyo38instance17Borrowed$LT$T$GT$7extract17h3ba644a924318f39E', symObjAddr: 0x27C, symBinAddr: 0x135D4, symSize: 0x30 }
  - { offset: 0x6DC3C, size: 0x8, addend: 0x0, symName: '__ZN4pyo38instance17Borrowed$LT$T$GT$7extract17h6883788618daa721E', symObjAddr: 0x2AC, symBinAddr: 0x13604, symSize: 0x30 }
  - { offset: 0x6DC71, size: 0x8, addend: 0x0, symName: '__ZN4pyo38instance17Borrowed$LT$T$GT$7extract17h8409a5d6c8ff982cE', symObjAddr: 0x2DC, symBinAddr: 0x13634, symSize: 0x30 }
  - { offset: 0x6DCA6, size: 0x8, addend: 0x0, symName: '__ZN4pyo38instance17Borrowed$LT$T$GT$7extract17h99c5a60b6c84224fE', symObjAddr: 0x30C, symBinAddr: 0x13664, symSize: 0x30 }
  - { offset: 0x6DCDB, size: 0x8, addend: 0x0, symName: '__ZN4pyo38instance17Borrowed$LT$T$GT$7extract17hd41361f3248b2dd1E', symObjAddr: 0x33C, symBinAddr: 0x13694, symSize: 0x30 }
  - { offset: 0x6DD96, size: 0x8, addend: 0x0, symName: '__ZN5alloc5slice29_$LT$impl$u20$$u5b$T$u5d$$GT$8into_vec17h20471231a0e0fad7E', symObjAddr: 0x0, symBinAddr: 0x136F4, symSize: 0x4C }
  - { offset: 0x6DDFD, size: 0x8, addend: 0x0, symName: '__ZN5alloc5slice29_$LT$impl$u20$$u5b$T$u5d$$GT$8into_vec17h20471231a0e0fad7E', symObjAddr: 0x0, symBinAddr: 0x136F4, symSize: 0x4C }
  - { offset: 0x6E0A0, size: 0x8, addend: 0x0, symName: '__ZN69_$LT$std..hash..random..RandomState$u20$as$u20$core..clone..Clone$GT$5clone17h17900790d8aa34a0E', symObjAddr: 0x0, symBinAddr: 0x13740, symSize: 0x20 }
  - { offset: 0x6E0C1, size: 0x8, addend: 0x0, symName: '__ZN69_$LT$std..hash..random..RandomState$u20$as$u20$core..clone..Clone$GT$5clone17h17900790d8aa34a0E', symObjAddr: 0x0, symBinAddr: 0x13740, symSize: 0x20 }
  - { offset: 0x6E0F3, size: 0x8, addend: 0x0, symName: '__ZN71_$LT$std..hash..random..DefaultHasher$u20$as$u20$core..hash..Hasher$GT$6finish17h7fa832479df7f313E', symObjAddr: 0x20, symBinAddr: 0x13760, symSize: 0x2C }
  - { offset: 0x6E142, size: 0x8, addend: 0x0, symName: '__ZN74_$LT$std..hash..random..RandomState$u20$as$u20$core..hash..BuildHasher$GT$12build_hasher17hb9f450848a4b0196E', symObjAddr: 0x4C, symBinAddr: 0x1378C, symSize: 0xCC }
  - { offset: 0x6E3F6, size: 0x8, addend: 0x0, symName: __ZN3svg4node4Node11is_bareable17h11f74c3e53a56129E, symObjAddr: 0x0, symBinAddr: 0x13858, symSize: 0x18 }
  - { offset: 0x6E980, size: 0x8, addend: 0x0, symName: '__ZN59_$LT$svg..node..element..SVG$u20$as$u20$svg..node..Node$GT$6append17h619da9cb19ad46ceE', symObjAddr: 0xA74, symBinAddr: 0x142CC, symSize: 0x24 }
  - { offset: 0x6E9C0, size: 0x8, addend: 0x0, symName: '__ZN59_$LT$svg..node..element..SVG$u20$as$u20$svg..node..Node$GT$6append17h9ee0f0ad2b923480E', symObjAddr: 0xA98, symBinAddr: 0x142F0, symSize: 0x24 }
  - { offset: 0x6EA00, size: 0x8, addend: 0x0, symName: '__ZN59_$LT$svg..node..element..SVG$u20$as$u20$svg..node..Node$GT$6append17hc92a833897f18779E', symObjAddr: 0xABC, symBinAddr: 0x14314, symSize: 0x24 }
  - { offset: 0x6EA40, size: 0x8, addend: 0x0, symName: '__ZN59_$LT$svg..node..element..SVG$u20$as$u20$svg..node..Node$GT$6assign17h068e6605380c66ebE', symObjAddr: 0xAE0, symBinAddr: 0x14338, symSize: 0x3C }
  - { offset: 0x6EA96, size: 0x8, addend: 0x0, symName: '__ZN59_$LT$svg..node..element..SVG$u20$as$u20$svg..node..Node$GT$6assign17h2671391143e3999fE', symObjAddr: 0xB1C, symBinAddr: 0x14374, symSize: 0x34 }
  - { offset: 0x6EAF2, size: 0x8, addend: 0x0, symName: '__ZN60_$LT$svg..node..element..Path$u20$as$u20$svg..node..Node$GT$6assign17h2ce2057f0610e97bE', symObjAddr: 0xB50, symBinAddr: 0x143A8, symSize: 0x30 }
  - { offset: 0x6EB49, size: 0x8, addend: 0x0, symName: '__ZN60_$LT$svg..node..element..Path$u20$as$u20$svg..node..Node$GT$6assign17h3d3728cb22ebe012E', symObjAddr: 0xB80, symBinAddr: 0x143D8, symSize: 0x3C }
  - { offset: 0x6EB9F, size: 0x8, addend: 0x0, symName: '__ZN60_$LT$svg..node..element..Path$u20$as$u20$svg..node..Node$GT$6assign17hba36de08a4f3978aE', symObjAddr: 0xBBC, symBinAddr: 0x14414, symSize: 0x34 }
  - { offset: 0x6EBFB, size: 0x8, addend: 0x0, symName: '__ZN60_$LT$svg..node..element..Text$u20$as$u20$svg..node..Node$GT$6assign17h5ffe12aeac26ee9dE', symObjAddr: 0xBF0, symBinAddr: 0x14448, symSize: 0x3C }
  - { offset: 0x6EC51, size: 0x8, addend: 0x0, symName: '__ZN60_$LT$svg..node..element..Text$u20$as$u20$svg..node..Node$GT$6assign17hbfcec40280b3273eE', symObjAddr: 0xC2C, symBinAddr: 0x14484, symSize: 0x34 }
  - { offset: 0x6ECA7, size: 0x8, addend: 0x0, symName: '__ZN60_$LT$svg..node..element..Text$u20$as$u20$svg..node..Node$GT$6assign17hf1fe67eee1e8b744E', symObjAddr: 0xC60, symBinAddr: 0x144B8, symSize: 0x34 }
  - { offset: 0x6ED03, size: 0x8, addend: 0x0, symName: '__ZN63_$LT$svg..node..element..Element$u20$as$u20$svg..node..Node$GT$6append17h2d0627bd2cc90404E', symObjAddr: 0xC94, symBinAddr: 0x144EC, symSize: 0x58 }
  - { offset: 0x6ED43, size: 0x8, addend: 0x0, symName: '__ZN63_$LT$svg..node..element..Element$u20$as$u20$svg..node..Node$GT$6append17h3ae23e434b90c044E', symObjAddr: 0xCEC, symBinAddr: 0x14544, symSize: 0x58 }
  - { offset: 0x6ED83, size: 0x8, addend: 0x0, symName: '__ZN63_$LT$svg..node..element..Element$u20$as$u20$svg..node..Node$GT$6append17h62e33d95d851b711E', symObjAddr: 0xD44, symBinAddr: 0x1459C, symSize: 0x58 }
  - { offset: 0x6EDC3, size: 0x8, addend: 0x0, symName: '__ZN63_$LT$svg..node..element..Element$u20$as$u20$svg..node..Node$GT$6append17hbb7d0a3f0b9bda3fE', symObjAddr: 0xD9C, symBinAddr: 0x145F4, symSize: 0x58 }
  - { offset: 0x6EE03, size: 0x8, addend: 0x0, symName: '__ZN63_$LT$svg..node..element..Element$u20$as$u20$svg..node..Node$GT$6assign17h379f9a439cdcc4d2E', symObjAddr: 0xDF4, symBinAddr: 0x1464C, symSize: 0x10C }
  - { offset: 0x6EE59, size: 0x8, addend: 0x0, symName: '__ZN63_$LT$svg..node..element..Element$u20$as$u20$svg..node..Node$GT$6assign17h4abe813276e86cceE', symObjAddr: 0xF00, symBinAddr: 0x14758, symSize: 0x124 }
  - { offset: 0x6EEB0, size: 0x8, addend: 0x0, symName: '__ZN63_$LT$svg..node..element..Element$u20$as$u20$svg..node..Node$GT$6assign17h4f83b8924ff4917fE', symObjAddr: 0x1024, symBinAddr: 0x1487C, symSize: 0x118 }
  - { offset: 0x6EF06, size: 0x8, addend: 0x0, symName: '__ZN63_$LT$svg..node..element..Element$u20$as$u20$svg..node..Node$GT$6assign17hd22693fa982898feE', symObjAddr: 0x113C, symBinAddr: 0x14994, symSize: 0x10C }
  - { offset: 0x6EF62, size: 0x8, addend: 0x0, symName: '__ZN65_$LT$svg..node..element..Rectangle$u20$as$u20$svg..node..Node$GT$6assign17h158666ab40dd555bE', symObjAddr: 0x1248, symBinAddr: 0x14AA0, symSize: 0x34 }
  - { offset: 0x6EFB8, size: 0x8, addend: 0x0, symName: '__ZN65_$LT$svg..node..element..Rectangle$u20$as$u20$svg..node..Node$GT$6assign17h2a1dd970fc944a11E', symObjAddr: 0x127C, symBinAddr: 0x14AD4, symSize: 0x3C }
  - { offset: 0x6F030, size: 0x8, addend: 0x0, symName: __ZN3svg4node4Node11is_bareable17h11f74c3e53a56129E, symObjAddr: 0x0, symBinAddr: 0x13858, symSize: 0x18 }
  - { offset: 0x6F065, size: 0x8, addend: 0x0, symName: __ZN3svg4node4Node11is_bareable17h69230b17197014a5E, symObjAddr: 0x18, symBinAddr: 0x13870, symSize: 0x18 }
  - { offset: 0x6F09A, size: 0x8, addend: 0x0, symName: __ZN3svg4node4Node7is_bare17h16e13256268cdf85E, symObjAddr: 0x30, symBinAddr: 0x13888, symSize: 0x18 }
  - { offset: 0x6F0CF, size: 0x8, addend: 0x0, symName: __ZN3svg4node4Node7is_bare17h7b44afd98f8afb72E, symObjAddr: 0x48, symBinAddr: 0x138A0, symSize: 0x18 }
  - { offset: 0x6F104, size: 0x8, addend: 0x0, symName: __ZN3svg4node4Node7is_bare17hc1c73d35bbc5387fE, symObjAddr: 0x60, symBinAddr: 0x138B8, symSize: 0x18 }
  - { offset: 0x6F13F, size: 0x8, addend: 0x0, symName: '__ZN42_$LT$T$u20$as$u20$svg..node..NodeClone$GT$5clone17h16f0475a419db584E', symObjAddr: 0x788, symBinAddr: 0x13FE0, symSize: 0x88 }
  - { offset: 0x6F191, size: 0x8, addend: 0x0, symName: '__ZN42_$LT$T$u20$as$u20$svg..node..NodeClone$GT$5clone17h3e8c21458d0f70cdE', symObjAddr: 0x810, symBinAddr: 0x14068, symSize: 0x88 }
  - { offset: 0x6F1E3, size: 0x8, addend: 0x0, symName: '__ZN42_$LT$T$u20$as$u20$svg..node..NodeClone$GT$5clone17h8a8fd6f33a58d1aaE', symObjAddr: 0x898, symBinAddr: 0x140F0, symSize: 0x88 }
  - { offset: 0x6F287, size: 0x8, addend: 0x0, symName: '__ZN45_$LT$T$u20$as$u20$alloc..string..ToString$GT$9to_string17h36ee4015fa9e197bE', symObjAddr: 0x920, symBinAddr: 0x14178, symSize: 0x24 }
  - { offset: 0x6F2C4, size: 0x8, addend: 0x0, symName: '__ZN49_$LT$T$u20$as$u20$alloc..string..SpecToString$GT$14spec_to_string17hacf332d02b1775a9E', symObjAddr: 0x944, symBinAddr: 0x1419C, symSize: 0xF4 }
  - { offset: 0x6F705, size: 0x8, addend: 0x0, symName: '__ZN42_$LT$$RF$T$u20$as$u20$core..fmt..Debug$GT$3fmt17h8b8dd97039d7d512E', symObjAddr: 0x758, symBinAddr: 0x13FB0, symSize: 0x30 }
  - { offset: 0x6F7D8, size: 0x8, addend: 0x0, symName: '__ZN50_$LT$T$u20$as$u20$core..convert..Into$LT$U$GT$$GT$4into17h008295c4d798ef27E', symObjAddr: 0xA38, symBinAddr: 0x14290, symSize: 0x14 }
  - { offset: 0x6F819, size: 0x8, addend: 0x0, symName: '__ZN50_$LT$T$u20$as$u20$core..convert..Into$LT$U$GT$$GT$4into17h7bf278579cc37b35E', symObjAddr: 0xA4C, symBinAddr: 0x142A4, symSize: 0x14 }
  - { offset: 0x6F85A, size: 0x8, addend: 0x0, symName: '__ZN50_$LT$T$u20$as$u20$core..convert..Into$LT$U$GT$$GT$4into17hc7500e71d198a563E', symObjAddr: 0xA60, symBinAddr: 0x142B8, symSize: 0x14 }
  - { offset: 0x6FAE9, size: 0x8, addend: 0x0, symName: __ZN3svg4node7element3SVG3add17h092e0b9e729bb9c2E, symObjAddr: 0x78, symBinAddr: 0x138D0, symSize: 0x64 }
  - { offset: 0x6FB24, size: 0x8, addend: 0x0, symName: __ZN3svg4node7element3SVG3add17ha7e5759a735b83a9E, symObjAddr: 0xDC, symBinAddr: 0x13934, symSize: 0x64 }
  - { offset: 0x6FB5F, size: 0x8, addend: 0x0, symName: __ZN3svg4node7element3SVG3add17he17c7ff2d1f2dc9dE, symObjAddr: 0x140, symBinAddr: 0x13998, symSize: 0x64 }
  - { offset: 0x6FBC1, size: 0x8, addend: 0x0, symName: __ZN3svg4node7element3SVG3set17hb96fc6541556b0a2E, symObjAddr: 0x1A4, symBinAddr: 0x139FC, symSize: 0x7C }
  - { offset: 0x6FC12, size: 0x8, addend: 0x0, symName: __ZN3svg4node7element3SVG3set17hdd6e9e49dd175577E, symObjAddr: 0x220, symBinAddr: 0x13A78, symSize: 0x74 }
  - { offset: 0x6FC63, size: 0x8, addend: 0x0, symName: __ZN3svg4node7element4Path3set17h600b13ab51996085E, symObjAddr: 0x294, symBinAddr: 0x13AEC, symSize: 0x7C }
  - { offset: 0x6FCBB, size: 0x8, addend: 0x0, symName: __ZN3svg4node7element4Path3set17hd55b2ecf083719ecE, symObjAddr: 0x310, symBinAddr: 0x13B68, symSize: 0x70 }
  - { offset: 0x6FD14, size: 0x8, addend: 0x0, symName: __ZN3svg4node7element4Path3set17hebd8616098cc5217E, symObjAddr: 0x380, symBinAddr: 0x13BD8, symSize: 0x74 }
  - { offset: 0x6FD72, size: 0x8, addend: 0x0, symName: __ZN3svg4node7element4Text3new17h2e4a1fb331f9ce3cE, symObjAddr: 0x3F4, symBinAddr: 0x13C4C, symSize: 0x110 }
  - { offset: 0x6FDDC, size: 0x8, addend: 0x0, symName: __ZN3svg4node7element4Text3set17h5b44e4fd41b46f9bE, symObjAddr: 0x504, symBinAddr: 0x13D5C, symSize: 0x74 }
  - { offset: 0x6FE2D, size: 0x8, addend: 0x0, symName: __ZN3svg4node7element4Text3set17h87c9adbe42bacc55E, symObjAddr: 0x578, symBinAddr: 0x13DD0, symSize: 0x74 }
  - { offset: 0x6FE7E, size: 0x8, addend: 0x0, symName: __ZN3svg4node7element4Text3set17hfd298c82cc7a7f56E, symObjAddr: 0x5EC, symBinAddr: 0x13E44, symSize: 0x7C }
  - { offset: 0x6FECF, size: 0x8, addend: 0x0, symName: __ZN3svg4node7element9Rectangle3set17h69536a27386bb171E, symObjAddr: 0x668, symBinAddr: 0x13EC0, symSize: 0x7C }
  - { offset: 0x6FF20, size: 0x8, addend: 0x0, symName: __ZN3svg4node7element9Rectangle3set17hc5c1588ebefeaa63E, symObjAddr: 0x6E4, symBinAddr: 0x13F3C, symSize: 0x74 }
  - { offset: 0x700DD, size: 0x8, addend: 0x0, symName: '__ZN3svg4node97_$LT$impl$u20$core..clone..Clone$u20$for$u20$alloc..boxed..Box$LT$dyn$u20$svg..node..Node$GT$$GT$5clone17h86bfb5dafb3d3004E', symObjAddr: 0x0, symBinAddr: 0x14B10, symSize: 0x34 }
  - { offset: 0x700F9, size: 0x8, addend: 0x0, symName: '__ZN3svg4node97_$LT$impl$u20$core..clone..Clone$u20$for$u20$alloc..boxed..Box$LT$dyn$u20$svg..node..Node$GT$$GT$5clone17h86bfb5dafb3d3004E', symObjAddr: 0x0, symBinAddr: 0x14B10, symSize: 0x34 }
  - { offset: 0x701A9, size: 0x8, addend: 0x0, symName: '__ZN83_$LT$hashbrown..map..HashMap$LT$K$C$V$C$S$C$A$GT$$u20$as$u20$core..clone..Clone$GT$5clone17h6eec4a4ed28bdb88E', symObjAddr: 0x0, symBinAddr: 0x14B44, symSize: 0x84 }
  - { offset: 0x701C5, size: 0x8, addend: 0x0, symName: '__ZN83_$LT$hashbrown..map..HashMap$LT$K$C$V$C$S$C$A$GT$$u20$as$u20$core..clone..Clone$GT$5clone17h6eec4a4ed28bdb88E', symObjAddr: 0x0, symBinAddr: 0x14B44, symSize: 0x84 }
  - { offset: 0x7021B, size: 0x8, addend: 0x0, symName: '__ZN9hashbrown3map14equivalent_key28_$u7b$$u7b$closure$u7d$$u7d$17h72f145a6a411d2cfE', symObjAddr: 0x84, symBinAddr: 0x14BC8, symSize: 0x3C }
  - { offset: 0x70966, size: 0x8, addend: 0x0, symName: '__ZN9hashbrown3map28HashMap$LT$K$C$V$C$S$C$A$GT$9get_inner17h678ae7438428901bE', symObjAddr: 0xC0, symBinAddr: 0x14C04, symSize: 0x110 }
  - { offset: 0x70C28, size: 0x8, addend: 0x0, symName: '__ZN45_$LT$T$u20$as$u20$alloc..string..ToString$GT$9to_string17h7dad26133be51b87E', symObjAddr: 0xF84, symBinAddr: 0x15B5C, symSize: 0x24 }
  - { offset: 0x70C5F, size: 0x8, addend: 0x0, symName: '__ZN45_$LT$T$u20$as$u20$alloc..string..ToString$GT$9to_string17he5ede2969f5353deE', symObjAddr: 0xFA8, symBinAddr: 0x15B80, symSize: 0x24 }
  - { offset: 0x70C9C, size: 0x8, addend: 0x0, symName: '__ZN49_$LT$T$u20$as$u20$alloc..string..SpecToString$GT$14spec_to_string17h2585713d86151897E', symObjAddr: 0xFCC, symBinAddr: 0x15BA4, symSize: 0xF4 }
  - { offset: 0x70D6C, size: 0x8, addend: 0x0, symName: '__ZN58_$LT$alloc..string..String$u20$as$u20$core..fmt..Write$GT$10write_char17hf3046e51e460436dE', symObjAddr: 0x3FE0, symBinAddr: 0x17A48, symSize: 0x38 }
  - { offset: 0x70DA9, size: 0x8, addend: 0x0, symName: '__ZN58_$LT$alloc..string..String$u20$as$u20$core..fmt..Write$GT$9write_str17h60f755147386ffe8E', symObjAddr: 0x4018, symBinAddr: 0x17A80, symSize: 0x40 }
  - { offset: 0x70E28, size: 0x8, addend: 0x0, symName: '__ZN65_$LT$alloc..string..String$u20$as$u20$core..ops..deref..Deref$GT$5deref17h1a708ca0f04ec8a4E', symObjAddr: 0x44B8, symBinAddr: 0x17F00, symSize: 0x24 }
  - { offset: 0x70E7A, size: 0x8, addend: 0x0, symName: '__ZN58_$LT$alloc..string..String$u20$as$u20$core..hash..Hash$GT$4hash17h5228d325e397542dE', symObjAddr: 0x4058, symBinAddr: 0x17AC0, symSize: 0x90 }
  - { offset: 0x71028, size: 0x8, addend: 0x0, symName: '__ZN60_$LT$alloc..string..String$u20$as$u20$core..fmt..Display$GT$3fmt17h04fb09bb5d910a3eE', symObjAddr: 0x4404, symBinAddr: 0x17E4C, symSize: 0x88 }
  - { offset: 0x7118D, size: 0x8, addend: 0x0, symName: '__ZN62_$LT$alloc..string..String$u20$as$u20$core..cmp..PartialEq$GT$2eq17hbbebe0bce9f19871E', symObjAddr: 0x448C, symBinAddr: 0x17ED4, symSize: 0x2C }
  - { offset: 0x711EE, size: 0x8, addend: 0x0, symName: '__ZN76_$LT$alloc..string..String$u20$as$u20$core..convert..From$LT$$RF$str$GT$$GT$4from17hc3adcafdc513e01bE', symObjAddr: 0x4928, symBinAddr: 0x18244, symSize: 0x50 }
  - { offset: 0x712DB, size: 0x8, addend: 0x0, symName: '__ZN69_$LT$alloc..string..String$u20$as$u20$alloc..string..SpecToString$GT$14spec_to_string17h0d1d9524ddc9d3a5E', symObjAddr: 0x44E8, symBinAddr: 0x17F30, symSize: 0xA8 }
  - { offset: 0x71547, size: 0x8, addend: 0x0, symName: '__ZN74_$LT$alloc..string..String$u20$as$u20$core..ops..index..Index$LT$I$GT$$GT$5index17h5a8ed56c5c34b18dE', symObjAddr: 0x46B4, symBinAddr: 0x18060, symSize: 0x84 }
  - { offset: 0x719CF, size: 0x8, addend: 0x0, symName: '__ZN5alloc5slice29_$LT$impl$u20$$u5b$T$u5d$$GT$11sort_by_key17h36aa9f0962192d32E', symObjAddr: 0x4164, symBinAddr: 0x17BCC, symSize: 0x48 }
  - { offset: 0x71A20, size: 0x8, addend: 0x0, symName: '__ZN5alloc5slice29_$LT$impl$u20$$u5b$T$u5d$$GT$4join17hcf84fea470225c67E', symObjAddr: 0x41AC, symBinAddr: 0x17C14, symSize: 0x34 }
  - { offset: 0x71B97, size: 0x8, addend: 0x0, symName: '__ZN5alloc3str75_$LT$impl$u20$alloc..slice..Join$LT$$RF$str$GT$$u20$for$u20$$u5b$S$u5d$$GT$4join17h2017a42a3bfc8498E', symObjAddr: 0x40E8, symBinAddr: 0x17B50, symSize: 0x50 }
  - { offset: 0x71BFD, size: 0x8, addend: 0x0, symName: '__ZN5alloc3str83_$LT$impl$u20$core..borrow..Borrow$LT$str$GT$$u20$for$u20$alloc..string..String$GT$6borrow17h28c395d631fb9ad7E', symObjAddr: 0x4138, symBinAddr: 0x17BA0, symSize: 0x2C }
  - { offset: 0x72B15, size: 0x8, addend: 0x0, symName: '__ZN4core5slice29_$LT$impl$u20$$u5b$T$u5d$$GT$22split_at_mut_unchecked17h66e237666dceac22E', symObjAddr: 0x2154, symBinAddr: 0x160B4, symSize: 0x100 }
  - { offset: 0x72CB5, size: 0x8, addend: 0x0, symName: '__ZN4core5slice29_$LT$impl$u20$$u5b$T$u5d$$GT$7reverse17h7d86ecda1dbda2b3E', symObjAddr: 0x2254, symBinAddr: 0x161B4, symSize: 0x114 }
  - { offset: 0x730E7, size: 0x8, addend: 0x0, symName: __ZN4core5slice4sort6shared9smallsort11insert_tail17h426d10e14df4cb24E, symObjAddr: 0x2368, symBinAddr: 0x162C8, symSize: 0x1C0 }
  - { offset: 0x73242, size: 0x8, addend: 0x0, symName: __ZN4core5slice4sort6shared9smallsort12sort4_stable17ha0fd3048e8580f17E, symObjAddr: 0x2528, symBinAddr: 0x16488, symSize: 0x7B8 }
  - { offset: 0x74527, size: 0x8, addend: 0x0, symName: __ZN4core5slice4sort6shared9smallsort12sort8_stable17h0e4d9dd52587e5c6E, symObjAddr: 0x2CE0, symBinAddr: 0x16C40, symSize: 0x94 }
  - { offset: 0x746D6, size: 0x8, addend: 0x0, symName: __ZN4core5slice4sort6shared9smallsort19bidirectional_merge17hdd15347927a358baE, symObjAddr: 0x2D74, symBinAddr: 0x16CD4, symSize: 0x56C }
  - { offset: 0x74D9E, size: 0x8, addend: 0x0, symName: __ZN4core5slice4sort6shared9smallsort25insertion_sort_shift_left17hae60b1ba5cbbe2eeE, symObjAddr: 0x32E0, symBinAddr: 0x17240, symSize: 0xC4 }
  - { offset: 0x74ED8, size: 0x8, addend: 0x0, symName: __ZN4core5slice4sort6shared9smallsort31small_sort_general_with_scratch17he669c6d3bfa524ddE, symObjAddr: 0x33A4, symBinAddr: 0x17304, symSize: 0x52C }
  - { offset: 0x753B9, size: 0x8, addend: 0x0, symName: '__ZN99_$LT$core..slice..sort..shared..smallsort..CopyOnDrop$LT$T$GT$$u20$as$u20$core..ops..drop..Drop$GT$4drop17h146c8d1a470344caE', symObjAddr: 0x56F4, symBinAddr: 0x18680, symSize: 0x88 }
  - { offset: 0x75462, size: 0x8, addend: 0x0, symName: '__ZN68_$LT$T$u20$as$u20$core..slice..sort..stable..quicksort..IsFreeze$GT$9is_freeze17hc8b1b82cd22c874bE', symObjAddr: 0x44DC, symBinAddr: 0x17F24, symSize: 0xC }
  - { offset: 0x75497, size: 0x8, addend: 0x0, symName: '__ZN73_$LT$$u5b$A$u5d$$u20$as$u20$core..slice..cmp..SlicePartialEq$LT$B$GT$$GT$5equal17h004b2d66beb11572E', symObjAddr: 0x4590, symBinAddr: 0x17FD8, symSize: 0x88 }
  - { offset: 0x755B5, size: 0x8, addend: 0x0, symName: '__ZN52_$LT$char$u20$as$u20$core..str..pattern..Pattern$GT$13into_searcher17h96dbc388ee4edd49E', symObjAddr: 0x3B24, symBinAddr: 0x178C0, symSize: 0x114 }
  - { offset: 0x756CD, size: 0x8, addend: 0x0, symName: '__ZN52_$LT$char$u20$as$u20$core..str..pattern..Pattern$GT$15as_utf8_pattern17hf7f56ad3a5e21f82E', symObjAddr: 0x3C38, symBinAddr: 0x179D4, symSize: 0x34 }
  - { offset: 0x75768, size: 0x8, addend: 0x0, symName: '__ZN81_$LT$core..str..pattern..CharSearcher$u20$as$u20$core..str..pattern..Searcher$GT$10next_match17h4a9fac36696f3637E', symObjAddr: 0x4F14, symBinAddr: 0x18294, symSize: 0x3BC }
  - { offset: 0x75C8B, size: 0x8, addend: 0x0, symName: '__ZN81_$LT$core..str..pattern..CharSearcher$u20$as$u20$core..str..pattern..Searcher$GT$8haystack17hc48dfdc803f955a7E', symObjAddr: 0x52D0, symBinAddr: 0x18650, symSize: 0x20 }
  - { offset: 0x75E3C, size: 0x8, addend: 0x0, symName: __ZN4core4hint16assert_unchecked18precondition_check17h5a41ee0d3ce4823fE, symObjAddr: 0x202C, symBinAddr: 0x16010, symSize: 0xA4 }
  - { offset: 0x75F6E, size: 0x8, addend: 0x0, symName: '__ZN44_$LT$$RF$T$u20$as$u20$core..fmt..Display$GT$3fmt17he295d9f9e2ea0af4E', symObjAddr: 0xF54, symBinAddr: 0x15B2C, symSize: 0x30 }
  - { offset: 0x7627B, size: 0x8, addend: 0x0, symName: __ZN4core3fmt5Write9write_fmt17hcedf1ed4385dc569E, symObjAddr: 0x1254, symBinAddr: 0x15DD8, symSize: 0x24 }
  - { offset: 0x762C9, size: 0x8, addend: 0x0, symName: '__ZN75_$LT$$RF$mut$u20$W$u20$as$u20$core..fmt..Write..write_fmt..SpecWriteFmt$GT$14spec_write_fmt17h5a1d9ebd416b41eeE', symObjAddr: 0x47C8, symBinAddr: 0x180E4, symSize: 0x160 }
  - { offset: 0x76386, size: 0x8, addend: 0x0, symName: '__ZN53_$LT$core..fmt..Error$u20$as$u20$core..fmt..Debug$GT$3fmt17h470bbed71320c9aeE', symObjAddr: 0x3D44, symBinAddr: 0x17A08, symSize: 0x40 }
  - { offset: 0x76A52, size: 0x8, addend: 0x0, symName: '__ZN4core4hash5impls50_$LT$impl$u20$core..hash..Hash$u20$for$u20$str$GT$4hash17h4ed898b7d44a6580E', symObjAddr: 0x1FB4, symBinAddr: 0x15F98, symSize: 0x48 }
  - { offset: 0x76AC9, size: 0x8, addend: 0x0, symName: '__ZN4core4hash5impls52_$LT$impl$u20$core..hash..Hash$u20$for$u20$$RF$T$GT$4hash17h77c3ae1d9a9f8d90E', symObjAddr: 0x1FFC, symBinAddr: 0x15FE0, symSize: 0x30 }
  - { offset: 0x76EA3, size: 0x8, addend: 0x0, symName: '__ZN82_$LT$core..array..iter..IntoIter$LT$T$C$_$GT$$u20$as$u20$core..ops..drop..Drop$GT$4drop17h9838d35306d59868E', symObjAddr: 0x52F0, symBinAddr: 0x18670, symSize: 0x10 }
  - { offset: 0x76F26, size: 0x8, addend: 0x0, symName: '__ZN50_$LT$T$u20$as$u20$core..convert..Into$LT$U$GT$$GT$4into17hb0202d60e8858495E', symObjAddr: 0x3A1C, symBinAddr: 0x17830, symSize: 0x14 }
  - { offset: 0x76F67, size: 0x8, addend: 0x0, symName: '__ZN50_$LT$T$u20$as$u20$core..convert..Into$LT$U$GT$$GT$4into17hd108225c1870f980E', symObjAddr: 0x3A30, symBinAddr: 0x17844, symSize: 0x18 }
  - { offset: 0x770A8, size: 0x8, addend: 0x0, symName: '__ZN51_$LT$T$u20$as$u20$core..borrow..Borrow$LT$T$GT$$GT$6borrow17h49d778f8e3eedbbaE', symObjAddr: 0x3A48, symBinAddr: 0x1785C, symSize: 0x14 }
  - { offset: 0x771C2, size: 0x8, addend: 0x0, symName: '__ZN3svg4node7element4path10parameters127_$LT$impl$u20$core..convert..From$LT$svg..node..element..path..parameters..Parameters$GT$$u20$for$u20$alloc..string..String$GT$4from17h9bf2c866d5b3cf4cE', symObjAddr: 0x15C, symBinAddr: 0x14D34, symSize: 0x118 }
  - { offset: 0x77221, size: 0x8, addend: 0x0, symName: '__ZN3svg4node7element4path7command121_$LT$impl$u20$core..convert..From$LT$svg..node..element..path..command..Command$GT$$u20$for$u20$alloc..string..String$GT$4from17h509097a62d6a6168E', symObjAddr: 0x274, symBinAddr: 0x14E4C, symSize: 0xCE0 }
  - { offset: 0x77C4F, size: 0x8, addend: 0x0, symName: '__ZN4core3fmt2rt38_$LT$impl$u20$core..fmt..Arguments$GT$6new_v117h7b9e68a1e4d20cefE', symObjAddr: 0x1114, symBinAddr: 0x15C98, symSize: 0x54 }
  - { offset: 0x77CB3, size: 0x8, addend: 0x0, symName: '__ZN4core3fmt2rt38_$LT$impl$u20$core..fmt..Arguments$GT$6new_v117h931a5ceeb327d7b5E', symObjAddr: 0x1168, symBinAddr: 0x15CEC, symSize: 0x50 }
  - { offset: 0x77CFD, size: 0x8, addend: 0x0, symName: '__ZN4core3fmt2rt38_$LT$impl$u20$core..fmt..Arguments$GT$6new_v117hfda0bccd0d9537adE', symObjAddr: 0x11B8, symBinAddr: 0x15D3C, symSize: 0x54 }
  - { offset: 0x77D2D, size: 0x8, addend: 0x0, symName: '__ZN4core3fmt2rt38_$LT$impl$u20$core..fmt..Arguments$GT$9new_const17h4b7344a00b6c3f78E', symObjAddr: 0x120C, symBinAddr: 0x15D90, symSize: 0x48 }
  - { offset: 0x77D63, size: 0x8, addend: 0x0, symName: __ZN4core3fmt9Formatter9alternate17h929da66f9fb208a0E, symObjAddr: 0x1278, symBinAddr: 0x15DFC, symSize: 0x20 }
  - { offset: 0x77DE4, size: 0x8, addend: 0x0, symName: __ZN4core3fmt9Formatter9write_fmt17h2962af77b99cf2feE, symObjAddr: 0x1298, symBinAddr: 0x15E1C, symSize: 0x17C }
  - { offset: 0x7812B, size: 0x8, addend: 0x0, symName: '__ZN52_$LT$Q$u20$as$u20$hashbrown..Equivalent$LT$K$GT$$GT$10equivalent17heb4b762b2f8550beE', symObjAddr: 0x3A5C, symBinAddr: 0x17870, symSize: 0x50 }
  - { offset: 0x785A6, size: 0x8, addend: 0x0, symName: __ZN5alloc6string6String4push17h21dc03ccdfdb4042E, symObjAddr: 0x41E0, symBinAddr: 0x17C48, symSize: 0x13C }
  - { offset: 0x78868, size: 0x8, addend: 0x0, symName: __ZN5alloc6string6String6as_str17h097bb16d36c202f7E, symObjAddr: 0x431C, symBinAddr: 0x17D84, symSize: 0x78 }
  - { offset: 0x78A29, size: 0x8, addend: 0x0, symName: __ZN5alloc6string6String8push_str17h2b8a6711397b2cedE, symObjAddr: 0x43B4, symBinAddr: 0x17DFC, symSize: 0x50 }
  - { offset: 0x78E24, size: 0x8, addend: 0x0, symName: __ZN9hashbrown7control5group4neon5Group10match_full17h0c9cd840ac19fa97E, symObjAddr: 0x57A0, symBinAddr: 0x18708, symSize: 0x68 }
  - { offset: 0x78E5C, size: 0x8, addend: 0x0, symName: __ZN9hashbrown7control5group4neon5Group22match_empty_or_deleted17h2bc6c913cd052b64E, symObjAddr: 0x5808, symBinAddr: 0x18770, symSize: 0x68 }
  - { offset: 0x78E94, size: 0x8, addend: 0x0, symName: __ZN9hashbrown7control5group4neon5Group44convert_special_to_empty_and_full_to_deleted17h755d3ad07487118bE, symObjAddr: 0x5870, symBinAddr: 0x187D8, symSize: 0x88 }
  - { offset: 0x78ECC, size: 0x8, addend: 0x0, symName: __ZN9hashbrown7control5group4neon5Group9match_tag17hc41c54e9e8a82474E, symObjAddr: 0x58F8, symBinAddr: 0x18860, symSize: 0x7C }
  - { offset: 0x78FDF, size: 0x8, addend: 0x0, symName: '__ZN79_$LT$hashbrown..raw..RawTable$LT$T$C$A$GT$$u20$as$u20$core..ops..drop..Drop$GT$4drop17hae14fd4d8272aa32E', symObjAddr: 0x0, symBinAddr: 0x188DC, symSize: 0x3C }
  - { offset: 0x7901B, size: 0x8, addend: 0x0, symName: '__ZN9hashbrown3raw21RawTable$LT$T$C$A$GT$14reserve_rehash28_$u7b$$u7b$closure$u7d$$u7d$17hc523d00cbf312d5cE', symObjAddr: 0x29A4, symBinAddr: 0x1AAA4, symSize: 0xC8 }
  - { offset: 0x791E0, size: 0x8, addend: 0x0, symName: '__ZN9hashbrown3raw21RawTable$LT$T$C$A$GT$14reserve_rehash28_$u7b$$u7b$closure$u7d$$u7d$17hdafce191b4c104f3E', symObjAddr: 0x2A6C, symBinAddr: 0x1AB6C, symSize: 0x30 }
  - { offset: 0x7923D, size: 0x8, addend: 0x0, symName: '__ZN9hashbrown3raw21RawTable$LT$T$C$A$GT$24find_or_find_insert_slot28_$u7b$$u7b$closure$u7d$$u7d$17he9b2d024c1c2c682E', symObjAddr: 0x2BDC, symBinAddr: 0x1ACDC, symSize: 0xCC }
  - { offset: 0x79A44, size: 0x8, addend: 0x0, symName: '__ZN79_$LT$hashbrown..raw..RawTable$LT$T$C$A$GT$$u20$as$u20$core..ops..drop..Drop$GT$4drop17hae14fd4d8272aa32E', symObjAddr: 0x0, symBinAddr: 0x188DC, symSize: 0x3C }
  - { offset: 0x79CD1, size: 0x8, addend: 0x0, symName: '__ZN9hashbrown3raw13RawTableInner14prepare_resize28_$u7b$$u7b$closure$u7d$$u7d$17hba5b4b2f4e425e79E', symObjAddr: 0x3D4, symBinAddr: 0x18CB0, symSize: 0xBC }
  - { offset: 0x79EB7, size: 0x8, addend: 0x0, symName: '__ZN9hashbrown3raw13RawTableInner15rehash_in_place28_$u7b$$u7b$closure$u7d$$u7d$17h90fef4326a652435E', symObjAddr: 0xA60, symBinAddr: 0x1933C, symSize: 0x22C }
  - { offset: 0x7A2E5, size: 0x8, addend: 0x0, symName: __ZN9hashbrown3raw19capacity_to_buckets17h9b54b684c108f6fbE, symObjAddr: 0x195C, symBinAddr: 0x1A238, symSize: 0x218 }
  - { offset: 0x7D8D2, size: 0x8, addend: 0x0, symName: __ZN9hashbrown3raw11TableLayout20calculate_layout_for17h09bb049df5c8e93dE, symObjAddr: 0x3C, symBinAddr: 0x18918, symSize: 0x220 }
  - { offset: 0x7DCF5, size: 0x8, addend: 0x0, symName: __ZN9hashbrown3raw13RawTableInner13drop_elements17h5b947a3d63e09471E, symObjAddr: 0x25C, symBinAddr: 0x18B38, symSize: 0x178 }
  - { offset: 0x7E33D, size: 0x8, addend: 0x0, symName: __ZN9hashbrown3raw13RawTableInner15fix_insert_slot17hd64fdf9609a85513E, symObjAddr: 0x490, symBinAddr: 0x18D6C, symSize: 0x124 }
  - { offset: 0x7E71F, size: 0x8, addend: 0x0, symName: __ZN9hashbrown3raw13RawTableInner15rehash_in_place17h0e0781b55aa14b4cE, symObjAddr: 0x5B4, symBinAddr: 0x18E90, symSize: 0x4AC }
  - { offset: 0x7F019, size: 0x8, addend: 0x0, symName: __ZN9hashbrown3raw13RawTableInner16drop_inner_table17he3fb0e480dc66e31E, symObjAddr: 0xC8C, symBinAddr: 0x19568, symSize: 0xBC }
  - { offset: 0x7F288, size: 0x8, addend: 0x0, symName: __ZN9hashbrown3raw13RawTableInner16find_insert_slot17h56e2aeb0fcaad7c2E, symObjAddr: 0xD48, symBinAddr: 0x19624, symSize: 0x10C }
  - { offset: 0x7F47A, size: 0x8, addend: 0x0, symName: __ZN9hashbrown3raw13RawTableInner17new_uninitialized17he9558d94092c77eaE, symObjAddr: 0xE54, symBinAddr: 0x19730, symSize: 0x1B0 }
  - { offset: 0x7F6AC, size: 0x8, addend: 0x0, symName: __ZN9hashbrown3raw13RawTableInner19prepare_insert_slot17h7e94d27f636595bfE, symObjAddr: 0x1004, symBinAddr: 0x198E0, symSize: 0x74 }
  - { offset: 0x7F896, size: 0x8, addend: 0x0, symName: __ZN9hashbrown3raw13RawTableInner22fallible_with_capacity17h3bfa19589e06d2ddE, symObjAddr: 0x1078, symBinAddr: 0x19954, symSize: 0x27C }
  - { offset: 0x7FD87, size: 0x8, addend: 0x0, symName: __ZN9hashbrown3raw13RawTableInner23prepare_rehash_in_place17h26ee42e1e9b93245E, symObjAddr: 0x12F4, symBinAddr: 0x19BD0, symSize: 0x254 }
  - { offset: 0x804A7, size: 0x8, addend: 0x0, symName: __ZN9hashbrown3raw13RawTableInner25find_insert_slot_in_group17ha7b8a4a4ca60696fE, symObjAddr: 0x1548, symBinAddr: 0x19E24, symSize: 0x15C }
  - { offset: 0x8079E, size: 0x8, addend: 0x0, symName: __ZN9hashbrown3raw13RawTableInner30find_or_find_insert_slot_inner17h09c9f16d13cc3e7fE, symObjAddr: 0x16A4, symBinAddr: 0x19F80, symSize: 0x2B8 }
  - { offset: 0x80B9F, size: 0x8, addend: 0x0, symName: '__ZN9hashbrown3raw21RawIterRange$LT$T$GT$3new17hdbcfc27b56e3a487E', symObjAddr: 0x1B74, symBinAddr: 0x1A450, symSize: 0xC0 }
  - { offset: 0x80F4B, size: 0x8, addend: 0x0, symName: '__ZN9hashbrown3raw21RawIterRange$LT$T$GT$9fold_impl17h3c1600851ceb957aE', symObjAddr: 0x1C34, symBinAddr: 0x1A510, symSize: 0x264 }
  - { offset: 0x81438, size: 0x8, addend: 0x0, symName: '__ZN9hashbrown3raw21RawIterRange$LT$T$GT$9next_impl17h2bae0cb39edd3234E', symObjAddr: 0x1E98, symBinAddr: 0x1A774, symSize: 0x1E8 }
  - { offset: 0x81971, size: 0x8, addend: 0x0, symName: '__ZN9hashbrown3raw21RawTable$LT$T$C$A$GT$14insert_in_slot17h3a53040b5f7ff925E', symObjAddr: 0x2080, symBinAddr: 0x1A95C, symSize: 0x148 }
  - { offset: 0x820EF, size: 0x8, addend: 0x0, symName: '__ZN9hashbrown3raw21RawTable$LT$T$C$A$GT$14reserve_rehash17he5f7595c0b664620E', symObjAddr: 0x21C8, symBinAddr: 0x7BA30, symSize: 0x7DC }
  - { offset: 0x82C70, size: 0x8, addend: 0x0, symName: '__ZN9hashbrown3raw21RawTable$LT$T$C$A$GT$24find_or_find_insert_slot17h742b9a555cc868d1E', symObjAddr: 0x2A9C, symBinAddr: 0x1AB9C, symSize: 0x140 }
  - { offset: 0x82FB2, size: 0x8, addend: 0x0, symName: '__ZN9hashbrown3raw21RawTable$LT$T$C$A$GT$7reserve17h7c2f48e2fb8338f4E', symObjAddr: 0x2CA8, symBinAddr: 0x1ADA8, symSize: 0xCC }
  - { offset: 0x83105, size: 0x8, addend: 0x0, symName: __ZN4core3cmp10PartialOrd2lt17ha4133524511577a4E, symObjAddr: 0x138, symBinAddr: 0x1AEA4, symSize: 0x78 }
  - { offset: 0x83203, size: 0x8, addend: 0x0, symName: __ZN4core3cmp3Ord3max17h133e1df32d1e3e2cE, symObjAddr: 0x1B0, symBinAddr: 0x1AF1C, symSize: 0x80 }
  - { offset: 0x83271, size: 0x8, addend: 0x0, symName: __ZN4core3cmp3Ord3min17ha3e136c9c97d7543E, symObjAddr: 0x230, symBinAddr: 0x1AF9C, symSize: 0x80 }
  - { offset: 0x843BB, size: 0x8, addend: 0x0, symName: '__ZN91_$LT$core..slice..iter..Iter$LT$T$GT$$u20$as$u20$core..iter..traits..iterator..Iterator$GT$4fold17h88364fb47ab56bf3E', symObjAddr: 0x2D90, symBinAddr: 0x1D4E0, symSize: 0x1B8 }
  - { offset: 0x84510, size: 0x8, addend: 0x0, symName: '__ZN91_$LT$core..slice..iter..Iter$LT$T$GT$$u20$as$u20$core..iter..traits..iterator..Iterator$GT$4fold17hfdca856b5df08b0bE', symObjAddr: 0x2F48, symBinAddr: 0x1D698, symSize: 0x1B8 }
  - { offset: 0x84665, size: 0x8, addend: 0x0, symName: '__ZN91_$LT$core..slice..iter..Iter$LT$T$GT$$u20$as$u20$core..iter..traits..iterator..Iterator$GT$4next17ha7311eb4365ffc9dE', symObjAddr: 0x3100, symBinAddr: 0x1D850, symSize: 0xA8 }
  - { offset: 0x8479F, size: 0x8, addend: 0x0, symName: '__ZN91_$LT$core..slice..iter..Iter$LT$T$GT$$u20$as$u20$core..iter..traits..iterator..Iterator$GT$4next17hb2c68e4fb5ba06e5E', symObjAddr: 0x31A8, symBinAddr: 0x1D8F8, symSize: 0xA8 }
  - { offset: 0x848D9, size: 0x8, addend: 0x0, symName: '__ZN91_$LT$core..slice..iter..Iter$LT$T$GT$$u20$as$u20$core..iter..traits..iterator..Iterator$GT$8for_each17hd588239bd07eabd8E', symObjAddr: 0x32F8, symBinAddr: 0x1D9A0, symSize: 0x84 }
  - { offset: 0x8493A, size: 0x8, addend: 0x0, symName: '__ZN91_$LT$core..slice..iter..Iter$LT$T$GT$$u20$as$u20$core..iter..traits..iterator..Iterator$GT$9size_hint17h93c13cd3431bbe74E', symObjAddr: 0x337C, symBinAddr: 0x1DA24, symSize: 0x60 }
  - { offset: 0x849A9, size: 0x8, addend: 0x0, symName: '__ZN91_$LT$core..slice..iter..Iter$LT$T$GT$$u20$as$u20$core..iter..traits..iterator..Iterator$GT$9size_hint17hc517c3a5faebd985E', symObjAddr: 0x33DC, symBinAddr: 0x1DA84, symSize: 0x60 }
  - { offset: 0x84A1F, size: 0x8, addend: 0x0, symName: '__ZN4core5slice29_$LT$impl$u20$$u5b$T$u5d$$GT$4iter17h35c730e3ed91f1e8E', symObjAddr: 0x9EC, symBinAddr: 0x1B1C8, symSize: 0x28 }
  - { offset: 0x84EB5, size: 0x8, addend: 0x0, symName: '__ZN44_$LT$$RF$T$u20$as$u20$core..fmt..Display$GT$3fmt17hd5591d3f6b1d2316E', symObjAddr: 0x108, symBinAddr: 0x1AE74, symSize: 0x30 }
  - { offset: 0x8592F, size: 0x8, addend: 0x0, symName: '__ZN4core3str74_$LT$impl$u20$core..convert..AsRef$LT$$u5b$u8$u5d$$GT$$u20$for$u20$str$GT$6as_ref17hbd6cb3c8a1606825E', symObjAddr: 0x840, symBinAddr: 0x1B01C, symSize: 0x18 }
  - { offset: 0x85A77, size: 0x8, addend: 0x0, symName: __ZN4core4iter6traits8iterator8Iterator3map17hea417f438a32060fE, symObjAddr: 0x858, symBinAddr: 0x1B034, symSize: 0x1C }
  - { offset: 0x85ACF, size: 0x8, addend: 0x0, symName: __ZN4core4iter6traits8iterator8Iterator8try_fold17h2b92292dadd0374aE, symObjAddr: 0x874, symBinAddr: 0x1B050, symSize: 0x178 }
  - { offset: 0x85C92, size: 0x8, addend: 0x0, symName: '__ZN63_$LT$I$u20$as$u20$core..iter..traits..collect..IntoIterator$GT$9into_iter17h82dded6f388d6bf9E', symObjAddr: 0x2C14, symBinAddr: 0x1D364, symSize: 0x1C }
  - { offset: 0x864C7, size: 0x8, addend: 0x0, symName: '__ZN95_$LT$alloc..boxed..Box$LT$dyn$u20$svg..node..Node$GT$$u20$as$u20$svg..node..NodeDefaultHash$GT$12default_hash17hf6037dad6c48d0dcE', symObjAddr: 0x343C, symBinAddr: 0x1DAE4, symSize: 0x3C }
  - { offset: 0x8676C, size: 0x8, addend: 0x0, symName: '__ZN4core5slice4iter13Iter$LT$T$GT$3new17h5e355a109a31b173E', symObjAddr: 0xA14, symBinAddr: 0x1B1F0, symSize: 0x50 }
  - { offset: 0x86985, size: 0x8, addend: 0x0, symName: '__ZN4core5slice4iter13Iter$LT$T$GT$3new17hafafd5f5b401f9c9E', symObjAddr: 0xA64, symBinAddr: 0x1B240, symSize: 0x50 }
  - { offset: 0x86A95, size: 0x8, addend: 0x0, symName: '__ZN5alloc3str13replace_ascii28_$u7b$$u7b$closure$u7d$$u7d$17hdfcacec6538f4622E', symObjAddr: 0xAB4, symBinAddr: 0x1B290, symSize: 0x60 }
  - { offset: 0x86B6F, size: 0x8, addend: 0x0, symName: '__ZN5alloc3str17join_generic_copy28_$u7b$$u7b$closure$u7d$$u7d$28_$u7b$$u7b$closure$u7d$$u7d$17h0c2632c041886946E', symObjAddr: 0x227C, symBinAddr: 0x1CA58, symSize: 0x38 }
  - { offset: 0x86BC8, size: 0x8, addend: 0x0, symName: '__ZN5alloc3str17join_generic_copy28_$u7b$$u7b$closure$u7d$$u7d$17h90d8798a6726dd31E', symObjAddr: 0x21F4, symBinAddr: 0x1C9D0, symSize: 0x88 }
  - { offset: 0x86C96, size: 0x8, addend: 0x0, symName: __ZN5alloc3str17join_generic_copy17h92dc1561fa354b88E, symObjAddr: 0xB14, symBinAddr: 0x1B2F0, symSize: 0x16E0 }
  - { offset: 0x882B2, size: 0x8, addend: 0x0, symName: '__ZN5alloc3str21_$LT$impl$u20$str$GT$7replace17ha71245e36a5128f0E', symObjAddr: 0x22B4, symBinAddr: 0x1CA90, symSize: 0x6E4 }
  - { offset: 0x88DC2, size: 0x8, addend: 0x0, symName: '__ZN5alloc3str56_$LT$impl$u20$alloc..borrow..ToOwned$u20$for$u20$str$GT$8to_owned17hbac200d9fe6dd4ccE', symObjAddr: 0x2998, symBinAddr: 0x1D174, symSize: 0x50 }
  - { offset: 0x893DF, size: 0x8, addend: 0x0, symName: '__ZN77_$LT$alloc..raw_vec..RawVec$LT$T$C$A$GT$$u20$as$u20$core..ops..drop..Drop$GT$4drop17h07d047a3227bfc6eE', symObjAddr: 0x2C6C, symBinAddr: 0x1D3BC, symSize: 0x34 }
  - { offset: 0x8941B, size: 0x8, addend: 0x0, symName: '__ZN77_$LT$alloc..raw_vec..RawVec$LT$T$C$A$GT$$u20$as$u20$core..ops..drop..Drop$GT$4drop17ha0bc1b83e3d70639E', symObjAddr: 0x2CA0, symBinAddr: 0x1D3F0, symSize: 0x34 }
  - { offset: 0x89457, size: 0x8, addend: 0x0, symName: '__ZN77_$LT$alloc..raw_vec..RawVec$LT$T$C$A$GT$$u20$as$u20$core..ops..drop..Drop$GT$4drop17hf25f5610ae515ddaE', symObjAddr: 0x2CD4, symBinAddr: 0x1D424, symSize: 0x30 }
  - { offset: 0x89493, size: 0x8, addend: 0x0, symName: '__ZN77_$LT$alloc..raw_vec..RawVec$LT$T$C$A$GT$$u20$as$u20$core..ops..drop..Drop$GT$4drop17hf74fdf8b7e56b0e4E', symObjAddr: 0x2D04, symBinAddr: 0x1D454, symSize: 0x34 }
  - { offset: 0x89653, size: 0x8, addend: 0x0, symName: '__ZN69_$LT$alloc..boxed..Box$LT$T$C$A$GT$$u20$as$u20$core..fmt..Display$GT$3fmt17hce757b5b8220b587E', symObjAddr: 0x2C30, symBinAddr: 0x1D380, symSize: 0x3C }
  - { offset: 0x8A233, size: 0x8, addend: 0x0, symName: '__ZN5alloc7raw_vec19RawVec$LT$T$C$A$GT$8grow_one17h19b991e07e5b7035E', symObjAddr: 0x29E8, symBinAddr: 0x1D1C4, symSize: 0x90 }
  - { offset: 0x8A347, size: 0x8, addend: 0x0, symName: '__ZN5alloc7raw_vec20RawVecInner$LT$A$GT$16with_capacity_in17hde0ce5f9a38f23daE', symObjAddr: 0x2B04, symBinAddr: 0x1D254, symSize: 0x110 }
  - { offset: 0x8A4A8, size: 0x8, addend: 0x0, symName: '__ZN88_$LT$hashbrown..scopeguard..ScopeGuard$LT$T$C$F$GT$$u20$as$u20$core..ops..drop..Drop$GT$4drop17h4f0cd16cc91dd40eE', symObjAddr: 0x2D38, symBinAddr: 0x1D488, symSize: 0x2C }
  - { offset: 0x8A4E2, size: 0x8, addend: 0x0, symName: '__ZN88_$LT$hashbrown..scopeguard..ScopeGuard$LT$T$C$F$GT$$u20$as$u20$core..ops..drop..Drop$GT$4drop17hc6bcb653b39d067bE', symObjAddr: 0x2D64, symBinAddr: 0x1D4B4, symSize: 0x2C }
  - { offset: 0x8A9A4, size: 0x8, addend: 0x0, symName: __ZN3svg4node7element6escape17h635ee64279667656E, symObjAddr: 0x1280, symBinAddr: 0x1DD24, symSize: 0x104 }
  - { offset: 0x8A9E3, size: 0x8, addend: 0x0, symName: '__ZN66_$LT$svg..node..element..Element$u20$as$u20$core..fmt..Display$GT$3fmt28_$u7b$$u7b$closure$u7d$$u7d$17h0348963045846367E', symObjAddr: 0x384C, symBinAddr: 0x1EF40, symSize: 0x2C }
  - { offset: 0x8AA1A, size: 0x8, addend: 0x0, symName: '__ZN66_$LT$svg..node..element..Element$u20$as$u20$core..fmt..Display$GT$3fmt17he5f9c0ed64469df5E', symObjAddr: 0x3164, symBinAddr: 0x1E858, symSize: 0x6E8 }
  - { offset: 0x8AC1C, size: 0x8, addend: 0x0, symName: '__ZN71_$LT$svg..node..element..Text$u20$as$u20$svg..node..NodeDefaultHash$GT$12default_hash17h48cb87b3a240a1f9E', symObjAddr: 0x3A74, symBinAddr: 0x1EFC0, symSize: 0x2C }
  - { offset: 0x8AC5B, size: 0x8, addend: 0x0, symName: '__ZN74_$LT$svg..node..element..Element$u20$as$u20$svg..node..NodeDefaultHash$GT$12default_hash17h3a75e420d73d5ec3E', symObjAddr: 0x3BA0, symBinAddr: 0x1EFEC, symSize: 0x68 }
  - { offset: 0x8AC99, size: 0x8, addend: 0x0, symName: '__ZN74_$LT$svg..node..element..Element$u20$as$u20$svg..node..NodeDefaultHash$GT$12default_hash28_$u7b$$u7b$closure$u7d$$u7d$17h767297349d1e7a53E', symObjAddr: 0x3C08, symBinAddr: 0x1F054, symSize: 0x38 }
  - { offset: 0x8ACD5, size: 0x8, addend: 0x0, symName: '__ZN74_$LT$svg..node..element..Element$u20$as$u20$svg..node..NodeDefaultHash$GT$12default_hash28_$u7b$$u7b$closure$u7d$$u7d$17hd024d58f858a01eeE', symObjAddr: 0x3C40, symBinAddr: 0x1F08C, symSize: 0x68 }
  - { offset: 0x8AFC8, size: 0x8, addend: 0x0, symName: '__ZN146_$LT$core..ops..range..Range$LT$usize$GT$$u20$as$u20$core..iter..adapters..step_by..SpecRangeSetup$LT$core..ops..range..Range$LT$usize$GT$$GT$$GT$5setup17h152e0d68f36fc2ddE', symObjAddr: 0x33C, symBinAddr: 0x1DBD4, symSize: 0x150 }
  - { offset: 0x8B48C, size: 0x8, addend: 0x0, symName: '__ZN145_$LT$core..option..Option$LT$T$GT$$u20$as$u20$core..ops..try_trait..FromResidual$LT$core..option..Option$LT$core..convert..Infallible$GT$$GT$$GT$13from_residual17h2a79daef6b49c288E', symObjAddr: 0x32C, symBinAddr: 0x1DBC4, symSize: 0x10 }
  - { offset: 0x8B527, size: 0x8, addend: 0x0, symName: '__ZN75_$LT$core..option..Option$LT$T$GT$$u20$as$u20$core..ops..try_trait..Try$GT$11from_output17h6c5d8e6e6e28c1d1E', symObjAddr: 0x3CA8, symBinAddr: 0x1F0F4, symSize: 0x1C }
  - { offset: 0x8B55E, size: 0x8, addend: 0x0, symName: '__ZN75_$LT$core..option..Option$LT$T$GT$$u20$as$u20$core..ops..try_trait..Try$GT$6branch17h430c933a49d323b0E', symObjAddr: 0x3CC4, symBinAddr: 0x1F110, symSize: 0x48 }
  - { offset: 0x8BB2D, size: 0x8, addend: 0x0, symName: '__ZN110_$LT$core..ops..range..RangeFrom$LT$usize$GT$$u20$as$u20$core..slice..index..SliceIndex$LT$$u5b$T$u5d$$GT$$GT$9index_mut17h4c7b88850866dd7bE', symObjAddr: 0x288, symBinAddr: 0x1DB20, symSize: 0xA4 }
  - { offset: 0x8BDBE, size: 0x8, addend: 0x0, symName: __ZN4core5slice4sort6shared5pivot11median3_rec17hf9aa7f5bd2223469E, symObjAddr: 0x27E0, symBinAddr: 0x1E22C, symSize: 0x1CC }
  - { offset: 0x8BFC4, size: 0x8, addend: 0x0, symName: __ZN4core5slice4sort6shared5pivot12choose_pivot17hb32a43c5024d8164E, symObjAddr: 0x29AC, symBinAddr: 0x1E3F8, symSize: 0x238 }
  - { offset: 0x8C745, size: 0x8, addend: 0x0, symName: '__ZN70_$LT$core..num..error..TryFromIntError$u20$as$u20$core..fmt..Debug$GT$3fmt17hdc37f512e3ed94a7E', symObjAddr: 0x397C, symBinAddr: 0x1EF6C, symSize: 0x54 }
  - { offset: 0x8C7A6, size: 0x8, addend: 0x0, symName: '__ZN4core3str6traits99_$LT$impl$u20$core..slice..index..SliceIndex$LT$str$GT$$u20$for$u20$core..ops..range..RangeFull$GT$5index17h3fe0fafe003e6413E', symObjAddr: 0x2294, symBinAddr: 0x1DF7C, symSize: 0x18 }
  - { offset: 0x8CCB4, size: 0x8, addend: 0x0, symName: __ZN4core4char7methods15encode_utf8_raw17h24fcb9fb481438cdE, symObjAddr: 0x22AC, symBinAddr: 0x1DF94, symSize: 0x110 }
  - { offset: 0x8CDB4, size: 0x8, addend: 0x0, symName: __ZN4core4char7methods25encode_utf8_raw_unchecked17hfb5fe374bce3d5eeE, symObjAddr: 0x24D0, symBinAddr: 0x1E0A4, symSize: 0x188 }
  - { offset: 0x8CF74, size: 0x8, addend: 0x0, symName: __ZN4core9core_arch10arm_shared4neon9generated13vget_lane_u6417h1eaeb8bb6befc658E, symObjAddr: 0x2FC8, symBinAddr: 0x1E6FC, symSize: 0x18 }
  - { offset: 0x8CFA3, size: 0x8, addend: 0x0, symName: __ZN4core9core_arch10arm_shared4neon9generated18vreinterpret_s8_u817he8dda312dd9d21d9E, symObjAddr: 0x2FE0, symBinAddr: 0x1E714, symSize: 0xC }
  - { offset: 0x8CFD1, size: 0x8, addend: 0x0, symName: __ZN4core9core_arch10arm_shared4neon9generated19vreinterpret_u64_u817hb80c08b23bd00aefE, symObjAddr: 0x2FEC, symBinAddr: 0x1E720, symSize: 0xC }
  - { offset: 0x8CFFF, size: 0x8, addend: 0x0, symName: __ZN4core9core_arch10arm_shared4neon9generated7vceq_u817hc95abc0e0bbe11c6E, symObjAddr: 0x2FF8, symBinAddr: 0x1E72C, symSize: 0x14 }
  - { offset: 0x8D03C, size: 0x8, addend: 0x0, symName: __ZN4core9core_arch10arm_shared4neon9generated7vorr_u817hb496d0ea1ec06b73E, symObjAddr: 0x300C, symBinAddr: 0x1E740, symSize: 0x14 }
  - { offset: 0x8D079, size: 0x8, addend: 0x0, symName: __ZN4core9core_arch10arm_shared4neon9generated9vdup_n_u817h06d56e9540445f65E, symObjAddr: 0x3020, symBinAddr: 0x1E754, symSize: 0x2C }
  - { offset: 0x8D186, size: 0x8, addend: 0x0, symName: __ZN4core9ub_checks23maybe_is_nonoverlapping7runtime17h2819d37605f628eaE, symObjAddr: 0x304C, symBinAddr: 0x1E780, symSize: 0xD8 }
  - { offset: 0x8D8DA, size: 0x8, addend: 0x0, symName: '__ZN92_$LT$hashbrown..map..Iter$LT$K$C$V$GT$$u20$as$u20$core..iter..traits..iterator..Iterator$GT$4fold28_$u7b$$u7b$closure$u7d$$u7d$17h307a5f8fe42c3d98E', symObjAddr: 0x3FF8, symBinAddr: 0x1F1C0, symSize: 0x84 }
  - { offset: 0x8D9E0, size: 0x8, addend: 0x0, symName: '__ZN92_$LT$hashbrown..map..Iter$LT$K$C$V$GT$$u20$as$u20$core..iter..traits..iterator..Iterator$GT$4fold17hbad11d28b5f52c3eE', symObjAddr: 0x3F90, symBinAddr: 0x1F158, symSize: 0x68 }
  - { offset: 0x8DA81, size: 0x8, addend: 0x0, symName: '__ZN92_$LT$hashbrown..map..Iter$LT$K$C$V$GT$$u20$as$u20$core..iter..traits..iterator..Iterator$GT$4next17h9620daf22a4a2c38E', symObjAddr: 0x407C, symBinAddr: 0x1F244, symSize: 0xFC }
  - { offset: 0x8DBCD, size: 0x8, addend: 0x0, symName: '__ZN9hashbrown3map11make_hasher28_$u7b$$u7b$closure$u7d$$u7d$17h5f7a4516156c3628E', symObjAddr: 0x4298, symBinAddr: 0x1F340, symSize: 0x3C }
  - { offset: 0x8DC4F, size: 0x8, addend: 0x0, symName: '__ZN9hashbrown3map14equivalent_key28_$u7b$$u7b$closure$u7d$$u7d$17h3d7d1c9cea2c024dE', symObjAddr: 0x42D4, symBinAddr: 0x1F37C, symSize: 0x30 }
  - { offset: 0x8E0AF, size: 0x8, addend: 0x0, symName: __ZN3svg4node7element7Element3new17hb72eb1a2c185b0a1E, symObjAddr: 0x13D0, symBinAddr: 0x1DE28, symSize: 0xD0 }
  - { offset: 0x8E160, size: 0x8, addend: 0x0, symName: __ZN4core3fmt2rt8Argument11new_display17h16e15c1fb8bc0301E, symObjAddr: 0x16B0, symBinAddr: 0x1DEF8, symSize: 0x2C }
  - { offset: 0x8E1B2, size: 0x8, addend: 0x0, symName: __ZN4core3fmt2rt8Argument11new_display17h8ae0612dde06915cE, symObjAddr: 0x1708, symBinAddr: 0x1DF24, symSize: 0x2C }
  - { offset: 0x8E1DD, size: 0x8, addend: 0x0, symName: __ZN4core3fmt2rt8Argument11new_display17hd2cc2f24f233d177E, symObjAddr: 0x1734, symBinAddr: 0x1DF50, symSize: 0x2C }
  - { offset: 0x8E3B2, size: 0x8, addend: 0x0, symName: '__ZN4core6option15Option$LT$T$GT$11map_or_else17hbb9dda936c6819a2E', symObjAddr: 0x2BE4, symBinAddr: 0x1E630, symSize: 0xCC }
  - { offset: 0x8E6E4, size: 0x8, addend: 0x0, symName: '__ZN9hashbrown3map28HashMap$LT$K$C$V$C$S$C$A$GT$4iter17hb15ab0589997fda9E', symObjAddr: 0x4304, symBinAddr: 0x1F3AC, symSize: 0xC8 }
  - { offset: 0x8E92B, size: 0x8, addend: 0x0, symName: '__ZN9hashbrown3map28HashMap$LT$K$C$V$C$S$C$A$GT$6insert17h37fc3f4285cf42aaE', symObjAddr: 0x43CC, symBinAddr: 0x1F474, symSize: 0x238 }
  - { offset: 0x8EB81, size: 0x8, addend: 0x0, symName: '__ZN102_$LT$core..iter..adapters..map..Map$LT$I$C$F$GT$$u20$as$u20$core..iter..traits..iterator..Iterator$GT$4fold17hc9ba5df03a2959bbE', symObjAddr: 0x0, symBinAddr: 0x1F6AC, symSize: 0x58 }
  - { offset: 0x8EE31, size: 0x8, addend: 0x0, symName: '__ZN67_$LT$svg..node..value..Value$u20$as$u20$core..ops..deref..Deref$GT$5deref17hbaa02ecf2782ca2bE', symObjAddr: 0x6334, symBinAddr: 0x202F0, symSize: 0x24 }
  - { offset: 0x8EE63, size: 0x8, addend: 0x0, symName: '__ZN92_$LT$svg..node..value..Value$u20$as$u20$core..convert..From$LT$alloc..string..String$GT$$GT$4from17h27d644947e7aff7fE', symObjAddr: 0x6668, symBinAddr: 0x20474, symSize: 0x70 }
  - { offset: 0x8EF9F, size: 0x8, addend: 0x0, symName: '__ZN4core4iter8adapters3map8map_fold28_$u7b$$u7b$closure$u7d$$u7d$17h0a8a0ab0131fa5efE', symObjAddr: 0x6088, symBinAddr: 0x20044, symSize: 0x8C }
  - { offset: 0x8F024, size: 0x8, addend: 0x0, symName: '__ZN4core4iter8adapters3map8map_fold28_$u7b$$u7b$closure$u7d$$u7d$17h4f29247f4158855dE', symObjAddr: 0x6114, symBinAddr: 0x200D0, symSize: 0x7C }
  - { offset: 0x8F0AF, size: 0x8, addend: 0x0, symName: '__ZN102_$LT$core..iter..adapters..map..Map$LT$I$C$F$GT$$u20$as$u20$core..iter..traits..iterator..Iterator$GT$4fold17hc9ba5df03a2959bbE', symObjAddr: 0x0, symBinAddr: 0x1F6AC, symSize: 0x58 }
  - { offset: 0x8F148, size: 0x8, addend: 0x0, symName: '__ZN102_$LT$core..iter..adapters..map..Map$LT$I$C$F$GT$$u20$as$u20$core..iter..traits..iterator..Iterator$GT$4fold17he5928325b3c8212aE', symObjAddr: 0x58, symBinAddr: 0x1F704, symSize: 0x44 }
  - { offset: 0x8F1E0, size: 0x8, addend: 0x0, symName: '__ZN102_$LT$core..iter..adapters..map..Map$LT$I$C$F$GT$$u20$as$u20$core..iter..traits..iterator..Iterator$GT$9size_hint17h1608fc92226e65e9E', symObjAddr: 0x118, symBinAddr: 0x1F748, symSize: 0x24 }
  - { offset: 0x8F227, size: 0x8, addend: 0x0, symName: '__ZN102_$LT$core..iter..adapters..map..Map$LT$I$C$F$GT$$u20$as$u20$core..iter..traits..iterator..Iterator$GT$9size_hint17h7fb53fe0a8df1e88E', symObjAddr: 0x13C, symBinAddr: 0x1F76C, symSize: 0x24 }
  - { offset: 0x8F2C8, size: 0x8, addend: 0x0, symName: '__ZN4core4iter8adapters3map12map_try_fold28_$u7b$$u7b$closure$u7d$$u7d$17he8cac1a737551e31E', symObjAddr: 0x5FE0, symBinAddr: 0x1FF9C, symSize: 0xA8 }
  - { offset: 0x8F402, size: 0x8, addend: 0x0, symName: '__ZN4core4iter6traits8iterator8Iterator8for_each4call28_$u7b$$u7b$closure$u7d$$u7d$17h59b8e521179e5c73E', symObjAddr: 0x5F48, symBinAddr: 0x1FF04, symSize: 0x34 }
  - { offset: 0x8F45A, size: 0x8, addend: 0x0, symName: '__ZN4core4iter6traits8iterator8Iterator8for_each4call28_$u7b$$u7b$closure$u7d$$u7d$17h7679c84c436a1012E', symObjAddr: 0x5F7C, symBinAddr: 0x1FF38, symSize: 0x3C }
  - { offset: 0x8F4B3, size: 0x8, addend: 0x0, symName: '__ZN4core4iter6traits8iterator8Iterator8for_each4call28_$u7b$$u7b$closure$u7d$$u7d$17ha780dbdff67234d1E', symObjAddr: 0x5FB8, symBinAddr: 0x1FF74, symSize: 0x28 }
  - { offset: 0x8F580, size: 0x8, addend: 0x0, symName: __ZN4core4iter6traits8iterator8Iterator7collect17h57e6ca2be5a5df3bE, symObjAddr: 0x5D70, symBinAddr: 0x1FD2C, symSize: 0x68 }
  - { offset: 0x8F616, size: 0x8, addend: 0x0, symName: __ZN4core4iter6traits8iterator8Iterator7collect17hc129e72c2a4f8d67E, symObjAddr: 0x5DD8, symBinAddr: 0x1FD94, symSize: 0x60 }
  - { offset: 0x8F6AB, size: 0x8, addend: 0x0, symName: __ZN4core4iter6traits8iterator8Iterator7collect17hc8a990cd5c876a9aE, symObjAddr: 0x5E38, symBinAddr: 0x1FDF4, symSize: 0x74 }
  - { offset: 0x8F741, size: 0x8, addend: 0x0, symName: __ZN4core4iter6traits8iterator8Iterator8for_each17h3f9e473d7b7f8f92E, symObjAddr: 0x5EAC, symBinAddr: 0x1FE68, symSize: 0x24 }
  - { offset: 0x8F78D, size: 0x8, addend: 0x0, symName: __ZN4core4iter6traits8iterator8Iterator8for_each17h6ca5d116e9974e53E, symObjAddr: 0x5ED0, symBinAddr: 0x1FE8C, symSize: 0x44 }
  - { offset: 0x8F7F8, size: 0x8, addend: 0x0, symName: __ZN4core4iter6traits8iterator8Iterator8for_each17hf7f1a4f2a8519721E, symObjAddr: 0x5F14, symBinAddr: 0x1FED0, symSize: 0x34 }
  - { offset: 0x8F870, size: 0x8, addend: 0x0, symName: '__ZN63_$LT$I$u20$as$u20$core..iter..traits..collect..IntoIterator$GT$9into_iter17h38ba928319e18a0bE', symObjAddr: 0x62D4, symBinAddr: 0x20290, symSize: 0x14 }
  - { offset: 0x8F8A7, size: 0x8, addend: 0x0, symName: '__ZN63_$LT$I$u20$as$u20$core..iter..traits..collect..IntoIterator$GT$9into_iter17h47cb6deba9b991f2E', symObjAddr: 0x62E8, symBinAddr: 0x202A4, symSize: 0x1C }
  - { offset: 0x8F8DE, size: 0x8, addend: 0x0, symName: '__ZN63_$LT$I$u20$as$u20$core..iter..traits..collect..IntoIterator$GT$9into_iter17h5ae14a2e1727ffecE', symObjAddr: 0x6304, symBinAddr: 0x202C0, symSize: 0x30 }
  - { offset: 0x90282, size: 0x8, addend: 0x0, symName: '__ZN4core3str6traits108_$LT$impl$u20$core..slice..index..SliceIndex$LT$str$GT$$u20$for$u20$core..ops..range..Range$LT$usize$GT$$GT$13get_unchecked18precondition_check17h3e73d630fa3af45bE', symObjAddr: 0x59C0, symBinAddr: 0x1FAB4, symSize: 0xCC }
  - { offset: 0x902FF, size: 0x8, addend: 0x0, symName: '__ZN4core3str6traits48_$LT$impl$u20$core..cmp..Ord$u20$for$u20$str$GT$3cmp17h8980dde5fcf050cfE', symObjAddr: 0x5A8C, symBinAddr: 0x1FB80, symSize: 0xF4 }
  - { offset: 0x9046F, size: 0x8, addend: 0x0, symName: '__ZN4core3str6traits55_$LT$impl$u20$core..cmp..PartialOrd$u20$for$u20$str$GT$11partial_cmp17hf6e10894e65563aeE', symObjAddr: 0x5C2C, symBinAddr: 0x1FC74, symSize: 0x34 }
  - { offset: 0x90830, size: 0x8, addend: 0x0, symName: __ZN4core4hash11BuildHasher8hash_one17h8e5786a5cebc61faE, symObjAddr: 0x5CEC, symBinAddr: 0x1FCA8, symSize: 0x84 }
  - { offset: 0x909EF, size: 0x8, addend: 0x0, symName: __ZN4core9core_arch7aarch644neon9generated7vld1_u817h32f55f90aa1a5eecE, symObjAddr: 0x6190, symBinAddr: 0x2014C, symSize: 0x34 }
  - { offset: 0x90A1D, size: 0x8, addend: 0x0, symName: __ZN4core9core_arch7aarch644neon9generated7vst1_u817h8b7b1c03e31bb8c7E, symObjAddr: 0x61C4, symBinAddr: 0x20180, symSize: 0x40 }
  - { offset: 0x90A57, size: 0x8, addend: 0x0, symName: __ZN4core9core_arch7aarch644neon9generated8vcgez_s817h7c9f4ecba7d6202dE, symObjAddr: 0x6204, symBinAddr: 0x201C0, symSize: 0x68 }
  - { offset: 0x90AF9, size: 0x8, addend: 0x0, symName: __ZN4core9core_arch7aarch644neon9generated8vcltz_s817h005cac9b6a8032c3E, symObjAddr: 0x626C, symBinAddr: 0x20228, symSize: 0x68 }
  - { offset: 0x90CFE, size: 0x8, addend: 0x0, symName: '__ZN83_$LT$alloc..vec..set_len_on_drop..SetLenOnDrop$u20$as$u20$core..ops..drop..Drop$GT$4drop17h38593d09b756f0e7E', symObjAddr: 0x651C, symBinAddr: 0x20454, symSize: 0x20 }
  - { offset: 0x9100A, size: 0x8, addend: 0x0, symName: '__ZN105_$LT$std..collections..hash..map..Iter$LT$K$C$V$GT$$u20$as$u20$core..iter..traits..iterator..Iterator$GT$4fold17hc973e8b8acfcdbedE', symObjAddr: 0x160, symBinAddr: 0x1F790, symSize: 0x4C }
  - { offset: 0x91077, size: 0x8, addend: 0x0, symName: '__ZN105_$LT$std..collections..hash..map..Iter$LT$K$C$V$GT$$u20$as$u20$core..iter..traits..iterator..Iterator$GT$4next17h42d00393f16cb112E', symObjAddr: 0x1AC, symBinAddr: 0x1F7DC, symSize: 0x24 }
  - { offset: 0x910B7, size: 0x8, addend: 0x0, symName: '__ZN105_$LT$std..collections..hash..map..Iter$LT$K$C$V$GT$$u20$as$u20$core..iter..traits..iterator..Iterator$GT$9size_hint17h28fecb47b4189e84E', symObjAddr: 0x1D0, symBinAddr: 0x1F800, symSize: 0x2C }
  - { offset: 0x912CA, size: 0x8, addend: 0x0, symName: '__ZN3std4hash6random11RandomState3new28_$u7b$$u7b$closure$u7d$$u7d$17ha6c6ec4c280edf37E', symObjAddr: 0x5A4, symBinAddr: 0x1F9B4, symSize: 0x2C }
  - { offset: 0x9138B, size: 0x8, addend: 0x0, symName: '__ZN3std4hash6random11RandomState3new4KEYS29_$u7b$$u7b$constant$u7d$$u7d$28_$u7b$$u7b$closure$u7d$$u7d$17h02671d0a89e15a40E', symObjAddr: 0x5D0, symBinAddr: 0x1F9E0, symSize: 0x34 }
  - { offset: 0x913C9, size: 0x8, addend: 0x0, symName: __ZN3std4hash6random11RandomState3new4KEYS6__init17hd9540ac7f215d865E, symObjAddr: 0x604, symBinAddr: 0x1FA14, symSize: 0x24 }
  - { offset: 0x913F5, size: 0x8, addend: 0x0, symName: '__ZN71_$LT$std..hash..random..DefaultHasher$u20$as$u20$core..hash..Hasher$GT$6finish17h5c917fc9d80c8680E', symObjAddr: 0x6358, symBinAddr: 0x20314, symSize: 0x2C }
  - { offset: 0x9143E, size: 0x8, addend: 0x0, symName: '__ZN71_$LT$std..hash..random..DefaultHasher$u20$as$u20$core..hash..Hasher$GT$9write_str17h2301ef9e60303396E', symObjAddr: 0x6384, symBinAddr: 0x20340, symSize: 0x38 }
  - { offset: 0x9149F, size: 0x8, addend: 0x0, symName: '__ZN74_$LT$std..hash..random..RandomState$u20$as$u20$core..hash..BuildHasher$GT$12build_hasher17h0eb4dbe715c58b5dE', symObjAddr: 0x63D8, symBinAddr: 0x20378, symSize: 0xCC }
  - { offset: 0x9168A, size: 0x8, addend: 0x0, symName: '__ZN78_$LT$$u21$$u20$as$u20$std..sys..thread_local..native..lazy..DestroyedState$GT$13register_dtor17hb2e5bf3a7efac9a9E', symObjAddr: 0x64A4, symBinAddr: 0x20444, symSize: 0x10 }
  - { offset: 0x919BE, size: 0x8, addend: 0x0, symName: '__ZN3std11collections4hash3map20HashMap$LT$K$C$V$GT$3new17hc8c674e6d37d7631E', symObjAddr: 0x1FC, symBinAddr: 0x1F82C, symSize: 0x7C }
  - { offset: 0x91ABF, size: 0x8, addend: 0x0, symName: '__ZN3std11collections4hash3map24HashMap$LT$K$C$V$C$S$GT$4iter17h428b8bc8dfd1455cE', symObjAddr: 0x278, symBinAddr: 0x1F8A8, symSize: 0x44 }
  - { offset: 0x91B0A, size: 0x8, addend: 0x0, symName: '__ZN3std11collections4hash3map24HashMap$LT$K$C$V$C$S$GT$6insert17h4dc72be5f64fea2bE', symObjAddr: 0x2BC, symBinAddr: 0x1F8EC, symSize: 0x24 }
  - { offset: 0x91C25, size: 0x8, addend: 0x0, symName: '__ZN3std3sys12thread_local6native4lazy20Storage$LT$T$C$D$GT$11get_or_init17hf5bc889ae5f25385E', symObjAddr: 0x2E0, symBinAddr: 0x1F910, symSize: 0xA4 }
  - { offset: 0x91E57, size: 0x8, addend: 0x0, symName: '__ZN3std3sys12thread_local6native4lazy20Storage$LT$T$C$D$GT$16get_or_init_slow17he65787420ccb259bE', symObjAddr: 0x384, symBinAddr: 0x7C20C, symSize: 0x220 }
  - { offset: 0x92185, size: 0x8, addend: 0x0, symName: __ZN3svg4node7element4path4data4Data5close17hccc0db5a6bf5ff6fE, symObjAddr: 0x124C, symBinAddr: 0x1FA38, symSize: 0x7C }
  - { offset: 0x92537, size: 0x8, addend: 0x0, symName: '__ZN103_$LT$alloc..vec..into_iter..IntoIter$LT$T$C$A$GT$$u20$as$u20$core..iter..traits..iterator..Iterator$GT$4next17h3a13700d9ae35906E', symObjAddr: 0x0, symBinAddr: 0x204E4, symSize: 0xB8 }
  - { offset: 0x92A4F, size: 0x8, addend: 0x0, symName: '__ZN4core3ptr9const_ptr33_$LT$impl$u20$$BP$const$u20$T$GT$20offset_from_unsigned18precondition_check17h2fd5f63c318fade1E', symObjAddr: 0x1974, symBinAddr: 0x21B5C, symSize: 0xAC }
  - { offset: 0x92E3B, size: 0x8, addend: 0x0, symName: __ZN4core3ptr10swap_chunk17h696c34482f4a46e0E, symObjAddr: 0x9EC, symBinAddr: 0x20D54, symSize: 0x3C }
  - { offset: 0x92E74, size: 0x8, addend: 0x0, symName: __ZN4core3ptr10swap_chunk17hc6483dd30d7a3bc5E, symObjAddr: 0xA28, symBinAddr: 0x20D90, symSize: 0x3C }
  - { offset: 0x92EAD, size: 0x8, addend: 0x0, symName: __ZN4core3ptr10swap_chunk17hdb79c31022704d07E, symObjAddr: 0xA64, symBinAddr: 0x20DCC, symSize: 0x3C }
  - { offset: 0x92EE6, size: 0x8, addend: 0x0, symName: __ZN4core3ptr10swap_chunk17hf7b690952ee22f9eE, symObjAddr: 0xAA0, symBinAddr: 0x20E08, symSize: 0x3C }
  - { offset: 0x92F81, size: 0x8, addend: 0x0, symName: __ZN4core3ptr14read_unaligned17hc09f1d0b14c33e2cE, symObjAddr: 0xADC, symBinAddr: 0x20E44, symSize: 0xA4 }
  - { offset: 0x930CC, size: 0x8, addend: 0x0, symName: __ZN4core3ptr15write_unaligned17h50243b74124584beE, symObjAddr: 0xB80, symBinAddr: 0x20EE8, symSize: 0x78 }
  - { offset: 0x93157, size: 0x8, addend: 0x0, symName: __ZN4core3ptr19copy_nonoverlapping18precondition_check17h9dec43e503227704E, symObjAddr: 0xBF8, symBinAddr: 0x20F60, symSize: 0x36C }
  - { offset: 0x934F6, size: 0x8, addend: 0x0, symName: __ZN4core3ptr19swap_nonoverlapping18precondition_check17h6f3898c638c42278E, symObjAddr: 0x11A0, symBinAddr: 0x21388, symSize: 0x38C }
  - { offset: 0x93803, size: 0x8, addend: 0x0, symName: __ZN4core3ptr19swap_nonoverlapping17h5f264f66ac2a0fb2E, symObjAddr: 0x1024, symBinAddr: 0x212CC, symSize: 0xBC }
  - { offset: 0x93AD6, size: 0x8, addend: 0x0, symName: __ZN4core3ptr25swap_nonoverlapping_bytes17h668204d09b55c1a9E, symObjAddr: 0x152C, symBinAddr: 0x21714, symSize: 0xD8 }
  - { offset: 0x93C7F, size: 0x8, addend: 0x0, symName: __ZN4core3ptr25swap_nonoverlapping_bytes25swap_nonoverlapping_short17h4205a60f2a621a97E, symObjAddr: 0x1604, symBinAddr: 0x217EC, symSize: 0x120 }
  - { offset: 0x93E40, size: 0x8, addend: 0x0, symName: __ZN4core3ptr25swap_nonoverlapping_bytes26swap_nonoverlapping_chunks17h5a12b57d9f3279ccE, symObjAddr: 0x1724, symBinAddr: 0x2190C, symSize: 0xE4 }
  - { offset: 0x93FE8, size: 0x8, addend: 0x0, symName: __ZN4core3ptr7replace18precondition_check17hc6f3d9f223527546E, symObjAddr: 0x1808, symBinAddr: 0x219F0, symSize: 0x16C }
  - { offset: 0x943C4, size: 0x8, addend: 0x0, symName: '__ZN4core3num23_$LT$impl$u20$usize$GT$11checked_add17hfe87f7ffe5965bd2E', symObjAddr: 0x814, symBinAddr: 0x20C28, symSize: 0x7C }
  - { offset: 0x9444E, size: 0x8, addend: 0x0, symName: '__ZN4core3num23_$LT$impl$u20$usize$GT$13unchecked_add18precondition_check17h7dab19cb77cd777aE', symObjAddr: 0x890, symBinAddr: 0x20CA4, symSize: 0xB0 }
  - { offset: 0x94BEF, size: 0x8, addend: 0x0, symName: '__ZN4core3cmp5impls70_$LT$impl$u20$core..cmp..PartialOrd$LT$$RF$B$GT$$u20$for$u20$$RF$A$GT$2lt17hc64f9e1e589fafe3E', symObjAddr: 0x718, symBinAddr: 0x20BE4, symSize: 0x44 }
  - { offset: 0x95324, size: 0x8, addend: 0x0, symName: __ZN4core4iter6traits10exact_size17ExactSizeIterator3len17h6993b41f679b4f5dE, symObjAddr: 0x1A20, symBinAddr: 0x21C08, symSize: 0xC4 }
  - { offset: 0x95855, size: 0x8, addend: 0x0, symName: '__ZN3svg4node7element4path10parameters127_$LT$impl$u20$core..convert..From$LT$svg..node..element..path..parameters..Parameters$GT$$u20$for$u20$alloc..string..String$GT$4from28_$u7b$$u7b$closure$u7d$$u7d$17he8a809cc555f18c1E', symObjAddr: 0x6E8, symBinAddr: 0x20BB4, symSize: 0x30 }
  - { offset: 0x95C98, size: 0x8, addend: 0x0, symName: '__ZN103_$LT$alloc..vec..into_iter..IntoIter$LT$T$C$A$GT$$u20$as$u20$core..iter..traits..iterator..Iterator$GT$4next17h3a13700d9ae35906E', symObjAddr: 0x0, symBinAddr: 0x204E4, symSize: 0xB8 }
  - { offset: 0x95E11, size: 0x8, addend: 0x0, symName: '__ZN103_$LT$alloc..vec..into_iter..IntoIter$LT$T$C$A$GT$$u20$as$u20$core..iter..traits..iterator..Iterator$GT$9size_hint17h94a1c6043d5987a2E', symObjAddr: 0xB8, symBinAddr: 0x2059C, symSize: 0x5C }
  - { offset: 0x95E7C, size: 0x8, addend: 0x0, symName: '__ZN157_$LT$$LT$alloc..vec..into_iter..IntoIter$LT$T$C$A$GT$$u20$as$u20$core..ops..drop..Drop$GT$..drop..DropGuard$LT$T$C$A$GT$$u20$as$u20$core..ops..drop..Drop$GT$4drop17hc876459970757b65E', symObjAddr: 0x66C, symBinAddr: 0x20B38, symSize: 0x7C }
  - { offset: 0x95FBA, size: 0x8, addend: 0x0, symName: '__ZN86_$LT$alloc..vec..into_iter..IntoIter$LT$T$C$A$GT$$u20$as$u20$core..ops..drop..Drop$GT$4drop17h35b39b4a73801c96E', symObjAddr: 0x2D68, symBinAddr: 0x22E20, symSize: 0x8C }
  - { offset: 0x96250, size: 0x8, addend: 0x0, symName: '__ZN111_$LT$alloc..vec..Vec$LT$T$GT$$u20$as$u20$alloc..vec..spec_from_iter_nested..SpecFromIterNested$LT$T$C$I$GT$$GT$9from_iter17h04fdbf74f27da96dE', symObjAddr: 0x114, symBinAddr: 0x205F8, symSize: 0x164 }
  - { offset: 0x96326, size: 0x8, addend: 0x0, symName: '__ZN111_$LT$alloc..vec..Vec$LT$T$GT$$u20$as$u20$alloc..vec..spec_from_iter_nested..SpecFromIterNested$LT$T$C$I$GT$$GT$9from_iter17h476f007d67ef375eE', symObjAddr: 0x4F0, symBinAddr: 0x209D4, symSize: 0x164 }
  - { offset: 0x96403, size: 0x8, addend: 0x0, symName: '__ZN111_$LT$alloc..vec..Vec$LT$T$GT$$u20$as$u20$alloc..vec..spec_from_iter_nested..SpecFromIterNested$LT$T$C$I$GT$$GT$9from_iter17h2c65c1c1aebe61abE', symObjAddr: 0x278, symBinAddr: 0x2075C, symSize: 0x278 }
  - { offset: 0x968EE, size: 0x8, addend: 0x0, symName: '__ZN72_$LT$alloc..vec..Vec$LT$T$C$A$GT$$u20$as$u20$core..ops..deref..Deref$GT$5deref17h137b2e2452d75bd1E', symObjAddr: 0x2CD8, symBinAddr: 0x22D90, symSize: 0x24 }
  - { offset: 0x9692E, size: 0x8, addend: 0x0, symName: '__ZN72_$LT$alloc..vec..Vec$LT$T$C$A$GT$$u20$as$u20$core..ops..deref..Deref$GT$5deref17h16b601f6dc604f23E', symObjAddr: 0x2CFC, symBinAddr: 0x22DB4, symSize: 0x24 }
  - { offset: 0x9696E, size: 0x8, addend: 0x0, symName: '__ZN72_$LT$alloc..vec..Vec$LT$T$C$A$GT$$u20$as$u20$core..ops..deref..Deref$GT$5deref17h704e730ba2618e39E', symObjAddr: 0x2D20, symBinAddr: 0x22DD8, symSize: 0x24 }
  - { offset: 0x96A05, size: 0x8, addend: 0x0, symName: '__ZN5alloc3vec10partial_eq117_$LT$impl$u20$core..cmp..PartialEq$LT$alloc..vec..Vec$LT$U$C$A2$GT$$GT$$u20$for$u20$alloc..vec..Vec$LT$T$C$A1$GT$$GT$2eq17hace084a71cafa936E', symObjAddr: 0x1CF4, symBinAddr: 0x21EC8, symSize: 0xDC }
  - { offset: 0x97042, size: 0x8, addend: 0x0, symName: '__ZN5alloc3vec16Vec$LT$T$C$A$GT$14extend_trusted28_$u7b$$u7b$closure$u7d$$u7d$17h307528bbaf211f15E', symObjAddr: 0x215C, symBinAddr: 0x2231C, symSize: 0x44 }
  - { offset: 0x970EF, size: 0x8, addend: 0x0, symName: '__ZN5alloc3vec16Vec$LT$T$C$A$GT$14extend_trusted28_$u7b$$u7b$closure$u7d$$u7d$17hb87066616562f429E', symObjAddr: 0x21A0, symBinAddr: 0x22360, symSize: 0x30 }
  - { offset: 0x971A3, size: 0x8, addend: 0x0, symName: '__ZN5alloc3vec16Vec$LT$T$C$A$GT$7set_len18precondition_check17h092edbc223438bffE', symObjAddr: 0x2590, symBinAddr: 0x22728, symSize: 0xAC }
  - { offset: 0x97212, size: 0x8, addend: 0x0, symName: '__ZN70_$LT$alloc..vec..Vec$LT$T$C$A$GT$$u20$as$u20$core..ops..drop..Drop$GT$4drop17h16cc4681d132189fE', symObjAddr: 0x2C20, symBinAddr: 0x22CD8, symSize: 0x38 }
  - { offset: 0x972C2, size: 0x8, addend: 0x0, symName: '__ZN70_$LT$alloc..vec..Vec$LT$T$C$A$GT$$u20$as$u20$core..ops..drop..Drop$GT$4drop17h878e1b075dc7c543E', symObjAddr: 0x2C58, symBinAddr: 0x22D10, symSize: 0x38 }
  - { offset: 0x97372, size: 0x8, addend: 0x0, symName: '__ZN70_$LT$alloc..vec..Vec$LT$T$C$A$GT$$u20$as$u20$core..ops..drop..Drop$GT$4drop17h8e236b5ee71502abE', symObjAddr: 0x2C90, symBinAddr: 0x22D48, symSize: 0x24 }
  - { offset: 0x97422, size: 0x8, addend: 0x0, symName: '__ZN70_$LT$alloc..vec..Vec$LT$T$C$A$GT$$u20$as$u20$core..ops..drop..Drop$GT$4drop17h9a8b6cb51f76272aE', symObjAddr: 0x2CB4, symBinAddr: 0x22D6C, symSize: 0x24 }
  - { offset: 0x974D8, size: 0x8, addend: 0x0, symName: '__ZN75_$LT$alloc..vec..Vec$LT$T$C$A$GT$$u20$as$u20$core..ops..deref..DerefMut$GT$9deref_mut17h0d7ba087ead212d9E', symObjAddr: 0x2D44, symBinAddr: 0x22DFC, symSize: 0x24 }
  - { offset: 0x9751E, size: 0x8, addend: 0x0, symName: '__ZN90_$LT$alloc..vec..Vec$LT$T$C$A$GT$$u20$as$u20$core..iter..traits..collect..IntoIterator$GT$9into_iter17h3ac050ef87b8a7baE', symObjAddr: 0x2F20, symBinAddr: 0x22FD8, symSize: 0xDC }
  - { offset: 0x977B6, size: 0x8, addend: 0x0, symName: '__ZN95_$LT$alloc..vec..Vec$LT$T$GT$$u20$as$u20$core..iter..traits..collect..FromIterator$LT$T$GT$$GT$9from_iter17h187d1da704e6bb69E', symObjAddr: 0x2FFC, symBinAddr: 0x230B4, symSize: 0x3C }
  - { offset: 0x977F7, size: 0x8, addend: 0x0, symName: '__ZN95_$LT$alloc..vec..Vec$LT$T$GT$$u20$as$u20$core..iter..traits..collect..FromIterator$LT$T$GT$$GT$9from_iter17hfe6e1ee8e3de9b40E', symObjAddr: 0x3038, symBinAddr: 0x230F0, symSize: 0x3C }
  - { offset: 0x97838, size: 0x8, addend: 0x0, symName: '__ZN95_$LT$alloc..vec..Vec$LT$T$GT$$u20$as$u20$core..iter..traits..collect..FromIterator$LT$T$GT$$GT$9from_iter17hfec79e516b36873dE', symObjAddr: 0x3074, symBinAddr: 0x2312C, symSize: 0x40 }
  - { offset: 0x97883, size: 0x8, addend: 0x0, symName: '__ZN97_$LT$alloc..vec..Vec$LT$T$C$A$GT$$u20$as$u20$alloc..vec..spec_extend..SpecExtend$LT$T$C$I$GT$$GT$11spec_extend17h06fea8a32c353682E', symObjAddr: 0x30B4, symBinAddr: 0x2316C, symSize: 0x24 }
  - { offset: 0x978DB, size: 0x8, addend: 0x0, symName: '__ZN97_$LT$alloc..vec..Vec$LT$T$C$A$GT$$u20$as$u20$alloc..vec..spec_extend..SpecExtend$LT$T$C$I$GT$$GT$11spec_extend17h2921ed31f6dd34fbE', symObjAddr: 0x30D8, symBinAddr: 0x23190, symSize: 0x24 }
  - { offset: 0x9792D, size: 0x8, addend: 0x0, symName: '__ZN97_$LT$alloc..vec..Vec$LT$T$C$A$GT$$u20$as$u20$alloc..vec..spec_extend..SpecExtend$LT$T$C$I$GT$$GT$11spec_extend17he2707593f570be33E', symObjAddr: 0x30FC, symBinAddr: 0x231B4, symSize: 0x34 }
  - { offset: 0x9798A, size: 0x8, addend: 0x0, symName: '__ZN98_$LT$alloc..vec..Vec$LT$T$GT$$u20$as$u20$alloc..vec..spec_from_iter..SpecFromIter$LT$T$C$I$GT$$GT$9from_iter17h22402cec6db6d8d6E', symObjAddr: 0x3130, symBinAddr: 0x231E8, symSize: 0x14 }
  - { offset: 0x979C9, size: 0x8, addend: 0x0, symName: '__ZN98_$LT$alloc..vec..Vec$LT$T$GT$$u20$as$u20$alloc..vec..spec_from_iter..SpecFromIter$LT$T$C$I$GT$$GT$9from_iter17h8827d0a2f872adb0E', symObjAddr: 0x3144, symBinAddr: 0x231FC, symSize: 0x14 }
  - { offset: 0x97A08, size: 0x8, addend: 0x0, symName: '__ZN98_$LT$alloc..vec..Vec$LT$T$GT$$u20$as$u20$alloc..vec..spec_from_iter..SpecFromIter$LT$T$C$I$GT$$GT$9from_iter17h91a69736ad835fbfE', symObjAddr: 0x3158, symBinAddr: 0x23210, symSize: 0x2C }
  - { offset: 0x98133, size: 0x8, addend: 0x0, symName: __ZN5alloc3fmt6format17h053ee2a38f3794f3E, symObjAddr: 0x1BD8, symBinAddr: 0x21DAC, symSize: 0xD4 }
  - { offset: 0x98197, size: 0x8, addend: 0x0, symName: '__ZN5alloc3fmt6format28_$u7b$$u7b$closure$u7d$$u7d$17h92614be15649797aE', symObjAddr: 0x1CAC, symBinAddr: 0x21E80, symSize: 0x48 }
  - { offset: 0x98215, size: 0x8, addend: 0x0, symName: '__ZN5alloc5slice29_$LT$impl$u20$$u5b$T$u5d$$GT$11sort_by_key28_$u7b$$u7b$closure$u7d$$u7d$17he439de47599f5dc6E', symObjAddr: 0x2A44, symBinAddr: 0x22AFC, symSize: 0xC0 }
  - { offset: 0x98286, size: 0x8, addend: 0x0, symName: '__ZN87_$LT$T$u20$as$u20$alloc..slice..$LT$impl$u20$$u5b$T$u5d$$GT$..to_vec_in..ConvertVec$GT$6to_vec17h1d0b74e4f90455e3E', symObjAddr: 0x2DF4, symBinAddr: 0x22EAC, symSize: 0x12C }
  - { offset: 0x984F6, size: 0x8, addend: 0x0, symName: __ZN5alloc5slice11stable_sort17h88833298c228cc20E, symObjAddr: 0x297C, symBinAddr: 0x22A34, symSize: 0xC8 }
  - { offset: 0x985B0, size: 0x8, addend: 0x0, symName: '__ZN5alloc5slice99_$LT$impl$u20$core..slice..sort..stable..BufGuard$LT$T$GT$$u20$for$u20$alloc..vec..Vec$LT$T$GT$$GT$13with_capacity17h55b8556cbc3e856aE', symObjAddr: 0x2B04, symBinAddr: 0x22BBC, symSize: 0x4C }
  - { offset: 0x98651, size: 0x8, addend: 0x0, symName: '__ZN5alloc5slice99_$LT$impl$u20$core..slice..sort..stable..BufGuard$LT$T$GT$$u20$for$u20$alloc..vec..Vec$LT$T$GT$$GT$19as_uninit_slice_mut17h776c77294853d7f2E', symObjAddr: 0x2B50, symBinAddr: 0x22C08, symSize: 0xD0 }
  - { offset: 0x990D0, size: 0x8, addend: 0x0, symName: '__ZN4core4iter8adapters7step_by15StepBy$LT$I$GT$3new17h8074fef629f13972E', symObjAddr: 0x1AE4, symBinAddr: 0x21CCC, symSize: 0xE0 }
  - { offset: 0x9927E, size: 0x8, addend: 0x0, symName: '__ZN5alloc3vec12Vec$LT$T$GT$3new17h13575f0cf516d042E', symObjAddr: 0x1DE4, symBinAddr: 0x21FA4, symSize: 0x14 }
  - { offset: 0x9929B, size: 0x8, addend: 0x0, symName: '__ZN5alloc3vec12Vec$LT$T$GT$3new17h813f04098f7b08bfE', symObjAddr: 0x1DF8, symBinAddr: 0x21FB8, symSize: 0x14 }
  - { offset: 0x99356, size: 0x8, addend: 0x0, symName: '__ZN5alloc3vec16Vec$LT$T$C$A$GT$12as_mut_slice17h1ce1eeefaedc812fE', symObjAddr: 0x1E0C, symBinAddr: 0x21FCC, symSize: 0x6C }
  - { offset: 0x99529, size: 0x8, addend: 0x0, symName: '__ZN5alloc3vec16Vec$LT$T$C$A$GT$14extend_trusted17h2a8e349de1604808E', symObjAddr: 0x1E78, symBinAddr: 0x22038, symSize: 0x178 }
  - { offset: 0x9982D, size: 0x8, addend: 0x0, symName: '__ZN5alloc3vec16Vec$LT$T$C$A$GT$14extend_trusted17h5353aec8a09fad86E', symObjAddr: 0x1FF0, symBinAddr: 0x221B0, symSize: 0x16C }
  - { offset: 0x99C15, size: 0x8, addend: 0x0, symName: '__ZN5alloc3vec16Vec$LT$T$C$A$GT$16extend_desugared17h14181444eafa43d0E', symObjAddr: 0x21D0, symBinAddr: 0x22390, symSize: 0x1E4 }
  - { offset: 0x99EEC, size: 0x8, addend: 0x0, symName: '__ZN5alloc3vec16Vec$LT$T$C$A$GT$4push17hbf53370cb618e732E', symObjAddr: 0x23DC, symBinAddr: 0x22574, symSize: 0x24 }
  - { offset: 0x9A061, size: 0x8, addend: 0x0, symName: '__ZN5alloc3vec16Vec$LT$T$C$A$GT$7reserve17h55d6197fddb46746E', symObjAddr: 0x2400, symBinAddr: 0x22598, symSize: 0xC8 }
  - { offset: 0x9A2DE, size: 0x8, addend: 0x0, symName: '__ZN5alloc3vec16Vec$LT$T$C$A$GT$7reserve17hffeaa250d29028cdE', symObjAddr: 0x24C8, symBinAddr: 0x22660, symSize: 0xC8 }
  - { offset: 0x9A515, size: 0x8, addend: 0x0, symName: '__ZN5alloc3vec16Vec$LT$T$C$A$GT$8as_slice17ha8d8d80bd40aae90E', symObjAddr: 0x263C, symBinAddr: 0x227D4, symSize: 0x68 }
  - { offset: 0x9A673, size: 0x8, addend: 0x0, symName: '__ZN5alloc3vec16Vec$LT$T$C$A$GT$8as_slice17hb283a6eeea0bfe5dE', symObjAddr: 0x26A4, symBinAddr: 0x2283C, symSize: 0x6C }
  - { offset: 0x9A7F8, size: 0x8, addend: 0x0, symName: '__ZN5alloc3vec16Vec$LT$T$C$A$GT$8as_slice17hd9d337031479d314E', symObjAddr: 0x2710, symBinAddr: 0x228A8, symSize: 0x6C }
  - { offset: 0x9A8D7, size: 0x8, addend: 0x0, symName: '__ZN5alloc3vec16Vec$LT$T$C$A$GT$8is_empty17hfb3685a0a123e3d3E', symObjAddr: 0x277C, symBinAddr: 0x22914, symSize: 0x20 }
  - { offset: 0x9AA4A, size: 0x8, addend: 0x0, symName: '__ZN5alloc3vec16Vec$LT$T$C$A$GT$8push_mut17hfa360124efa2663dE', symObjAddr: 0x287C, symBinAddr: 0x22934, symSize: 0x100 }
  - { offset: 0x9B810, size: 0x8, addend: 0x0, symName: '__ZN4core3str4iter29MatchIndicesInternal$LT$P$GT$4next28_$u7b$$u7b$closure$u7d$$u7d$17h50ab667a18a44e88E', symObjAddr: 0x136C, symBinAddr: 0x24020, symSize: 0xA8 }
  - { offset: 0x9BFB5, size: 0x8, addend: 0x0, symName: '__ZN104_$LT$core..ops..index_range..IndexRange$u20$as$u20$core..slice..index..SliceIndex$LT$$u5b$T$u5d$$GT$$GT$17get_unchecked_mut18precondition_check17hbf7f66f30dc51666E', symObjAddr: 0x14C, symBinAddr: 0x2323C, symSize: 0xAC }
  - { offset: 0x9C05C, size: 0x8, addend: 0x0, symName: '__ZN106_$LT$core..ops..range..Range$LT$usize$GT$$u20$as$u20$core..slice..index..SliceIndex$LT$$u5b$T$u5d$$GT$$GT$17get_unchecked_mut18precondition_check17h223bb0e5b1689b24E', symObjAddr: 0x1F8, symBinAddr: 0x232E8, symSize: 0xCC }
  - { offset: 0x9C3B0, size: 0x8, addend: 0x0, symName: '__ZN75_$LT$usize$u20$as$u20$core..slice..index..SliceIndex$LT$$u5b$T$u5d$$GT$$GT$13get_unchecked18precondition_check17hc39f15de4fe9d945E', symObjAddr: 0x3384, symBinAddr: 0x25BD8, symSize: 0xAC }
  - { offset: 0x9C521, size: 0x8, addend: 0x0, symName: '__ZN4core5slice29_$LT$impl$u20$$u5b$T$u5d$$GT$15copy_from_slice17hfe71306efc23734aE', symObjAddr: 0x16F0, symBinAddr: 0x240C8, symSize: 0xAC }
  - { offset: 0x9C5EC, size: 0x8, addend: 0x0, symName: '__ZN4core5slice29_$LT$impl$u20$$u5b$T$u5d$$GT$22split_at_mut_unchecked17hff382d650468123fE', symObjAddr: 0x179C, symBinAddr: 0x24174, symSize: 0xF8 }
  - { offset: 0x9C743, size: 0x8, addend: 0x0, symName: '__ZN4core5slice29_$LT$impl$u20$$u5b$T$u5d$$GT$22split_at_mut_unchecked18precondition_check17h0473447284e97849E', symObjAddr: 0x1894, symBinAddr: 0x2426C, symSize: 0xAC }
  - { offset: 0x9C7AC, size: 0x8, addend: 0x0, symName: '__ZN4core5slice29_$LT$impl$u20$$u5b$T$u5d$$GT$4iter17h7777b41bcedb7441E', symObjAddr: 0x1940, symBinAddr: 0x24318, symSize: 0x28 }
  - { offset: 0x9C86C, size: 0x8, addend: 0x0, symName: '__ZN4core5slice29_$LT$impl$u20$$u5b$T$u5d$$GT$7reverse7revswap17haf53a2bf0251472bE', symObjAddr: 0x1968, symBinAddr: 0x24340, symSize: 0x284 }
  - { offset: 0x9CB82, size: 0x8, addend: 0x0, symName: __ZN4core5slice4sort6stable14driftsort_main17h1561951ebd4018beE, symObjAddr: 0x1BEC, symBinAddr: 0x245C4, symSize: 0x290 }
  - { offset: 0x9CD9D, size: 0x8, addend: 0x0, symName: __ZN4core5slice4sort6stable5drift10create_run17h62dc7fc8ca34f183E, symObjAddr: 0x1F00, symBinAddr: 0x248D8, symSize: 0x410 }
  - { offset: 0x9D2AE, size: 0x8, addend: 0x0, symName: __ZN4core5slice4sort6stable5drift16stable_quicksort17h2b4804808f8c2dabE, symObjAddr: 0x2310, symBinAddr: 0x24CE8, symSize: 0xB4 }
  - { offset: 0x9D4D3, size: 0x8, addend: 0x0, symName: __ZN4core5slice4sort6stable5drift4sort17hdee6ec053ee465f0E, symObjAddr: 0x23C4, symBinAddr: 0x24D9C, symSize: 0x5BC }
  - { offset: 0x9DD02, size: 0x8, addend: 0x0, symName: __ZN4core5slice4sort6stable5merge5merge17h1ca06268263d99f1E, symObjAddr: 0x2CE8, symBinAddr: 0x256C0, symSize: 0x308 }
  - { offset: 0x9DF79, size: 0x8, addend: 0x0, symName: '__ZN95_$LT$core..slice..sort..stable..merge..MergeState$LT$T$GT$$u20$as$u20$core..ops..drop..Drop$GT$4drop17h559a6926e0253633E', symObjAddr: 0x3B00, symBinAddr: 0x25CBC, symSize: 0xF0 }
  - { offset: 0x9E172, size: 0x8, addend: 0x0, symName: __ZN4core5slice6memchr6memchr17hf1ff15aec1dfd989E, symObjAddr: 0x2FF0, symBinAddr: 0x259C8, symSize: 0x114 }
  - { offset: 0x9E2AE, size: 0x8, addend: 0x0, symName: '__ZN4core3ptr107drop_in_place$LT$alloc..vec..Vec$LT$$LP$$RF$alloc..string..String$C$$RF$svg..node..value..Value$RP$$GT$$GT$17ha08563c850273bb0E', symObjAddr: 0x948, symBinAddr: 0x236EC, symSize: 0x5C }
  - { offset: 0x9E2DD, size: 0x8, addend: 0x0, symName: '__ZN4core3ptr108drop_in_place$LT$hashbrown..raw..RawTable$LT$$LP$alloc..string..String$C$svg..node..value..Value$RP$$GT$$GT$17he4b23b4b7fdd9c48E', symObjAddr: 0x9A4, symBinAddr: 0x23748, symSize: 0x24 }
  - { offset: 0x9E30C, size: 0x8, addend: 0x0, symName: '__ZN4core3ptr112drop_in_place$LT$std..collections..hash..map..HashMap$LT$alloc..string..String$C$svg..node..value..Value$GT$$GT$17he9ca89954f0553e7E', symObjAddr: 0x9C8, symBinAddr: 0x2376C, symSize: 0x24 }
  - { offset: 0x9E33B, size: 0x8, addend: 0x0, symName: '__ZN4core3ptr114drop_in_place$LT$alloc..raw_vec..RawVec$LT$$LP$$RF$alloc..string..String$C$$RF$svg..node..value..Value$RP$$GT$$GT$17h6d16043212b06f2dE', symObjAddr: 0x9EC, symBinAddr: 0x23790, symSize: 0x24 }
  - { offset: 0x9E36A, size: 0x8, addend: 0x0, symName: '__ZN4core3ptr123drop_in_place$LT$alloc..vec..into_iter..IntoIter$LT$$LP$$RF$alloc..string..String$C$$RF$svg..node..value..Value$RP$$GT$$GT$17hfd3b0e8a27ec7122E', symObjAddr: 0xA10, symBinAddr: 0x237B4, symSize: 0x24 }
  - { offset: 0x9E399, size: 0x8, addend: 0x0, symName: '__ZN4core3ptr132drop_in_place$LT$hashbrown..map..HashMap$LT$alloc..string..String$C$svg..node..value..Value$C$std..hash..random..RandomState$GT$$GT$17h1d586e3839a714adE', symObjAddr: 0xA34, symBinAddr: 0x237D8, symSize: 0x24 }
  - { offset: 0x9E3C8, size: 0x8, addend: 0x0, symName: '__ZN4core3ptr136drop_in_place$LT$core..slice..sort..stable..merge..MergeState$LT$$LP$$RF$alloc..string..String$C$$RF$svg..node..value..Value$RP$$GT$$GT$17h5633b6a263572dbcE', symObjAddr: 0xA58, symBinAddr: 0x237FC, symSize: 0x24 }
  - { offset: 0x9E3F7, size: 0x8, addend: 0x0, symName: '__ZN4core3ptr140drop_in_place$LT$core..slice..sort..shared..smallsort..CopyOnDrop$LT$$LP$$RF$alloc..string..String$C$$RF$svg..node..value..Value$RP$$GT$$GT$17hb5d46b9be7000d56E', symObjAddr: 0xA7C, symBinAddr: 0x23820, symSize: 0x24 }
  - { offset: 0x9E426, size: 0x8, addend: 0x0, symName: '__ZN4core3ptr145drop_in_place$LT$core..array..iter..iter_inner..PolymorphicIter$LT$$u5b$core..mem..maybe_uninit..MaybeUninit$LT$usize$GT$$u3b$$u20$2$u5d$$GT$$GT$17h0bcedb02660dfcf4E', symObjAddr: 0xAA0, symBinAddr: 0x23844, symSize: 0x24 }
  - { offset: 0x9E455, size: 0x8, addend: 0x0, symName: '__ZN4core3ptr181drop_in_place$LT$hashbrown..scopeguard..ScopeGuard$LT$$RF$mut$u20$hashbrown..raw..RawTableInner$C$hashbrown..raw..RawTableInner..rehash_in_place..$u7b$$u7b$closure$u7d$$u7d$$GT$$GT$17hb511c560dc365a51E', symObjAddr: 0xAE8, symBinAddr: 0x23868, symSize: 0x24 }
  - { offset: 0x9E484, size: 0x8, addend: 0x0, symName: '__ZN4core3ptr196drop_in_place$LT$hashbrown..scopeguard..ScopeGuard$LT$hashbrown..raw..RawTableInner$C$hashbrown..raw..RawTableInner..prepare_resize$LT$alloc..alloc..Global$GT$..$u7b$$u7b$closure$u7d$$u7d$$GT$$GT$17hf0a57090d98f8789E', symObjAddr: 0xB0C, symBinAddr: 0x2388C, symSize: 0x24 }
  - { offset: 0x9E4B3, size: 0x8, addend: 0x0, symName: '__ZN4core3ptr217drop_in_place$LT$$LT$alloc..vec..into_iter..IntoIter$LT$T$C$A$GT$$u20$as$u20$core..ops..drop..Drop$GT$..drop..DropGuard$LT$$LP$$RF$alloc..string..String$C$$RF$svg..node..value..Value$RP$$C$alloc..alloc..Global$GT$$GT$17h9cafd1c60e0e0514E', symObjAddr: 0xB30, symBinAddr: 0x238B0, symSize: 0x24 }
  - { offset: 0x9E4E2, size: 0x8, addend: 0x0, symName: '__ZN4core3ptr227drop_in_place$LT$alloc..vec..Vec$LT$u8$GT$..extend_trusted$LT$core..iter..adapters..map..Map$LT$core..slice..iter..Iter$LT$u8$GT$$C$alloc..str..replace_ascii..$u7b$$u7b$closure$u7d$$u7d$$GT$$GT$..$u7b$$u7b$closure$u7d$$u7d$$GT$17h31d04f0febcc5247E', symObjAddr: 0xB54, symBinAddr: 0x238D4, symSize: 0x24 }
  - { offset: 0x9E511, size: 0x8, addend: 0x0, symName: '__ZN4core3ptr323drop_in_place$LT$core..iter..traits..iterator..Iterator..for_each..call$LT$u8$C$alloc..vec..Vec$LT$u8$GT$..extend_trusted$LT$core..iter..adapters..map..Map$LT$core..slice..iter..Iter$LT$u8$GT$$C$alloc..str..replace_ascii..$u7b$$u7b$closure$u7d$$u7d$$GT$$GT$..$u7b$$u7b$closure$u7d$$u7d$$GT$..$u7b$$u7b$closure$u7d$$u7d$$GT$17h421fcd57e163c75aE', symObjAddr: 0xB78, symBinAddr: 0x238F8, symSize: 0x24 }
  - { offset: 0x9E540, size: 0x8, addend: 0x0, symName: '__ZN4core3ptr392drop_in_place$LT$alloc..vec..Vec$LT$alloc..string..String$GT$..extend_trusted$LT$core..iter..adapters..map..Map$LT$core..slice..iter..Iter$LT$f32$GT$$C$svg..node..element..path..parameters..$LT$impl$u20$core..convert..From$LT$svg..node..element..path..parameters..Parameters$GT$$u20$for$u20$alloc..string..String$GT$..from..$u7b$$u7b$closure$u7d$$u7d$$GT$$GT$..$u7b$$u7b$closure$u7d$$u7d$$GT$17hcd0c4d34fa36bf70E', symObjAddr: 0xB9C, symBinAddr: 0x2391C, symSize: 0x24 }
  - { offset: 0x9E56F, size: 0x8, addend: 0x0, symName: '__ZN4core3ptr42drop_in_place$LT$alloc..string..String$GT$17h6b47781b23bcabf3E', symObjAddr: 0xC24, symBinAddr: 0x23940, symSize: 0x24 }
  - { offset: 0x9E59E, size: 0x8, addend: 0x0, symName: '__ZN4core3ptr44drop_in_place$LT$svg..node..value..Value$GT$17h88c61169363d6043E', symObjAddr: 0xC48, symBinAddr: 0x23964, symSize: 0x24 }
  - { offset: 0x9E5CD, size: 0x8, addend: 0x0, symName: '__ZN4core3ptr46drop_in_place$LT$alloc..vec..Vec$LT$u8$GT$$GT$17h67437828569ed3b8E', symObjAddr: 0xC6C, symBinAddr: 0x23988, symSize: 0x5C }
  - { offset: 0x9E5FC, size: 0x8, addend: 0x0, symName: '__ZN4core3ptr477drop_in_place$LT$core..iter..adapters..map..map_fold$LT$$RF$u8$C$u8$C$$LP$$RP$$C$alloc..str..replace_ascii..$u7b$$u7b$closure$u7d$$u7d$$C$core..iter..traits..iterator..Iterator..for_each..call$LT$u8$C$alloc..vec..Vec$LT$u8$GT$..extend_trusted$LT$core..iter..adapters..map..Map$LT$core..slice..iter..Iter$LT$u8$GT$$C$alloc..str..replace_ascii..$u7b$$u7b$closure$u7d$$u7d$$GT$$GT$..$u7b$$u7b$closure$u7d$$u7d$$GT$..$u7b$$u7b$closure$u7d$$u7d$$GT$..$u7b$$u7b$closure$u7d$$u7d$$GT$17h3e0401ed1178ecd6E', symObjAddr: 0xCEC, symBinAddr: 0x239E4, symSize: 0x24 }
  - { offset: 0x9E62B, size: 0x8, addend: 0x0, symName: '__ZN4core3ptr47drop_in_place$LT$alloc..vec..Vec$LT$f32$GT$$GT$17h961a730717236221E', symObjAddr: 0xD10, symBinAddr: 0x23A08, symSize: 0x5C }
  - { offset: 0x9E65A, size: 0x8, addend: 0x0, symName: '__ZN4core3ptr507drop_in_place$LT$core..iter..traits..iterator..Iterator..for_each..call$LT$alloc..string..String$C$alloc..vec..Vec$LT$alloc..string..String$GT$..extend_trusted$LT$core..iter..adapters..map..Map$LT$core..slice..iter..Iter$LT$f32$GT$$C$svg..node..element..path..parameters..$LT$impl$u20$core..convert..From$LT$svg..node..element..path..parameters..Parameters$GT$$u20$for$u20$alloc..string..String$GT$..from..$u7b$$u7b$closure$u7d$$u7d$$GT$$GT$..$u7b$$u7b$closure$u7d$$u7d$$GT$..$u7b$$u7b$closure$u7d$$u7d$$GT$17h68dbfbe43c3fdb73E', symObjAddr: 0xD6C, symBinAddr: 0x23A64, symSize: 0x24 }
  - { offset: 0x9E689, size: 0x8, addend: 0x0, symName: '__ZN4core3ptr52drop_in_place$LT$$u5b$alloc..string..String$u5d$$GT$17h13740f58b211a93cE', symObjAddr: 0xD90, symBinAddr: 0x23A88, symSize: 0xC4 }
  - { offset: 0x9E6B8, size: 0x8, addend: 0x0, symName: '__ZN4core3ptr53drop_in_place$LT$alloc..raw_vec..RawVec$LT$u8$GT$$GT$17h32e1266d68ce36daE', symObjAddr: 0xE54, symBinAddr: 0x23B4C, symSize: 0x24 }
  - { offset: 0x9E6E7, size: 0x8, addend: 0x0, symName: '__ZN4core3ptr54drop_in_place$LT$alloc..raw_vec..RawVec$LT$f32$GT$$GT$17h48fef441a8934053E', symObjAddr: 0xE78, symBinAddr: 0x23B70, symSize: 0x24 }
  - { offset: 0x9E716, size: 0x8, addend: 0x0, symName: '__ZN4core3ptr57drop_in_place$LT$svg..node..element..path..data..Data$GT$17hea71a3eae3960609E', symObjAddr: 0xE9C, symBinAddr: 0x23B94, symSize: 0x24 }
  - { offset: 0x9E745, size: 0x8, addend: 0x0, symName: '__ZN4core3ptr62drop_in_place$LT$alloc..vec..set_len_on_drop..SetLenOnDrop$GT$17h1a6634d0178f1e6dE', symObjAddr: 0xEC0, symBinAddr: 0x23BB8, symSize: 0x24 }
  - { offset: 0x9E774, size: 0x8, addend: 0x0, symName: '__ZN4core3ptr63drop_in_place$LT$svg..node..element..path..command..Command$GT$17h45d8c293adfc8445E', symObjAddr: 0xEE4, symBinAddr: 0x23BDC, symSize: 0x144 }
  - { offset: 0x9E7A3, size: 0x8, addend: 0x0, symName: '__ZN4core3ptr65drop_in_place$LT$alloc..vec..Vec$LT$alloc..string..String$GT$$GT$17h055ebfa02c36adc3E', symObjAddr: 0x1028, symBinAddr: 0x23D20, symSize: 0x5C }
  - { offset: 0x9E7D2, size: 0x8, addend: 0x0, symName: '__ZN4core3ptr69drop_in_place$LT$svg..node..element..path..parameters..Parameters$GT$17h72f9d816841aa74dE', symObjAddr: 0x10C8, symBinAddr: 0x23D7C, symSize: 0x24 }
  - { offset: 0x9E801, size: 0x8, addend: 0x0, symName: '__ZN4core3ptr71drop_in_place$LT$core..array..iter..IntoIter$LT$usize$C$2_usize$GT$$GT$17h6d71c3b8344eb124E', symObjAddr: 0x10EC, symBinAddr: 0x23DA0, symSize: 0x5C }
  - { offset: 0x9E830, size: 0x8, addend: 0x0, symName: '__ZN4core3ptr72drop_in_place$LT$alloc..raw_vec..RawVec$LT$alloc..string..String$GT$$GT$17hc0acfe63580e85a9E', symObjAddr: 0x1148, symBinAddr: 0x23DFC, symSize: 0x24 }
  - { offset: 0x9E85F, size: 0x8, addend: 0x0, symName: '__ZN4core3ptr72drop_in_place$LT$core..option..Option$LT$svg..node..value..Value$GT$$GT$17h72ac3f0f05c4ae51E', symObjAddr: 0x116C, symBinAddr: 0x23E20, symSize: 0x48 }
  - { offset: 0x9E88E, size: 0x8, addend: 0x0, symName: '__ZN4core3ptr73drop_in_place$LT$$u5b$svg..node..element..path..command..Command$u5d$$GT$17h8bf35e58b4573573E', symObjAddr: 0x11B4, symBinAddr: 0x23E68, symSize: 0xB4 }
  - { offset: 0x9E8BD, size: 0x8, addend: 0x0, symName: '__ZN4core3ptr76drop_in_place$LT$$LP$alloc..string..String$C$svg..node..value..Value$RP$$GT$17h244fcfe7f744f913E', symObjAddr: 0x1268, symBinAddr: 0x23F1C, symSize: 0x60 }
  - { offset: 0x9E8EC, size: 0x8, addend: 0x0, symName: '__ZN4core3ptr826drop_in_place$LT$core..iter..adapters..map..map_fold$LT$$RF$f32$C$alloc..string..String$C$$LP$$RP$$C$svg..node..element..path..parameters..$LT$impl$u20$core..convert..From$LT$svg..node..element..path..parameters..Parameters$GT$$u20$for$u20$alloc..string..String$GT$..from..$u7b$$u7b$closure$u7d$$u7d$$C$core..iter..traits..iterator..Iterator..for_each..call$LT$alloc..string..String$C$alloc..vec..Vec$LT$alloc..string..String$GT$..extend_trusted$LT$core..iter..adapters..map..Map$LT$core..slice..iter..Iter$LT$f32$GT$$C$svg..node..element..path..parameters..$LT$impl$u20$core..convert..From$LT$svg..node..element..path..parameters..Parameters$GT$$u20$for$u20$alloc..string..String$GT$..from..$u7b$$u7b$closure$u7d$$u7d$$GT$$GT$..$u7b$$u7b$closure$u7d$$u7d$$GT$..$u7b$$u7b$closure$u7d$$u7d$$GT$..$u7b$$u7b$closure$u7d$$u7d$$GT$17h51c76fabb517a67bE', symObjAddr: 0x12C8, symBinAddr: 0x23F7C, symSize: 0x24 }
  - { offset: 0x9E91B, size: 0x8, addend: 0x0, symName: '__ZN4core3ptr86drop_in_place$LT$alloc..vec..Vec$LT$svg..node..element..path..command..Command$GT$$GT$17h383380fb4a186e4aE', symObjAddr: 0x12EC, symBinAddr: 0x23FA0, symSize: 0x5C }
  - { offset: 0x9E94A, size: 0x8, addend: 0x0, symName: '__ZN4core3ptr93drop_in_place$LT$alloc..raw_vec..RawVec$LT$svg..node..element..path..command..Command$GT$$GT$17hf6c51866c966a58dE', symObjAddr: 0x1348, symBinAddr: 0x23FFC, symSize: 0x24 }
  - { offset: 0x9EF8E, size: 0x8, addend: 0x0, symName: '__ZN153_$LT$core..result..Result$LT$T$C$F$GT$$u20$as$u20$core..ops..try_trait..FromResidual$LT$core..result..Result$LT$core..convert..Infallible$C$E$GT$$GT$$GT$13from_residual17h7da5ed53dc15aa69E', symObjAddr: 0x4D0, symBinAddr: 0x234AC, symSize: 0x14 }
  - { offset: 0x9F08F, size: 0x8, addend: 0x0, symName: '__ZN79_$LT$core..result..Result$LT$T$C$E$GT$$u20$as$u20$core..ops..try_trait..Try$GT$6branch17h62516cf7184fe827E', symObjAddr: 0x36FC, symBinAddr: 0x25C84, symSize: 0x38 }
  - { offset: 0x9F471, size: 0x8, addend: 0x0, symName: __ZN4core3ops8function5FnMut8call_mut17hf5da09f294aa0464E, symObjAddr: 0x6C4, symBinAddr: 0x234C0, symSize: 0x30 }
  - { offset: 0x9F4BB, size: 0x8, addend: 0x0, symName: '__ZN4core3ops8function6FnOnce40call_once$u7b$$u7b$vtable.shim$u7d$$u7d$17h2d6cb15790b399bdE', symObjAddr: 0x6F4, symBinAddr: 0x234F0, symSize: 0x38 }
  - { offset: 0x9F4FF, size: 0x8, addend: 0x0, symName: '__ZN4core3ops8function6FnOnce40call_once$u7b$$u7b$vtable.shim$u7d$$u7d$17heee805ebf9156659E', symObjAddr: 0x72C, symBinAddr: 0x23528, symSize: 0x38 }
  - { offset: 0x9F543, size: 0x8, addend: 0x0, symName: __ZN4core3ops8function6FnOnce9call_once17h16fdca71b90bd361E, symObjAddr: 0x764, symBinAddr: 0x23560, symSize: 0x58 }
  - { offset: 0x9F587, size: 0x8, addend: 0x0, symName: __ZN4core3ops8function6FnOnce9call_once17h3fdfb7b26290ff53E, symObjAddr: 0x7BC, symBinAddr: 0x235B8, symSize: 0x2C }
  - { offset: 0x9F5CB, size: 0x8, addend: 0x0, symName: __ZN4core3ops8function6FnOnce9call_once17h598a8117fded206cE, symObjAddr: 0x7E8, symBinAddr: 0x235E4, symSize: 0x4C }
  - { offset: 0x9F60F, size: 0x8, addend: 0x0, symName: __ZN4core3ops8function6FnOnce9call_once17h7cd8f18a6a146d7cE, symObjAddr: 0x860, symBinAddr: 0x23630, symSize: 0x5C }
  - { offset: 0x9F653, size: 0x8, addend: 0x0, symName: __ZN4core3ops8function6FnOnce9call_once17h85503ec1b88e8cf0E, symObjAddr: 0x8BC, symBinAddr: 0x2368C, symSize: 0x1C }
  - { offset: 0x9F697, size: 0x8, addend: 0x0, symName: __ZN4core3ops8function6FnOnce9call_once17hed7a9466619575a3E, symObjAddr: 0x904, symBinAddr: 0x236A8, symSize: 0x44 }
  - { offset: 0x9F7E0, size: 0x8, addend: 0x0, symName: '__ZN118_$LT$$u5b$core..mem..maybe_uninit..MaybeUninit$LT$T$GT$$u5d$$u20$as$u20$core..array..iter..iter_inner..PartialDrop$GT$12partial_drop17h25287abbb123f972E', symObjAddr: 0x2C4, symBinAddr: 0x233B4, symSize: 0xAC }
  - { offset: 0x9F8F2, size: 0x8, addend: 0x0, symName: '__ZN129_$LT$$u5b$core..mem..maybe_uninit..MaybeUninit$LT$T$GT$$u3b$$u20$N$u5d$$u20$as$u20$core..array..iter..iter_inner..PartialDrop$GT$12partial_drop17hd3c520bcd245ddc4E', symObjAddr: 0x370, symBinAddr: 0x23460, symSize: 0x4C }
  - { offset: 0xA0680, size: 0x8, addend: 0x0, symName: '__ZN4core5slice4sort6stable27AlignedStorage$LT$T$C$_$GT$19as_uninit_slice_mut17ha34849bb1f6dac43E', symObjAddr: 0x1E7C, symBinAddr: 0x24854, symSize: 0x84 }
  - { offset: 0xA0974, size: 0x8, addend: 0x0, symName: '__ZN4core5slice4sort6stable5merge19MergeState$LT$T$GT$10merge_down17hef8ed9fccf02b269E', symObjAddr: 0x2980, symBinAddr: 0x25358, symSize: 0x1D4 }
  - { offset: 0xA0B0A, size: 0x8, addend: 0x0, symName: '__ZN4core5slice4sort6stable5merge19MergeState$LT$T$GT$8merge_up17hefbdb06ca079f5eaE', symObjAddr: 0x2B54, symBinAddr: 0x2552C, symSize: 0x194 }
  - { offset: 0xA0C97, size: 0x8, addend: 0x0, symName: '__ZN4core6result19Result$LT$T$C$E$GT$6expect17h125f3a53e332e1e2E', symObjAddr: 0x3104, symBinAddr: 0x25ADC, symSize: 0x84 }
  - { offset: 0xA0CF9, size: 0x8, addend: 0x0, symName: '__ZN4core6result19Result$LT$T$C$E$GT$6expect17hc9746d382dbe98b2E', symObjAddr: 0x3188, symBinAddr: 0x25B60, symSize: 0x78 }
  - { offset: 0xA14BC, size: 0x8, addend: 0x0, symName: '__ZN100_$LT$core..array..iter..iter_inner..PolymorphicIter$LT$DATA$GT$$u20$as$u20$core..ops..drop..Drop$GT$4drop17h99f4cba6f6813a74E', symObjAddr: 0x0, symBinAddr: 0x25DAC, symSize: 0x38 }
  - { offset: 0xA1B8C, size: 0x8, addend: 0x0, symName: '__ZN4core3ptr8non_null16NonNull$LT$T$GT$13new_unchecked18precondition_check17h99d17aac22ee4573E', symObjAddr: 0x42C, symBinAddr: 0x26034, symSize: 0xA4 }
  - { offset: 0xA2500, size: 0x8, addend: 0x0, symName: '__ZN100_$LT$core..array..iter..iter_inner..PolymorphicIter$LT$DATA$GT$$u20$as$u20$core..ops..drop..Drop$GT$4drop17h99f4cba6f6813a74E', symObjAddr: 0x0, symBinAddr: 0x25DAC, symSize: 0x38 }
  - { offset: 0xA2EAD, size: 0x8, addend: 0x0, symName: '__ZN50_$LT$T$u20$as$u20$core..convert..Into$LT$U$GT$$GT$4into17h717f0b5341dc3010E', symObjAddr: 0x1EE4, symBinAddr: 0x27AEC, symSize: 0x28 }
  - { offset: 0xA3631, size: 0x8, addend: 0x0, symName: __ZN4core4hash3sip9u8to64_le17h31be37cefe5af4a9E, symObjAddr: 0x74C, symBinAddr: 0x26354, symSize: 0x240 }
  - { offset: 0xA37EE, size: 0x8, addend: 0x0, symName: '__ZN69_$LT$core..hash..sip..Sip13Rounds$u20$as$u20$core..hash..sip..Sip$GT$8c_rounds17hd8920d309072e995E', symObjAddr: 0x21BC, symBinAddr: 0x27DC4, symSize: 0x170 }
  - { offset: 0xA3964, size: 0x8, addend: 0x0, symName: '__ZN69_$LT$core..hash..sip..Sip13Rounds$u20$as$u20$core..hash..sip..Sip$GT$8d_rounds17h4c13b58dd213d21bE', symObjAddr: 0x232C, symBinAddr: 0x27F34, symSize: 0x408 }
  - { offset: 0xA3D9C, size: 0x8, addend: 0x0, symName: '__ZN71_$LT$core..hash..sip..Hasher$LT$S$GT$$u20$as$u20$core..hash..Hasher$GT$5write17h87956684d4d0f73fE', symObjAddr: 0x2734, symBinAddr: 0x2833C, symSize: 0x238 }
  - { offset: 0xA3F12, size: 0x8, addend: 0x0, symName: '__ZN71_$LT$core..hash..sip..Hasher$LT$S$GT$$u20$as$u20$core..hash..Hasher$GT$6finish17h0f226483c027011eE', symObjAddr: 0x296C, symBinAddr: 0x28574, symSize: 0xA0 }
  - { offset: 0xA3F85, size: 0x8, addend: 0x0, symName: '__ZN71_$LT$core..hash..sip..Hasher$LT$S$GT$$u20$as$u20$core..hash..Hasher$GT$9write_str17hdf96698581fbc76dE', symObjAddr: 0x2A0C, symBinAddr: 0x28614, symSize: 0x5C }
  - { offset: 0xA42B5, size: 0x8, addend: 0x0, symName: __ZN4core5slice3raw14from_raw_parts18precondition_check17h1c561a13120b95c0E, symObjAddr: 0xB1C, symBinAddr: 0x26724, symSize: 0x1D8 }
  - { offset: 0xA4453, size: 0x8, addend: 0x0, symName: __ZN4core5slice3raw18from_raw_parts_mut18precondition_check17h60ca2b5de00b3509E, symObjAddr: 0xCF4, symBinAddr: 0x268FC, symSize: 0x1D8 }
  - { offset: 0xA46A3, size: 0x8, addend: 0x0, symName: __ZN4core5slice4sort6stable9quicksort16stable_partition17h51e74cd569dcbd1bE, symObjAddr: 0xECC, symBinAddr: 0x26AD4, symSize: 0x56C }
  - { offset: 0xA4B25, size: 0x8, addend: 0x0, symName: __ZN4core5slice4sort6stable9quicksort16stable_partition17h8b957f260ec3e8c2E, symObjAddr: 0x1438, symBinAddr: 0x27040, symSize: 0x56C }
  - { offset: 0xA4FA7, size: 0x8, addend: 0x0, symName: __ZN4core5slice4sort6stable9quicksort9quicksort17hc07c4c8acca7d889E, symObjAddr: 0x1AE8, symBinAddr: 0x276F0, symSize: 0x3B4 }
  - { offset: 0xA523F, size: 0x8, addend: 0x0, symName: '__ZN4core5slice4sort6stable9quicksort9quicksort28_$u7b$$u7b$closure$u7d$$u7d$17hd0dac5b732e67a6dE', symObjAddr: 0x1E9C, symBinAddr: 0x27AA4, symSize: 0x48 }
  - { offset: 0xA57EA, size: 0x8, addend: 0x0, symName: '__ZN3std6thread5local17LocalKey$LT$T$GT$4with17hda29dd7d0ea7d72aE', symObjAddr: 0x38, symBinAddr: 0x25DE4, symSize: 0x50 }
  - { offset: 0xA58A3, size: 0x8, addend: 0x0, symName: '__ZN3std6thread5local17LocalKey$LT$T$GT$8try_with17hdbc3635a3d60b088E', symObjAddr: 0x88, symBinAddr: 0x25E34, symSize: 0xE8 }
  - { offset: 0xA59F3, size: 0x8, addend: 0x0, symName: __ZN3svg4node4text6escape17hd18fd8f408c980caE, symObjAddr: 0x170, symBinAddr: 0x25F1C, symSize: 0x118 }
  - { offset: 0xA5CAC, size: 0x8, addend: 0x0, symName: '__ZN63_$LT$alloc..alloc..Global$u20$as$u20$core..alloc..Allocator$GT$10deallocate17h385a6647b20177f0E', symObjAddr: 0x2108, symBinAddr: 0x27D10, symSize: 0x80 }
  - { offset: 0xA5D73, size: 0x8, addend: 0x0, symName: '__ZN63_$LT$alloc..alloc..Global$u20$as$u20$core..alloc..Allocator$GT$8allocate17h48c602396dea9bcdE', symObjAddr: 0x2188, symBinAddr: 0x27D90, symSize: 0x34 }
  - { offset: 0xA5E87, size: 0x8, addend: 0x0, symName: '__ZN4core3ptr8non_null16NonNull$LT$T$GT$20offset_from_unsigned17h8d5aea941b6e4f14E', symObjAddr: 0x4D0, symBinAddr: 0x260D8, symSize: 0x7C }
  - { offset: 0xA5F98, size: 0x8, addend: 0x0, symName: '__ZN4core3ptr8non_null16NonNull$LT$T$GT$20offset_from_unsigned17hb6597a64c9d4e117E', symObjAddr: 0x54C, symBinAddr: 0x26154, symSize: 0x7C }
  - { offset: 0xA6095, size: 0x8, addend: 0x0, symName: '__ZN4core3ptr8non_null16NonNull$LT$T$GT$20offset_from_unsigned17hc0359941dfc96a86E', symObjAddr: 0x5C8, symBinAddr: 0x261D0, symSize: 0x7C }
  - { offset: 0xA61D7, size: 0x8, addend: 0x0, symName: '__ZN4core3ptr8non_null16NonNull$LT$T$GT$20offset_from_unsigned17hd6c839fed8714557E', symObjAddr: 0x644, symBinAddr: 0x2624C, symSize: 0x7C }
  - { offset: 0xA62B8, size: 0x8, addend: 0x0, symName: '__ZN4core4hash3sip15Hasher$LT$S$GT$5reset17h8c3b352e965d7c71E', symObjAddr: 0x6C0, symBinAddr: 0x262C8, symSize: 0x8C }
  - { offset: 0xA647C, size: 0x8, addend: 0x0, symName: '__ZN4core5array4iter10iter_inner78PolymorphicIter$LT$$u5b$core..mem..maybe_uninit..MaybeUninit$LT$T$GT$$u5d$$GT$4next17hd42eb9404afcf91fE', symObjAddr: 0x98C, symBinAddr: 0x26594, symSize: 0x190 }
  - { offset: 0xA680C, size: 0x8, addend: 0x0, symName: '__ZN4core5slice4sort6stable9quicksort23PartitionState$LT$T$GT$13partition_one17h4c74ee7498385b6cE', symObjAddr: 0x19A4, symBinAddr: 0x275AC, symSize: 0x144 }
  - { offset: 0xA6AF7, size: 0x8, addend: 0x0, symName: __ZN5alloc5alloc6Global10alloc_impl17h105416c60bd61523E, symObjAddr: 0x1F0C, symBinAddr: 0x27B14, symSize: 0x1FC }
  - { offset: 0xA853E, size: 0x8, addend: 0x0, symName: '__ZN44_$LT$$RF$T$u20$as$u20$core..fmt..Display$GT$3fmt17h8f281dce43562e3fE', symObjAddr: 0x60C8, symBinAddr: 0x2A1D4, symSize: 0x30 }
  - { offset: 0xA8584, size: 0x8, addend: 0x0, symName: '__ZN44_$LT$$RF$T$u20$as$u20$core..fmt..Display$GT$3fmt17h98969d882409d365E', symObjAddr: 0x60F8, symBinAddr: 0x2A204, symSize: 0x30 }
  - { offset: 0xA8712, size: 0x8, addend: 0x0, symName: '__ZN4core5array4iter94_$LT$impl$u20$core..iter..traits..collect..IntoIterator$u20$for$u20$$u5b$T$u3b$$u20$N$u5d$$GT$9into_iter17hf33700d3938d10c9E', symObjAddr: 0x6208, symBinAddr: 0x2A294, symSize: 0x48 }
  - { offset: 0xAB07E, size: 0x8, addend: 0x0, symName: '__ZN50_$LT$T$u20$as$u20$core..convert..Into$LT$U$GT$$GT$4into17h4579b01bc3247b8aE', symObjAddr: 0xD828, symBinAddr: 0x2CFD4, symSize: 0x24 }
  - { offset: 0xAB0BE, size: 0x8, addend: 0x0, symName: '__ZN50_$LT$T$u20$as$u20$core..convert..Into$LT$U$GT$$GT$4into17h83d4f328ddabbd89E', symObjAddr: 0xD84C, symBinAddr: 0x2CFF8, symSize: 0x24 }
  - { offset: 0xAB0FE, size: 0x8, addend: 0x0, symName: '__ZN50_$LT$T$u20$as$u20$core..convert..Into$LT$U$GT$$GT$4into17hc7f744f241f3623bE', symObjAddr: 0xD894, symBinAddr: 0x2D01C, symSize: 0x24 }
  - { offset: 0xAB15E, size: 0x8, addend: 0x0, symName: '__ZN63_$LT$I$u20$as$u20$core..iter..traits..collect..IntoIterator$GT$9into_iter17hbbc39653b6540a8eE', symObjAddr: 0xD8DC, symBinAddr: 0x2D040, symSize: 0x14 }
  - { offset: 0xAB1B5, size: 0x8, addend: 0x0, symName: '__ZN103_$LT$pyo3..instance..Bound$LT$pyo3..types..any..PyAny$GT$$u20$as$u20$pyo3..types..any..PyAnyMethods$GT$14is_instance_of17ha696dbf1ea500a11E', symObjAddr: 0x160, symBinAddr: 0x28670, symSize: 0x24 }
  - { offset: 0xAB1EC, size: 0x8, addend: 0x0, symName: '__ZN103_$LT$pyo3..instance..Bound$LT$pyo3..types..any..PyAny$GT$$u20$as$u20$pyo3..types..any..PyAnyMethods$GT$20is_exact_instance_of17h38cc8b59d87b9ceaE', symObjAddr: 0x184, symBinAddr: 0x28694, symSize: 0x24 }
  - { offset: 0xAB223, size: 0x8, addend: 0x0, symName: '__ZN103_$LT$pyo3..instance..Bound$LT$pyo3..types..any..PyAny$GT$$u20$as$u20$pyo3..types..any..PyAnyMethods$GT$2is17h0d98d087ec77ba7eE', symObjAddr: 0x1A8, symBinAddr: 0x286B8, symSize: 0xA4 }
  - { offset: 0xAB28F, size: 0x8, addend: 0x0, symName: '__ZN103_$LT$pyo3..instance..Bound$LT$pyo3..types..any..PyAny$GT$$u20$as$u20$pyo3..types..any..PyAnyMethods$GT$3len17h1afa11a07e1f494aE', symObjAddr: 0x680, symBinAddr: 0x2875C, symSize: 0xBC }
  - { offset: 0xAB2FA, size: 0x8, addend: 0x0, symName: '__ZN103_$LT$pyo3..instance..Bound$LT$pyo3..types..any..PyAny$GT$$u20$as$u20$pyo3..types..any..PyAnyMethods$GT$3str17hcfe5da6a43618b67E', symObjAddr: 0xB24, symBinAddr: 0x28818, symSize: 0x5C }
  - { offset: 0xAB328, size: 0x8, addend: 0x0, symName: '__ZN103_$LT$pyo3..instance..Bound$LT$pyo3..types..any..PyAny$GT$$u20$as$u20$pyo3..types..any..PyAnyMethods$GT$4repr17hcab56e9be8d23f6eE', symObjAddr: 0xFB8, symBinAddr: 0x28874, symSize: 0x5C }
  - { offset: 0xAB356, size: 0x8, addend: 0x0, symName: '__ZN103_$LT$pyo3..instance..Bound$LT$pyo3..types..any..PyAny$GT$$u20$as$u20$pyo3..types..any..PyAnyMethods$GT$5call017h15517d155f8692d1E', symObjAddr: 0x1014, symBinAddr: 0x288D0, symSize: 0x4C }
  - { offset: 0xAB384, size: 0x8, addend: 0x0, symName: '__ZN103_$LT$pyo3..instance..Bound$LT$pyo3..types..any..PyAny$GT$$u20$as$u20$pyo3..types..any..PyAnyMethods$GT$7extract17h546e6254a457195dE', symObjAddr: 0x12F8, symBinAddr: 0x2891C, symSize: 0x30 }
  - { offset: 0xAB3BB, size: 0x8, addend: 0x0, symName: '__ZN103_$LT$pyo3..instance..Bound$LT$pyo3..types..any..PyAny$GT$$u20$as$u20$pyo3..types..any..PyAnyMethods$GT$7getattr17h0a85236fd2e643e3E', symObjAddr: 0x1418, symBinAddr: 0x2894C, symSize: 0x150 }
  - { offset: 0xAB43E, size: 0x8, addend: 0x0, symName: '__ZN103_$LT$pyo3..instance..Bound$LT$pyo3..types..any..PyAny$GT$$u20$as$u20$pyo3..types..any..PyAnyMethods$GT$7getattr17h5a7ff6011f37420eE', symObjAddr: 0x1568, symBinAddr: 0x28A9C, symSize: 0x130 }
  - { offset: 0xAB4C1, size: 0x8, addend: 0x0, symName: '__ZN103_$LT$pyo3..instance..Bound$LT$pyo3..types..any..PyAny$GT$$u20$as$u20$pyo3..types..any..PyAnyMethods$GT$7is_none17he17a8027be17031eE', symObjAddr: 0x1698, symBinAddr: 0x28BCC, symSize: 0x4C }
  - { offset: 0xAB515, size: 0x8, addend: 0x0, symName: '__ZN103_$LT$pyo3..instance..Bound$LT$pyo3..types..any..PyAny$GT$$u20$as$u20$pyo3..types..any..PyAnyMethods$GT$7setattr17h4172821ffcdcdd1cE', symObjAddr: 0x16E4, symBinAddr: 0x28C18, symSize: 0x204 }
  - { offset: 0xAB5DF, size: 0x8, addend: 0x0, symName: '__ZN103_$LT$pyo3..instance..Bound$LT$pyo3..types..any..PyAny$GT$$u20$as$u20$pyo3..types..any..PyAnyMethods$GT$7setattr17hb8a048c98aa2df06E', symObjAddr: 0x18E8, symBinAddr: 0x28E1C, symSize: 0x204 }
  - { offset: 0xAB6A9, size: 0x8, addend: 0x0, symName: '__ZN103_$LT$pyo3..instance..Bound$LT$pyo3..types..any..PyAny$GT$$u20$as$u20$pyo3..types..any..PyAnyMethods$GT$8get_type17h2919b720ea0789b5E', symObjAddr: 0x1D68, symBinAddr: 0x29020, symSize: 0x38 }
  - { offset: 0xAB6D7, size: 0x8, addend: 0x0, symName: '__ZN103_$LT$pyo3..instance..Bound$LT$pyo3..types..any..PyAny$GT$$u20$as$u20$pyo3..types..any..PyAnyMethods$GT$8try_iter17h3c4117f92783280aE', symObjAddr: 0x1E54, symBinAddr: 0x29058, symSize: 0x24 }
  - { offset: 0xAB7AA, size: 0x8, addend: 0x0, symName: '__ZN107_$LT$pyo3..instance..Bound$LT$pyo3..types..list..PyList$GT$$u20$as$u20$pyo3..types..list..PyListMethods$GT$6append17h8721045301b7ba61E', symObjAddr: 0x2B28, symBinAddr: 0x290C4, symSize: 0x134 }
  - { offset: 0xAB83E, size: 0x8, addend: 0x0, symName: '__ZN111_$LT$pyo3..instance..Bound$LT$pyo3..types..bytes..PyBytes$GT$$u20$as$u20$pyo3..types..bytes..PyBytesMethods$GT$8as_bytes17h102fe65214d9f330E', symObjAddr: 0x2DFC, symBinAddr: 0x291F8, symSize: 0x28 }
  - { offset: 0xAB88B, size: 0x8, addend: 0x0, symName: '__ZN111_$LT$pyo3..instance..Bound$LT$pyo3..types..float..PyFloat$GT$$u20$as$u20$pyo3..types..float..PyFloatMethods$GT$5value17heeb8e4bf8fb17e66E', symObjAddr: 0x2E24, symBinAddr: 0x29220, symSize: 0x28 }
  - { offset: 0xAB90E, size: 0x8, addend: 0x0, symName: '__ZN111_$LT$pyo3..instance..Bound$LT$pyo3..types..tuple..PyTuple$GT$$u20$as$u20$pyo3..types..tuple..PyTupleMethods$GT$3len17h24984b757c3e4fb7E', symObjAddr: 0x3368, symBinAddr: 0x29248, symSize: 0x2C }
  - { offset: 0xAB93A, size: 0x8, addend: 0x0, symName: '__ZN111_$LT$pyo3..instance..Bound$LT$pyo3..types..tuple..PyTuple$GT$$u20$as$u20$pyo3..types..tuple..PyTupleMethods$GT$4iter17h0caa5b7e4555aaebE', symObjAddr: 0x3394, symBinAddr: 0x29274, symSize: 0x30 }
  - { offset: 0xABA52, size: 0x8, addend: 0x0, symName: '__ZN115_$LT$pyo3..instance..Bound$LT$pyo3..types..module..PyModule$GT$$u20$as$u20$pyo3..types..module..PyModuleMethods$GT$12add_function17hf09e61ecb65a6e2cE', symObjAddr: 0x370C, symBinAddr: 0x292A4, symSize: 0x1E0 }
  - { offset: 0xABB01, size: 0x8, addend: 0x0, symName: '__ZN115_$LT$pyo3..instance..Bound$LT$pyo3..types..module..PyModule$GT$$u20$as$u20$pyo3..types..module..PyModuleMethods$GT$3add17h923b285f7ef4d474E', symObjAddr: 0x3B48, symBinAddr: 0x29484, symSize: 0x250 }
  - { offset: 0xABBCA, size: 0x8, addend: 0x0, symName: '__ZN115_$LT$pyo3..instance..Bound$LT$pyo3..types..module..PyModule$GT$$u20$as$u20$pyo3..types..module..PyModuleMethods$GT$4name17h1d20d836d94f643cE', symObjAddr: 0x4274, symBinAddr: 0x296D4, symSize: 0x5C }
  - { offset: 0xABBF8, size: 0x8, addend: 0x0, symName: '__ZN115_$LT$pyo3..instance..Bound$LT$pyo3..types..module..PyModule$GT$$u20$as$u20$pyo3..types..module..PyModuleMethods$GT$5index17h3d1395bf2747f885E', symObjAddr: 0x42D0, symBinAddr: 0x29730, symSize: 0x244 }
  - { offset: 0xABCC8, size: 0x8, addend: 0x0, symName: '__ZN115_$LT$pyo3..instance..Bound$LT$pyo3..types..string..PyString$GT$$u20$as$u20$pyo3..types..string..PyStringMethods$GT$15to_string_lossy17hfc02582f789eed5bE', symObjAddr: 0x45E4, symBinAddr: 0x29974, symSize: 0x30 }
  - { offset: 0xABCF6, size: 0x8, addend: 0x0, symName: '__ZN115_$LT$pyo3..instance..Bound$LT$pyo3..types..string..PyString$GT$$u20$as$u20$pyo3..types..string..PyStringMethods$GT$6to_cow17h8485b1153e0c6370E', symObjAddr: 0x4644, symBinAddr: 0x299A4, symSize: 0x30 }
  - { offset: 0xABE15, size: 0x8, addend: 0x0, symName: '__ZN119_$LT$pyo3..instance..Bound$LT$pyo3..types..typeobject..PyType$GT$$u20$as$u20$pyo3..types..typeobject..PyTypeMethods$GT$11as_type_ptr17hf64a6d743c4c11fcE', symObjAddr: 0x4E60, symBinAddr: 0x299D4, symSize: 0x24 }
  - { offset: 0xABE41, size: 0x8, addend: 0x0, symName: '__ZN119_$LT$pyo3..instance..Bound$LT$pyo3..types..typeobject..PyType$GT$$u20$as$u20$pyo3..types..typeobject..PyTypeMethods$GT$4name17hde4271c34ca2226bE', symObjAddr: 0x50D8, symBinAddr: 0x299F8, symSize: 0xC8 }
  - { offset: 0xABEA8, size: 0x8, addend: 0x0, symName: '__ZN119_$LT$pyo3..instance..Bound$LT$pyo3..types..typeobject..PyType$GT$$u20$as$u20$pyo3..types..typeobject..PyTypeMethods$GT$8qualname17h336be75cec914f52E', symObjAddr: 0x5368, symBinAddr: 0x29AC0, symSize: 0xC8 }
  - { offset: 0xABF81, size: 0x8, addend: 0x0, symName: '__ZN127_$LT$pyo3..instance..Bound$LT$pyo3..types..traceback..PyTraceback$GT$$u20$as$u20$pyo3..types..traceback..PyTracebackMethods$GT$6format17hbc27d4f2679c735dE', symObjAddr: 0x56D8, symBinAddr: 0x29B88, symSize: 0x5B8 }
  - { offset: 0xAC1F3, size: 0x8, addend: 0x0, symName: '__ZN4pyo35types8iterator131_$LT$impl$u20$core..iter..traits..iterator..Iterator$u20$for$u20$pyo3..instance..Bound$LT$pyo3..types..iterator..PyIterator$GT$$GT$4next17hd51cbc2062996232E', symObjAddr: 0x8130, symBinAddr: 0x2A810, symSize: 0x134 }
  - { offset: 0xAC30D, size: 0x8, addend: 0x0, symName: '__ZN105_$LT$pyo3..instance..Py$LT$T$GT$$u20$as$u20$core..convert..From$LT$pyo3..instance..Bound$LT$T$GT$$GT$$GT$4from17h25d1bf3777b800b1E', symObjAddr: 0x1FDC, symBinAddr: 0x2907C, symSize: 0x24 }
  - { offset: 0xAC344, size: 0x8, addend: 0x0, symName: '__ZN105_$LT$pyo3..instance..Py$LT$T$GT$$u20$as$u20$core..convert..From$LT$pyo3..instance..Bound$LT$T$GT$$GT$$GT$4from17ha88da9f441f1ab45E', symObjAddr: 0x2024, symBinAddr: 0x290A0, symSize: 0x24 }
  - { offset: 0xAC381, size: 0x8, addend: 0x0, symName: '__ZN127_$LT$pyo3..instance..Py$LT$pyo3..types..any..PyAny$GT$$u20$as$u20$core..convert..From$LT$pyo3..instance..Bound$LT$T$GT$$GT$$GT$4from17h532bd4316b93787aE', symObjAddr: 0x5C90, symBinAddr: 0x2A140, symSize: 0x28 }
  - { offset: 0xAC3BE, size: 0x8, addend: 0x0, symName: '__ZN128_$LT$pyo3..instance..Bound$LT$T$GT$$u20$as$u20$core..convert..AsRef$LT$pyo3..instance..Py$LT$pyo3..types..any..PyAny$GT$$GT$$GT$6as_ref17h0d37f92c5f148bd2E', symObjAddr: 0x5CB8, symBinAddr: 0x2A168, symSize: 0x28 }
  - { offset: 0xAEDB1, size: 0x8, addend: 0x0, symName: __ZN4pyo38instance13panic_on_null17hde22bbb64d627327E, symObjAddr: 0x9B98, symBinAddr: 0x7C42C, symSize: 0x70 }
  - { offset: 0xAEE06, size: 0x8, addend: 0x0, symName: __ZN4pyo38instance13python_format17he133deec7be54447E, symObjAddr: 0x9C08, symBinAddr: 0x2B200, symSize: 0x2E8 }
  - { offset: 0xB00E0, size: 0x8, addend: 0x0, symName: '__ZN4pyo38instance14Bound$LT$T$GT$4cast5inner17h3497ec5854d9fe72E', symObjAddr: 0xAB60, symBinAddr: 0x2BA00, symSize: 0x84 }
  - { offset: 0xB0115, size: 0x8, addend: 0x0, symName: '__ZN4pyo38instance14Bound$LT$T$GT$4cast5inner17h5b722055a9140dc0E', symObjAddr: 0xABE4, symBinAddr: 0x2BA84, symSize: 0x84 }
  - { offset: 0xB014A, size: 0x8, addend: 0x0, symName: '__ZN4pyo38instance14Bound$LT$T$GT$4cast5inner17h6d6bc9e8e87f6773E', symObjAddr: 0xAC68, symBinAddr: 0x2BB08, symSize: 0x84 }
  - { offset: 0xB0185, size: 0x8, addend: 0x0, symName: '__ZN4pyo38instance14Bound$LT$T$GT$9cast_into5inner17h1420dc6075ca3f73E', symObjAddr: 0xBE1C, symBinAddr: 0x2C37C, symSize: 0xFC }
  - { offset: 0xB01D7, size: 0x8, addend: 0x0, symName: '__ZN4pyo38instance14Bound$LT$T$GT$9cast_into5inner17h42c585845d4aec5cE', symObjAddr: 0xBF18, symBinAddr: 0x2C478, symSize: 0xFC }
  - { offset: 0xB0229, size: 0x8, addend: 0x0, symName: '__ZN4pyo38instance14Bound$LT$T$GT$9cast_into5inner17h8dedc297ea0d94bdE', symObjAddr: 0xC110, symBinAddr: 0x2C574, symSize: 0xFC }
  - { offset: 0xB027B, size: 0x8, addend: 0x0, symName: '__ZN4pyo38instance14Bound$LT$T$GT$9cast_into5inner17h9a6cf976f3a41626E', symObjAddr: 0xC20C, symBinAddr: 0x2C670, symSize: 0xFC }
  - { offset: 0xB02CD, size: 0x8, addend: 0x0, symName: '__ZN4pyo38instance14Bound$LT$T$GT$9cast_into5inner17hfea5377c56d4449eE', symObjAddr: 0xC6F8, symBinAddr: 0x2C76C, symSize: 0xFC }
  - { offset: 0xB0361, size: 0x8, addend: 0x0, symName: '__ZN4pyo38instance17Borrowed$LT$T$GT$10cast_exact5inner17h11e24dafa9754b2cE', symObjAddr: 0xC824, symBinAddr: 0x2C898, symSize: 0x7C }
  - { offset: 0xB039E, size: 0x8, addend: 0x0, symName: '__ZN4pyo38instance17Borrowed$LT$T$GT$4cast5inner17h96315f40f4269a6aE', symObjAddr: 0xCC9C, symBinAddr: 0x2CA50, symSize: 0x7C }
  - { offset: 0xB03D5, size: 0x8, addend: 0x0, symName: '__ZN4pyo38instance17Borrowed$LT$T$GT$4cast5inner17hbda63f8725deef8aE', symObjAddr: 0xCD18, symBinAddr: 0x2CACC, symSize: 0x7C }
  - { offset: 0xB0564, size: 0x8, addend: 0x0, symName: '__ZN4pyo38instance36Bound$LT$pyo3..types..any..PyAny$GT$14from_owned_ptr28_$u7b$$u7b$closure$u7d$$u7d$17h177b62862f17bc43E', symObjAddr: 0xD400, symBinAddr: 0x2CD6C, symSize: 0x1C }
  - { offset: 0xB05B7, size: 0x8, addend: 0x0, symName: '__ZN4pyo38instance36Bound$LT$pyo3..types..any..PyAny$GT$21from_owned_ptr_or_opt28_$u7b$$u7b$closure$u7d$$u7d$17h49b1ed56df42d9e3E', symObjAddr: 0xD554, symBinAddr: 0x2CE88, symSize: 0x38 }
  - { offset: 0xB061F, size: 0x8, addend: 0x0, symName: '__ZN4pyo38instance39Borrowed$LT$pyo3..types..any..PyAny$GT$15from_ptr_or_err28_$u7b$$u7b$closure$u7d$$u7d$17hec0aac017c484902E', symObjAddr: 0xD610, symBinAddr: 0x2CF0C, symSize: 0x40 }
  - { offset: 0xB0668, size: 0x8, addend: 0x0, symName: '__ZN4pyo38instance39Borrowed$LT$pyo3..types..any..PyAny$GT$15from_ptr_or_err28_$u7b$$u7b$closure$u7d$$u7d$17hec91cdcb175270f2E', symObjAddr: 0xD650, symBinAddr: 0x2CF4C, symSize: 0x58 }
  - { offset: 0xB06CF, size: 0x8, addend: 0x0, symName: '__ZN67_$LT$pyo3..instance..Bound$LT$T$GT$$u20$as$u20$core..fmt..Debug$GT$3fmt17h6eead6837ad2316fE', symObjAddr: 0xD944, symBinAddr: 0x2D054, symSize: 0x54 }
  - { offset: 0xB0733, size: 0x8, addend: 0x0, symName: '__ZN67_$LT$pyo3..instance..Bound$LT$T$GT$$u20$as$u20$core..fmt..Debug$GT$3fmt17hb074831cef7a6d86E', symObjAddr: 0xD998, symBinAddr: 0x2D0A8, symSize: 0x54 }
  - { offset: 0xB0797, size: 0x8, addend: 0x0, symName: '__ZN67_$LT$pyo3..instance..Bound$LT$T$GT$$u20$as$u20$core..fmt..Debug$GT$3fmt17hb179fd2d4891eadaE', symObjAddr: 0xD9EC, symBinAddr: 0x2D0FC, symSize: 0x54 }
  - { offset: 0xB0801, size: 0x8, addend: 0x0, symName: '__ZN69_$LT$pyo3..instance..Bound$LT$T$GT$$u20$as$u20$core..clone..Clone$GT$5clone17h174b2677595ec62cE', symObjAddr: 0xDA74, symBinAddr: 0x2D150, symSize: 0x34 }
  - { offset: 0xB0838, size: 0x8, addend: 0x0, symName: '__ZN69_$LT$pyo3..instance..Bound$LT$T$GT$$u20$as$u20$core..clone..Clone$GT$5clone17h2048f5d589bafd3dE', symObjAddr: 0xDADC, symBinAddr: 0x2D184, symSize: 0x34 }
  - { offset: 0xB086F, size: 0x8, addend: 0x0, symName: '__ZN69_$LT$pyo3..instance..Bound$LT$T$GT$$u20$as$u20$core..clone..Clone$GT$5clone17hc20604dd4e713044E', symObjAddr: 0xDC48, symBinAddr: 0x2D1B8, symSize: 0x34 }
  - { offset: 0xB08A6, size: 0x8, addend: 0x0, symName: '__ZN69_$LT$pyo3..instance..Bound$LT$T$GT$$u20$as$u20$core..clone..Clone$GT$5clone17hc285cbc358643dddE', symObjAddr: 0xDC7C, symBinAddr: 0x2D1EC, symSize: 0x34 }
  - { offset: 0xB08E3, size: 0x8, addend: 0x0, symName: '__ZN69_$LT$pyo3..instance..Bound$LT$T$GT$$u20$as$u20$core..fmt..Display$GT$3fmt17h2c762be0f973950cE', symObjAddr: 0xDCB0, symBinAddr: 0x2D220, symSize: 0x54 }
  - { offset: 0xB0947, size: 0x8, addend: 0x0, symName: '__ZN69_$LT$pyo3..instance..Bound$LT$T$GT$$u20$as$u20$core..fmt..Display$GT$3fmt17h4466229b53eedf49E', symObjAddr: 0xDD04, symBinAddr: 0x2D274, symSize: 0x54 }
  - { offset: 0xB09AB, size: 0x8, addend: 0x0, symName: '__ZN69_$LT$pyo3..instance..Bound$LT$T$GT$$u20$as$u20$core..fmt..Display$GT$3fmt17h91155bd9d92d71adE', symObjAddr: 0xDD58, symBinAddr: 0x2D2C8, symSize: 0x54 }
  - { offset: 0xB0A15, size: 0x8, addend: 0x0, symName: '__ZN69_$LT$pyo3..instance..Py$LT$T$GT$$u20$as$u20$core..ops..drop..Drop$GT$4drop17h2c56d618347e1757E', symObjAddr: 0xDE00, symBinAddr: 0x2D31C, symSize: 0x28 }
  - { offset: 0xB0A48, size: 0x8, addend: 0x0, symName: '__ZN69_$LT$pyo3..instance..Py$LT$T$GT$$u20$as$u20$core..ops..drop..Drop$GT$4drop17h522401c66c54ab4bE', symObjAddr: 0xDE50, symBinAddr: 0x2D344, symSize: 0x28 }
  - { offset: 0xB0A7B, size: 0x8, addend: 0x0, symName: '__ZN69_$LT$pyo3..instance..Py$LT$T$GT$$u20$as$u20$core..ops..drop..Drop$GT$4drop17h84a4720b4a7ed005E', symObjAddr: 0xDEA0, symBinAddr: 0x2D36C, symSize: 0x28 }
  - { offset: 0xB0AAE, size: 0x8, addend: 0x0, symName: '__ZN69_$LT$pyo3..instance..Py$LT$T$GT$$u20$as$u20$core..ops..drop..Drop$GT$4drop17h9fd4a5689425129aE', symObjAddr: 0xDEC8, symBinAddr: 0x2D394, symSize: 0x28 }
  - { offset: 0xB0AE6, size: 0x8, addend: 0x0, symName: '__ZN69_$LT$pyo3..instance..Py$LT$T$GT$$u20$as$u20$core..ops..drop..Drop$GT$4drop5inner17h60b684d7166f921aE', symObjAddr: 0xDEF0, symBinAddr: 0x2D3BC, symSize: 0x1DC }
  - { offset: 0xB0B61, size: 0x8, addend: 0x0, symName: '__ZN69_$LT$pyo3..instance..Py$LT$T$GT$$u20$as$u20$core..ops..drop..Drop$GT$4drop9drop_slow17h600b9bc12d0cf0ebE', symObjAddr: 0xE0CC, symBinAddr: 0x7C49C, symSize: 0x24 }
  - { offset: 0xB0B92, size: 0x8, addend: 0x0, symName: '__ZN72_$LT$pyo3..instance..Bound$LT$T$GT$$u20$as$u20$core..ops..drop..Drop$GT$4drop17h0163a90177d1a2cdE', symObjAddr: 0xE124, symBinAddr: 0x2D598, symSize: 0x1A8 }
  - { offset: 0xB0C01, size: 0x8, addend: 0x0, symName: '__ZN72_$LT$pyo3..instance..Bound$LT$T$GT$$u20$as$u20$core..ops..drop..Drop$GT$4drop17h4bb48b1f923357e9E', symObjAddr: 0xE2CC, symBinAddr: 0x2D740, symSize: 0x1A8 }
  - { offset: 0xB0C70, size: 0x8, addend: 0x0, symName: '__ZN72_$LT$pyo3..instance..Bound$LT$T$GT$$u20$as$u20$core..ops..drop..Drop$GT$4drop17h4ef9309c0bd1c3f4E', symObjAddr: 0xE474, symBinAddr: 0x2D8E8, symSize: 0x1A8 }
  - { offset: 0xB0CDF, size: 0x8, addend: 0x0, symName: '__ZN72_$LT$pyo3..instance..Bound$LT$T$GT$$u20$as$u20$core..ops..drop..Drop$GT$4drop17h52c83fbd0558323dE', symObjAddr: 0xE61C, symBinAddr: 0x2DA90, symSize: 0x1A8 }
  - { offset: 0xB0D4E, size: 0x8, addend: 0x0, symName: '__ZN72_$LT$pyo3..instance..Bound$LT$T$GT$$u20$as$u20$core..ops..drop..Drop$GT$4drop17h734cd8a24043b083E', symObjAddr: 0xEE64, symBinAddr: 0x2DC38, symSize: 0x1A8 }
  - { offset: 0xB0DBD, size: 0x8, addend: 0x0, symName: '__ZN72_$LT$pyo3..instance..Bound$LT$T$GT$$u20$as$u20$core..ops..drop..Drop$GT$4drop17hb8eed4d9af79dd58E', symObjAddr: 0xF504, symBinAddr: 0x2DDE0, symSize: 0x1A8 }
  - { offset: 0xB0E2C, size: 0x8, addend: 0x0, symName: '__ZN72_$LT$pyo3..instance..Bound$LT$T$GT$$u20$as$u20$core..ops..drop..Drop$GT$4drop17hbe0fe14b61195037E', symObjAddr: 0xF6AC, symBinAddr: 0x2DF88, symSize: 0x1A8 }
  - { offset: 0xB0E9B, size: 0x8, addend: 0x0, symName: '__ZN72_$LT$pyo3..instance..Bound$LT$T$GT$$u20$as$u20$core..ops..drop..Drop$GT$4drop17hd4fb2399465f2652E', symObjAddr: 0xF854, symBinAddr: 0x2E130, symSize: 0x1A8 }
  - { offset: 0xB0F0A, size: 0x8, addend: 0x0, symName: '__ZN72_$LT$pyo3..instance..Bound$LT$T$GT$$u20$as$u20$core..ops..drop..Drop$GT$4drop17hd7ce4fd8ee9a6fd6E', symObjAddr: 0xF9FC, symBinAddr: 0x2E2D8, symSize: 0x1A8 }
  - { offset: 0xB0F79, size: 0x8, addend: 0x0, symName: '__ZN72_$LT$pyo3..instance..Bound$LT$T$GT$$u20$as$u20$core..ops..drop..Drop$GT$4drop17hdc9cbc663752d868E', symObjAddr: 0xFBA4, symBinAddr: 0x2E480, symSize: 0x1A8 }
  - { offset: 0xB0FE8, size: 0x8, addend: 0x0, symName: '__ZN72_$LT$pyo3..instance..Bound$LT$T$GT$$u20$as$u20$core..ops..drop..Drop$GT$4drop17heb5b50ea0ea02ed4E', symObjAddr: 0xFEF4, symBinAddr: 0x2E628, symSize: 0x1A8 }
  - { offset: 0xB1057, size: 0x8, addend: 0x0, symName: '__ZN72_$LT$pyo3..instance..Bound$LT$T$GT$$u20$as$u20$core..ops..drop..Drop$GT$4drop17hf3d5875f15af29efE', symObjAddr: 0x1009C, symBinAddr: 0x2E7D0, symSize: 0x1A8 }
  - { offset: 0xB10CC, size: 0x8, addend: 0x0, symName: '__ZN74_$LT$pyo3..instance..Bound$LT$T$GT$$u20$as$u20$core..ops..deref..Deref$GT$5deref17h02089120b74fc10fE', symObjAddr: 0x10244, symBinAddr: 0x2E978, symSize: 0x24 }
  - { offset: 0xB1103, size: 0x8, addend: 0x0, symName: '__ZN74_$LT$pyo3..instance..Bound$LT$T$GT$$u20$as$u20$core..ops..deref..Deref$GT$5deref17h415b89caf9c51c43E', symObjAddr: 0x102B0, symBinAddr: 0x2E99C, symSize: 0x24 }
  - { offset: 0xB113A, size: 0x8, addend: 0x0, symName: '__ZN74_$LT$pyo3..instance..Bound$LT$T$GT$$u20$as$u20$core..ops..deref..Deref$GT$5deref17h5099e9b5d6552ec0E', symObjAddr: 0x102D4, symBinAddr: 0x2E9C0, symSize: 0x24 }
  - { offset: 0xB1171, size: 0x8, addend: 0x0, symName: '__ZN74_$LT$pyo3..instance..Bound$LT$T$GT$$u20$as$u20$core..ops..deref..Deref$GT$5deref17h838dd4888156f6bfE', symObjAddr: 0x10364, symBinAddr: 0x2E9E4, symSize: 0x24 }
  - { offset: 0xB11A8, size: 0x8, addend: 0x0, symName: '__ZN74_$LT$pyo3..instance..Bound$LT$T$GT$$u20$as$u20$core..ops..deref..Deref$GT$5deref17hcdd814b99d0aa0e0E', symObjAddr: 0x103AC, symBinAddr: 0x2EA08, symSize: 0x24 }
  - { offset: 0xB11DF, size: 0x8, addend: 0x0, symName: '__ZN74_$LT$pyo3..instance..Bound$LT$T$GT$$u20$as$u20$core..ops..deref..Deref$GT$5deref17he674174d4640f411E', symObjAddr: 0x103F4, symBinAddr: 0x2EA2C, symSize: 0x24 }
  - { offset: 0xB121C, size: 0x8, addend: 0x0, symName: '__ZN77_$LT$pyo3..instance..Borrowed$LT$T$GT$$u20$as$u20$core..ops..deref..Deref$GT$5deref17h086554ee5b171336E', symObjAddr: 0x10464, symBinAddr: 0x2EA50, symSize: 0x28 }
  - { offset: 0xB1253, size: 0x8, addend: 0x0, symName: '__ZN77_$LT$pyo3..instance..Borrowed$LT$T$GT$$u20$as$u20$core..ops..deref..Deref$GT$5deref17h3322dcaa084c45d9E', symObjAddr: 0x104B4, symBinAddr: 0x2EA78, symSize: 0x28 }
  - { offset: 0xB128A, size: 0x8, addend: 0x0, symName: '__ZN77_$LT$pyo3..instance..Borrowed$LT$T$GT$$u20$as$u20$core..ops..deref..Deref$GT$5deref17h6f0c55c38f1a86e0E', symObjAddr: 0x1052C, symBinAddr: 0x2EAA0, symSize: 0x28 }
  - { offset: 0xB12C1, size: 0x8, addend: 0x0, symName: '__ZN77_$LT$pyo3..instance..Borrowed$LT$T$GT$$u20$as$u20$core..ops..deref..Deref$GT$5deref17had18db913b1e3262E', symObjAddr: 0x1057C, symBinAddr: 0x2EAC8, symSize: 0x28 }
  - { offset: 0xB12F8, size: 0x8, addend: 0x0, symName: '__ZN77_$LT$pyo3..instance..Borrowed$LT$T$GT$$u20$as$u20$core..ops..deref..Deref$GT$5deref17hc39e470db237f5f1E', symObjAddr: 0x105CC, symBinAddr: 0x2EAF0, symSize: 0x28 }
  - { offset: 0xB132F, size: 0x8, addend: 0x0, symName: '__ZN77_$LT$pyo3..instance..Borrowed$LT$T$GT$$u20$as$u20$core..ops..deref..Deref$GT$5deref17hec8c8ae371873e51E', symObjAddr: 0x10644, symBinAddr: 0x2EB18, symSize: 0x28 }
  - { offset: 0xB1366, size: 0x8, addend: 0x0, symName: '__ZN77_$LT$pyo3..instance..Borrowed$LT$T$GT$$u20$as$u20$core..ops..deref..Deref$GT$5deref17hf5322a494162afe0E', symObjAddr: 0x1066C, symBinAddr: 0x2EB40, symSize: 0x28 }
  - { offset: 0xB139D, size: 0x8, addend: 0x0, symName: '__ZN77_$LT$pyo3..instance..Borrowed$LT$T$GT$$u20$as$u20$core..ops..deref..Deref$GT$5deref17hfff6bc46ec6575a2E', symObjAddr: 0x10694, symBinAddr: 0x2EB68, symSize: 0x28 }
  - { offset: 0xB13DA, size: 0x8, addend: 0x0, symName: '__ZN87_$LT$pyo3..instance..Bound$LT$T$GT$$u20$as$u20$pyo3..instance..BoundObject$LT$T$GT$$GT$10into_bound17h7b27ab6cfd9e44c6E', symObjAddr: 0x10890, symBinAddr: 0x2EC4C, symSize: 0x14 }
  - { offset: 0xB1411, size: 0x8, addend: 0x0, symName: '__ZN87_$LT$pyo3..instance..Bound$LT$T$GT$$u20$as$u20$pyo3..instance..BoundObject$LT$T$GT$$GT$11as_borrowed17he433e93652c3eaa2E', symObjAddr: 0x108A4, symBinAddr: 0x2EC60, symSize: 0x24 }
  - { offset: 0xB1448, size: 0x8, addend: 0x0, symName: '__ZN87_$LT$pyo3..instance..Bound$LT$T$GT$$u20$as$u20$pyo3..instance..BoundObject$LT$T$GT$$GT$11as_borrowed17heba52b78614e2d95E', symObjAddr: 0x108C8, symBinAddr: 0x2EC84, symSize: 0x24 }
  - { offset: 0xB147F, size: 0x8, addend: 0x0, symName: '__ZN87_$LT$pyo3..instance..Bound$LT$T$GT$$u20$as$u20$pyo3..instance..BoundObject$LT$T$GT$$GT$6as_ptr17h2e457084d6f9f451E', symObjAddr: 0x108EC, symBinAddr: 0x2ECA8, symSize: 0x24 }
  - { offset: 0xB14B6, size: 0x8, addend: 0x0, symName: '__ZN87_$LT$pyo3..instance..Bound$LT$T$GT$$u20$as$u20$pyo3..instance..BoundObject$LT$T$GT$$GT$6unbind17hfa6784b876f82b54E', symObjAddr: 0x10910, symBinAddr: 0x2ECCC, symSize: 0x24 }
  - { offset: 0xB14ED, size: 0x8, addend: 0x0, symName: '__ZN87_$LT$pyo3..instance..Bound$LT$T$GT$$u20$as$u20$pyo3..instance..BoundObject$LT$T$GT$$GT$8into_any17h324c704c65e21b06E', symObjAddr: 0x1097C, symBinAddr: 0x2ECF0, symSize: 0x24 }
  - { offset: 0xB1524, size: 0x8, addend: 0x0, symName: '__ZN87_$LT$pyo3..instance..Bound$LT$T$GT$$u20$as$u20$pyo3..instance..BoundObject$LT$T$GT$$GT$8into_any17h4a47b644a71e48f3E', symObjAddr: 0x109A0, symBinAddr: 0x2ED14, symSize: 0x24 }
  - { offset: 0xB155B, size: 0x8, addend: 0x0, symName: '__ZN87_$LT$pyo3..instance..Bound$LT$T$GT$$u20$as$u20$pyo3..instance..BoundObject$LT$T$GT$$GT$8into_any17hd9e28741c1338fc2E', symObjAddr: 0x10A0C, symBinAddr: 0x2ED38, symSize: 0x24 }
  - { offset: 0xB1592, size: 0x8, addend: 0x0, symName: '__ZN87_$LT$pyo3..instance..Bound$LT$T$GT$$u20$as$u20$pyo3..instance..BoundObject$LT$T$GT$$GT$8into_any17hec5758e6e170a724E', symObjAddr: 0x10A30, symBinAddr: 0x2ED5C, symSize: 0x24 }
  - { offset: 0xB15CF, size: 0x8, addend: 0x0, symName: '__ZN90_$LT$pyo3..instance..Borrowed$LT$T$GT$$u20$as$u20$pyo3..instance..BoundObject$LT$T$GT$$GT$11as_borrowed17h997adf360b1596f3E', symObjAddr: 0x10A80, symBinAddr: 0x2ED80, symSize: 0x18 }
  - { offset: 0xB1606, size: 0x8, addend: 0x0, symName: '__ZN90_$LT$pyo3..instance..Borrowed$LT$T$GT$$u20$as$u20$pyo3..instance..BoundObject$LT$T$GT$$GT$11as_borrowed17hec4aa85abde13c95E', symObjAddr: 0x10A98, symBinAddr: 0x2ED98, symSize: 0x18 }
  - { offset: 0xB163D, size: 0x8, addend: 0x0, symName: '__ZN90_$LT$pyo3..instance..Borrowed$LT$T$GT$$u20$as$u20$pyo3..instance..BoundObject$LT$T$GT$$GT$6as_ptr17h20edbea3b5081fcaE', symObjAddr: 0x10AB0, symBinAddr: 0x2EDB0, symSize: 0x28 }
  - { offset: 0xB1674, size: 0x8, addend: 0x0, symName: '__ZN90_$LT$pyo3..instance..Borrowed$LT$T$GT$$u20$as$u20$pyo3..instance..BoundObject$LT$T$GT$$GT$8into_any17h92b1c78ccac9b237E', symObjAddr: 0x10AFC, symBinAddr: 0x2EDD8, symSize: 0x24 }
  - { offset: 0xB16AB, size: 0x8, addend: 0x0, symName: '__ZN90_$LT$pyo3..instance..Borrowed$LT$T$GT$$u20$as$u20$pyo3..instance..BoundObject$LT$T$GT$$GT$8into_any17h92d54854c20b5acfE', symObjAddr: 0x10B20, symBinAddr: 0x2EDFC, symSize: 0x24 }
  - { offset: 0xB16E2, size: 0x8, addend: 0x0, symName: '__ZN90_$LT$pyo3..instance..Borrowed$LT$T$GT$$u20$as$u20$pyo3..instance..BoundObject$LT$T$GT$$GT$8into_any17h9aac2ff391bfbfbeE', symObjAddr: 0x10B44, symBinAddr: 0x2EE20, symSize: 0x24 }
  - { offset: 0xB172A, size: 0x8, addend: 0x0, symName: '__ZN196_$LT$$RF$pyo3..instance..Bound$LT$pyo3..types..module..PyModule$GT$$u20$as$u20$pyo3..impl_..pyfunction..WrapPyFunctionArg$LT$pyo3..instance..Bound$LT$pyo3..types..function..PyCFunction$GT$$GT$$GT$15wrap_pyfunction17h3ffb963d9afa91fbE', symObjAddr: 0x6004, symBinAddr: 0x2A190, symSize: 0x44 }
  - { offset: 0xB1786, size: 0x8, addend: 0x0, symName: '__ZN47_$LT$T$u20$as$u20$pyo3..err..PyErrArguments$GT$9arguments17h82a4d70262fb11efE', symObjAddr: 0x6194, symBinAddr: 0x2A258, symSize: 0x3C }
  - { offset: 0xB19D1, size: 0x8, addend: 0x0, symName: __ZN4pyo310conversion15IntoPyObjectExt22into_pyobject_or_pyerr17h1ab1d64fbb8ef52aE, symObjAddr: 0x6410, symBinAddr: 0x2A2DC, symSize: 0x48 }
  - { offset: 0xB1A41, size: 0x8, addend: 0x0, symName: __ZN4pyo310conversion15IntoPyObjectExt22into_pyobject_or_pyerr17h2b0049fff1087bb9E, symObjAddr: 0x6530, symBinAddr: 0x2A324, symSize: 0x48 }
  - { offset: 0xB1AB1, size: 0x8, addend: 0x0, symName: __ZN4pyo310conversion15IntoPyObjectExt22into_pyobject_or_pyerr17h8495544996bbb1d4E, symObjAddr: 0x65C0, symBinAddr: 0x2A36C, symSize: 0x48 }
  - { offset: 0xB1B21, size: 0x8, addend: 0x0, symName: __ZN4pyo310conversion15IntoPyObjectExt22into_pyobject_or_pyerr17h9b5215fb63a0522cE, symObjAddr: 0x6650, symBinAddr: 0x2A3B4, symSize: 0x48 }
  - { offset: 0xB1B91, size: 0x8, addend: 0x0, symName: __ZN4pyo310conversion15IntoPyObjectExt22into_pyobject_or_pyerr17hda6c97b477797f19E, symObjAddr: 0x66E0, symBinAddr: 0x2A3FC, symSize: 0x48 }
  - { offset: 0xB1C01, size: 0x8, addend: 0x0, symName: __ZN4pyo310conversion15IntoPyObjectExt22into_pyobject_or_pyerr17hf5db249070250a9dE, symObjAddr: 0x6728, symBinAddr: 0x2A444, symSize: 0x48 }
  - { offset: 0xB1C77, size: 0x8, addend: 0x0, symName: '__ZN78_$LT$pyo3..instance..Py$LT$T$GT$$u20$as$u20$pyo3..conversion..IntoPyObject$GT$13into_pyobject17h7244f0887b96fc82E', symObjAddr: 0x106BC, symBinAddr: 0x2EB90, symSize: 0x24 }
  - { offset: 0xB1CCB, size: 0x8, addend: 0x0, symName: '__ZN81_$LT$pyo3..instance..Bound$LT$T$GT$$u20$as$u20$pyo3..conversion..IntoPyObject$GT$13into_pyobject17h2caf2eb31b5395d1E', symObjAddr: 0x106E0, symBinAddr: 0x2EBB4, symSize: 0x14 }
  - { offset: 0xB1D19, size: 0x8, addend: 0x0, symName: '__ZN81_$LT$pyo3..instance..Bound$LT$T$GT$$u20$as$u20$pyo3..conversion..IntoPyObject$GT$13into_pyobject17hc039e52ea645e61cE', symObjAddr: 0x10730, symBinAddr: 0x2EBC8, symSize: 0x14 }
  - { offset: 0xB1D6D, size: 0x8, addend: 0x0, symName: '__ZN84_$LT$pyo3..instance..Borrowed$LT$T$GT$$u20$as$u20$pyo3..conversion..IntoPyObject$GT$13into_pyobject17hd5a18643dde6921eE', symObjAddr: 0x1076C, symBinAddr: 0x2EBDC, symSize: 0x14 }
  - { offset: 0xB1DBB, size: 0x8, addend: 0x0, symName: '__ZN84_$LT$pyo3..instance..Borrowed$LT$T$GT$$u20$as$u20$pyo3..conversion..IntoPyObject$GT$13into_pyobject17he775f594393e2024E', symObjAddr: 0x10780, symBinAddr: 0x2EBF0, symSize: 0x14 }
  - { offset: 0xB1E0F, size: 0x8, addend: 0x0, symName: '__ZN85_$LT$$RF$pyo3..instance..Bound$LT$T$GT$$u20$as$u20$pyo3..conversion..IntoPyObject$GT$13into_pyobject17ha98323006ca869ebE', symObjAddr: 0x10848, symBinAddr: 0x2EC04, symSize: 0x24 }
  - { offset: 0xB1E5D, size: 0x8, addend: 0x0, symName: '__ZN85_$LT$$RF$pyo3..instance..Bound$LT$T$GT$$u20$as$u20$pyo3..conversion..IntoPyObject$GT$13into_pyobject17hb631716836beb179E', symObjAddr: 0x1086C, symBinAddr: 0x2EC28, symSize: 0x24 }
  - { offset: 0xB234C, size: 0x8, addend: 0x0, symName: '__ZN44_$LT$T$u20$as$u20$alloc..borrow..ToOwned$GT$8to_owned17h7c59ee2695046c9aE', symObjAddr: 0x614C, symBinAddr: 0x2A234, symSize: 0x24 }
  - { offset: 0xB254F, size: 0x8, addend: 0x0, symName: '__ZN4pyo35types5bytes77_$LT$impl$u20$pyo3..instance..Borrowed$LT$pyo3..types..bytes..PyBytes$GT$$GT$8as_bytes17hbd445549b01af634E', symObjAddr: 0x68B8, symBinAddr: 0x2A48C, symSize: 0x90 }
  - { offset: 0xB25A8, size: 0x8, addend: 0x0, symName: '__ZN4pyo35types5tuple77_$LT$impl$u20$pyo3..instance..Borrowed$LT$pyo3..types..tuple..PyTuple$GT$$GT$13iter_borrowed17he464d299f3f05d51E', symObjAddr: 0x6E34, symBinAddr: 0x2A51C, symSize: 0x24 }
  - { offset: 0xB2815, size: 0x8, addend: 0x0, symName: '__ZN4pyo35types5tuple77_$LT$impl$u20$pyo3..instance..Borrowed$LT$pyo3..types..tuple..PyTuple$GT$$GT$27get_borrowed_item_unchecked17h589779c09d2a8177E', symObjAddr: 0x6EB8, symBinAddr: 0x2A540, symSize: 0x58 }
  - { offset: 0xB287F, size: 0x8, addend: 0x0, symName: '__ZN4pyo35types6string79_$LT$impl$u20$pyo3..instance..Borrowed$LT$pyo3..types..string..PyString$GT$$GT$15to_string_lossy17hf37030f5e4b21d62E', symObjAddr: 0x7060, symBinAddr: 0x2A598, symSize: 0x16C }
  - { offset: 0xB2949, size: 0x8, addend: 0x0, symName: '__ZN4pyo35types6string79_$LT$impl$u20$pyo3..instance..Borrowed$LT$pyo3..types..string..PyString$GT$$GT$6to_cow17h8e97308d4267bc3dE', symObjAddr: 0x7338, symBinAddr: 0x2A704, symSize: 0x3C }
  - { offset: 0xB296C, size: 0x8, addend: 0x0, symName: '__ZN4pyo35types6string79_$LT$impl$u20$pyo3..instance..Borrowed$LT$pyo3..types..string..PyString$GT$$GT$6to_str17h4af5e1ada9d323e7E', symObjAddr: 0x7374, symBinAddr: 0x2A740, symSize: 0xD0 }
  - { offset: 0xB2A10, size: 0x8, addend: 0x0, symName: '__ZN4pyo38instance11Py$LT$T$GT$10into_bound17h97348c42d0e6a329E', symObjAddr: 0x850C, symBinAddr: 0x2A944, symSize: 0x1C }
  - { offset: 0xB2AF7, size: 0x8, addend: 0x0, symName: '__ZN4pyo38instance11Py$LT$T$GT$4bind17h5074534e130b0c2dE', symObjAddr: 0x85FC, symBinAddr: 0x2A960, symSize: 0x38 }
  - { offset: 0xB2B9F, size: 0x8, addend: 0x0, symName: '__ZN4pyo38instance11Py$LT$T$GT$4bind17h612848e305ff8059E', symObjAddr: 0x8634, symBinAddr: 0x2A998, symSize: 0x38 }
  - { offset: 0xB2CB1, size: 0x8, addend: 0x0, symName: '__ZN4pyo38instance11Py$LT$T$GT$4bind17hcb25bccb07f035e3E', symObjAddr: 0x86DC, symBinAddr: 0x2A9D0, symSize: 0x38 }
  - { offset: 0xB2D71, size: 0x8, addend: 0x0, symName: '__ZN4pyo38instance11Py$LT$T$GT$6as_ptr17h49933bc08bcf2ad4E', symObjAddr: 0x8810, symBinAddr: 0x2AA08, symSize: 0x1C }
  - { offset: 0xB2D9D, size: 0x8, addend: 0x0, symName: '__ZN4pyo38instance11Py$LT$T$GT$6as_ptr17h4a24f26c5e7b0184E', symObjAddr: 0x882C, symBinAddr: 0x2AA24, symSize: 0x1C }
  - { offset: 0xB2DD6, size: 0x8, addend: 0x0, symName: '__ZN4pyo38instance11Py$LT$T$GT$6as_ptr17h538667f662b67fb8E', symObjAddr: 0x8848, symBinAddr: 0x2AA40, symSize: 0x1C }
  - { offset: 0xB2E02, size: 0x8, addend: 0x0, symName: '__ZN4pyo38instance11Py$LT$T$GT$6as_ptr17h59a799d9cc5ab70dE', symObjAddr: 0x8864, symBinAddr: 0x2AA5C, symSize: 0x1C }
  - { offset: 0xB2E7C, size: 0x8, addend: 0x0, symName: '__ZN4pyo38instance11Py$LT$T$GT$6as_ptr17ha36df13357f3afe5E', symObjAddr: 0x8944, symBinAddr: 0x2AA78, symSize: 0x1C }
  - { offset: 0xB2EC2, size: 0x8, addend: 0x0, symName: '__ZN4pyo38instance11Py$LT$T$GT$6as_ptr17hca8295cf00208624E', symObjAddr: 0x8998, symBinAddr: 0x2AA94, symSize: 0x1C }
  - { offset: 0xB2EFB, size: 0x8, addend: 0x0, symName: '__ZN4pyo38instance11Py$LT$T$GT$6as_ptr17hcbe6f075dceca6f5E', symObjAddr: 0x89B4, symBinAddr: 0x2AAB0, symSize: 0x1C }
  - { offset: 0xB2F4E, size: 0x8, addend: 0x0, symName: '__ZN4pyo38instance11Py$LT$T$GT$6as_ptr17hd62ccf0e845295cfE', symObjAddr: 0x8A08, symBinAddr: 0x2AACC, symSize: 0x1C }
  - { offset: 0xB2F7A, size: 0x8, addend: 0x0, symName: '__ZN4pyo38instance11Py$LT$T$GT$6as_ptr17hdb36ca17c2764eaeE', symObjAddr: 0x8A24, symBinAddr: 0x2AAE8, symSize: 0x1C }
  - { offset: 0xB2FA6, size: 0x8, addend: 0x0, symName: '__ZN4pyo38instance11Py$LT$T$GT$6as_ptr17hde0f8fc615b1bf46E', symObjAddr: 0x8A40, symBinAddr: 0x2AB04, symSize: 0x1C }
  - { offset: 0xB2FD2, size: 0x8, addend: 0x0, symName: '__ZN4pyo38instance11Py$LT$T$GT$6as_ptr17he45a15475f601220E', symObjAddr: 0x8A5C, symBinAddr: 0x2AB20, symSize: 0x1C }
  - { offset: 0xB300B, size: 0x8, addend: 0x0, symName: '__ZN4pyo38instance11Py$LT$T$GT$6as_ptr17heed9ae325e75e0f5E', symObjAddr: 0x8A78, symBinAddr: 0x2AB3C, symSize: 0x1C }
  - { offset: 0xB3044, size: 0x8, addend: 0x0, symName: '__ZN4pyo38instance11Py$LT$T$GT$6as_ptr17hf7ad9824c55c338fE', symObjAddr: 0x8A94, symBinAddr: 0x2AB58, symSize: 0x1C }
  - { offset: 0xB3070, size: 0x8, addend: 0x0, symName: '__ZN4pyo38instance11Py$LT$T$GT$8into_any17h057b6d752a081cb1E', symObjAddr: 0x8AB0, symBinAddr: 0x2AB74, symSize: 0x30 }
  - { offset: 0xB309C, size: 0x8, addend: 0x0, symName: '__ZN4pyo38instance11Py$LT$T$GT$8into_any17h739d594009ab17b8E', symObjAddr: 0x8B70, symBinAddr: 0x2ABA4, symSize: 0x30 }
  - { offset: 0xB30C8, size: 0x8, addend: 0x0, symName: '__ZN4pyo38instance11Py$LT$T$GT$8into_any17h79ba76d610c2ad7cE', symObjAddr: 0x8BA0, symBinAddr: 0x2ABD4, symSize: 0x30 }
  - { offset: 0xB30F4, size: 0x8, addend: 0x0, symName: '__ZN4pyo38instance11Py$LT$T$GT$8into_any17hc0066bf2fd5ec808E', symObjAddr: 0x8BD0, symBinAddr: 0x2AC04, symSize: 0x30 }
  - { offset: 0xB3120, size: 0x8, addend: 0x0, symName: '__ZN4pyo38instance11Py$LT$T$GT$8into_any17hd20165877a2ebfd3E', symObjAddr: 0x8C30, symBinAddr: 0x2AC34, symSize: 0x30 }
  - { offset: 0xB314C, size: 0x8, addend: 0x0, symName: '__ZN4pyo38instance11Py$LT$T$GT$8into_any17hd82adaa3987f538dE', symObjAddr: 0x8C60, symBinAddr: 0x2AC64, symSize: 0x30 }
  - { offset: 0xB3178, size: 0x8, addend: 0x0, symName: '__ZN4pyo38instance11Py$LT$T$GT$8into_ptr17h6e71a9dc1a3943b7E', symObjAddr: 0x8C90, symBinAddr: 0x2AC94, symSize: 0x30 }
  - { offset: 0xB31A4, size: 0x8, addend: 0x0, symName: '__ZN4pyo38instance11Py$LT$T$GT$9clone_ref17h13978c1590e61997E', symObjAddr: 0x8DFC, symBinAddr: 0x2ACC4, symSize: 0x10C }
  - { offset: 0xB324D, size: 0x8, addend: 0x0, symName: '__ZN4pyo38instance11Py$LT$T$GT$9clone_ref17h70c113d832effc04E', symObjAddr: 0x9120, symBinAddr: 0x2ADD0, symSize: 0x10C }
  - { offset: 0xB32E9, size: 0x8, addend: 0x0, symName: '__ZN4pyo38instance11Py$LT$T$GT$9clone_ref17h82b1ba6f8ecb53f7E', symObjAddr: 0x9338, symBinAddr: 0x2AEDC, symSize: 0x10C }
  - { offset: 0xB3385, size: 0x8, addend: 0x0, symName: '__ZN4pyo38instance11Py$LT$T$GT$9clone_ref17h8d2314b7ee6056faE', symObjAddr: 0x9444, symBinAddr: 0x2AFE8, symSize: 0x10C }
  - { offset: 0xB3421, size: 0x8, addend: 0x0, symName: '__ZN4pyo38instance11Py$LT$T$GT$9clone_ref17hcd080ed3cc1f5555E', symObjAddr: 0x9874, symBinAddr: 0x2B0F4, symSize: 0x10C }
  - { offset: 0xB34BD, size: 0x8, addend: 0x0, symName: '__ZN4pyo38instance14Bound$LT$T$GT$10as_unbound17h90eaca92e44d9802E', symObjAddr: 0x9EF0, symBinAddr: 0x2B4E8, symSize: 0x1C }
  - { offset: 0xB34F6, size: 0x8, addend: 0x0, symName: '__ZN4pyo38instance14Bound$LT$T$GT$11as_borrowed17h059ed84cf5ec79fbE', symObjAddr: 0x9F0C, symBinAddr: 0x2B504, symSize: 0x40 }
  - { offset: 0xB3522, size: 0x8, addend: 0x0, symName: '__ZN4pyo38instance14Bound$LT$T$GT$11as_borrowed17h082028151d70f404E', symObjAddr: 0x9F4C, symBinAddr: 0x2B544, symSize: 0x40 }
  - { offset: 0xB355B, size: 0x8, addend: 0x0, symName: '__ZN4pyo38instance14Bound$LT$T$GT$11as_borrowed17h43cfd5d642a2008bE', symObjAddr: 0xA00C, symBinAddr: 0x2B584, symSize: 0x40 }
  - { offset: 0xB3587, size: 0x8, addend: 0x0, symName: '__ZN4pyo38instance14Bound$LT$T$GT$11as_borrowed17h6bf54443d70e8f5dE', symObjAddr: 0xA08C, symBinAddr: 0x2B5C4, symSize: 0x40 }
  - { offset: 0xB35DA, size: 0x8, addend: 0x0, symName: '__ZN4pyo38instance14Bound$LT$T$GT$11as_borrowed17he24c0674fea752e4E', symObjAddr: 0xA14C, symBinAddr: 0x2B604, symSize: 0x40 }
  - { offset: 0xB36A6, size: 0x8, addend: 0x0, symName: '__ZN4pyo38instance14Bound$LT$T$GT$14cast_unchecked17h58a26dbb8856a3d6E', symObjAddr: 0xA2AC, symBinAddr: 0x2B644, symSize: 0x38 }
  - { offset: 0xB36F9, size: 0x8, addend: 0x0, symName: '__ZN4pyo38instance14Bound$LT$T$GT$14cast_unchecked17h65730fd2b457028cE', symObjAddr: 0xA2E4, symBinAddr: 0x2B67C, symSize: 0x38 }
  - { offset: 0xB374C, size: 0x8, addend: 0x0, symName: '__ZN4pyo38instance14Bound$LT$T$GT$14cast_unchecked17h6948cbc9a5f94e8cE', symObjAddr: 0xA31C, symBinAddr: 0x2B6B4, symSize: 0x38 }
  - { offset: 0xB379F, size: 0x8, addend: 0x0, symName: '__ZN4pyo38instance14Bound$LT$T$GT$14cast_unchecked17h76aa6e6dedba79deE', symObjAddr: 0xA354, symBinAddr: 0x2B6EC, symSize: 0x38 }
  - { offset: 0xB37F2, size: 0x8, addend: 0x0, symName: '__ZN4pyo38instance14Bound$LT$T$GT$14cast_unchecked17h8e9c7f60c718d382E', symObjAddr: 0xA3FC, symBinAddr: 0x2B724, symSize: 0x38 }
  - { offset: 0xB38AF, size: 0x8, addend: 0x0, symName: '__ZN4pyo38instance14Bound$LT$T$GT$14cast_unchecked17hbb2ff82347c7fd1bE', symObjAddr: 0xA4A4, symBinAddr: 0x2B75C, symSize: 0x38 }
  - { offset: 0xB3938, size: 0x8, addend: 0x0, symName: '__ZN4pyo38instance14Bound$LT$T$GT$14cast_unchecked17hc68a9515d0ee8009E', symObjAddr: 0xA4DC, symBinAddr: 0x2B794, symSize: 0x38 }
  - { offset: 0xB3998, size: 0x8, addend: 0x0, symName: '__ZN4pyo38instance14Bound$LT$T$GT$14cast_unchecked17hfe6839914e0470d2E', symObjAddr: 0xA5F4, symBinAddr: 0x2B7CC, symSize: 0x38 }
  - { offset: 0xB39EB, size: 0x8, addend: 0x0, symName: '__ZN4pyo38instance14Bound$LT$T$GT$19cast_into_unchecked17h102335d5ea25b53aE', symObjAddr: 0xA654, symBinAddr: 0x2B804, symSize: 0x14 }
  - { offset: 0xB3A20, size: 0x8, addend: 0x0, symName: '__ZN4pyo38instance14Bound$LT$T$GT$19cast_into_unchecked17h106d3c681dab223aE', symObjAddr: 0xA668, symBinAddr: 0x2B818, symSize: 0x14 }
  - { offset: 0xB3A55, size: 0x8, addend: 0x0, symName: '__ZN4pyo38instance14Bound$LT$T$GT$19cast_into_unchecked17h35a89b291e4f5c55E', symObjAddr: 0xA6E0, symBinAddr: 0x2B82C, symSize: 0x14 }
  - { offset: 0xB3A8A, size: 0x8, addend: 0x0, symName: '__ZN4pyo38instance14Bound$LT$T$GT$19cast_into_unchecked17h3f69cb7046d9b441E', symObjAddr: 0xA6F4, symBinAddr: 0x2B840, symSize: 0x14 }
  - { offset: 0xB3ABF, size: 0x8, addend: 0x0, symName: '__ZN4pyo38instance14Bound$LT$T$GT$19cast_into_unchecked17h440fc52b4a8f9979E', symObjAddr: 0xA71C, symBinAddr: 0x2B854, symSize: 0x14 }
  - { offset: 0xB3AF4, size: 0x8, addend: 0x0, symName: '__ZN4pyo38instance14Bound$LT$T$GT$19cast_into_unchecked17h5e0228fefceb5e62E', symObjAddr: 0xA758, symBinAddr: 0x2B868, symSize: 0x14 }
  - { offset: 0xB3B29, size: 0x8, addend: 0x0, symName: '__ZN4pyo38instance14Bound$LT$T$GT$19cast_into_unchecked17h6435156d2ea24375E', symObjAddr: 0xA76C, symBinAddr: 0x2B87C, symSize: 0x14 }
  - { offset: 0xB3B5E, size: 0x8, addend: 0x0, symName: '__ZN4pyo38instance14Bound$LT$T$GT$19cast_into_unchecked17h8df0ebf3aae0102eE', symObjAddr: 0xA794, symBinAddr: 0x2B890, symSize: 0x14 }
  - { offset: 0xB3B93, size: 0x8, addend: 0x0, symName: '__ZN4pyo38instance14Bound$LT$T$GT$19cast_into_unchecked17hab136843db39f4a5E', symObjAddr: 0xA7E4, symBinAddr: 0x2B8A4, symSize: 0x14 }
  - { offset: 0xB3BC8, size: 0x8, addend: 0x0, symName: '__ZN4pyo38instance14Bound$LT$T$GT$19cast_into_unchecked17hddd0713fc59b51fbE', symObjAddr: 0xA870, symBinAddr: 0x2B8B8, symSize: 0x14 }
  - { offset: 0xB3BFD, size: 0x8, addend: 0x0, symName: '__ZN4pyo38instance14Bound$LT$T$GT$19cast_into_unchecked17hdeb9f35d23fe7068E', symObjAddr: 0xA898, symBinAddr: 0x2B8CC, symSize: 0x14 }
  - { offset: 0xB3C4C, size: 0x8, addend: 0x0, symName: '__ZN4pyo38instance14Bound$LT$T$GT$2py17h283f3bcc1736bfffE', symObjAddr: 0xA930, symBinAddr: 0x2B8E0, symSize: 0x10 }
  - { offset: 0xB3C78, size: 0x8, addend: 0x0, symName: '__ZN4pyo38instance14Bound$LT$T$GT$2py17h4a760b969eb96a26E', symObjAddr: 0xA960, symBinAddr: 0x2B8F0, symSize: 0x10 }
  - { offset: 0xB3CB1, size: 0x8, addend: 0x0, symName: '__ZN4pyo38instance14Bound$LT$T$GT$2py17h5ad00b1d5d871e28E', symObjAddr: 0xA990, symBinAddr: 0x2B900, symSize: 0x10 }
  - { offset: 0xB3CDD, size: 0x8, addend: 0x0, symName: '__ZN4pyo38instance14Bound$LT$T$GT$2py17h5d86ea16676dde92E', symObjAddr: 0xA9A0, symBinAddr: 0x2B910, symSize: 0x10 }
  - { offset: 0xB3D09, size: 0x8, addend: 0x0, symName: '__ZN4pyo38instance14Bound$LT$T$GT$2py17h63247243ab025092E', symObjAddr: 0xA9B0, symBinAddr: 0x2B920, symSize: 0x10 }
  - { offset: 0xB3D35, size: 0x8, addend: 0x0, symName: '__ZN4pyo38instance14Bound$LT$T$GT$2py17h74e40cf1aeb433f4E', symObjAddr: 0xA9C0, symBinAddr: 0x2B930, symSize: 0x10 }
  - { offset: 0xB3D88, size: 0x8, addend: 0x0, symName: '__ZN4pyo38instance14Bound$LT$T$GT$2py17h914a972863a58ef9E', symObjAddr: 0xAA10, symBinAddr: 0x2B940, symSize: 0x10 }
  - { offset: 0xB3DDB, size: 0x8, addend: 0x0, symName: '__ZN4pyo38instance14Bound$LT$T$GT$2py17hbd2eabe400651e35E', symObjAddr: 0xAA50, symBinAddr: 0x2B950, symSize: 0x10 }
  - { offset: 0xB3E14, size: 0x8, addend: 0x0, symName: '__ZN4pyo38instance14Bound$LT$T$GT$2py17he329227f5b78b65cE', symObjAddr: 0xAA80, symBinAddr: 0x2B960, symSize: 0x10 }
  - { offset: 0xB3E4D, size: 0x8, addend: 0x0, symName: '__ZN4pyo38instance14Bound$LT$T$GT$4cast17h07c803b572fe0abeE', symObjAddr: 0xAAA0, symBinAddr: 0x2B970, symSize: 0x30 }
  - { offset: 0xB3E81, size: 0x8, addend: 0x0, symName: '__ZN4pyo38instance14Bound$LT$T$GT$4cast17haa178e8dc2d289daE', symObjAddr: 0xAB00, symBinAddr: 0x2B9A0, symSize: 0x30 }
  - { offset: 0xB3EB5, size: 0x8, addend: 0x0, symName: '__ZN4pyo38instance14Bound$LT$T$GT$4cast17hb24d0ad7badfd3e6E', symObjAddr: 0xAB30, symBinAddr: 0x2B9D0, symSize: 0x30 }
  - { offset: 0xB3EE9, size: 0x8, addend: 0x0, symName: '__ZN4pyo38instance14Bound$LT$T$GT$6as_any17h1fc3c841fea5b3ceE', symObjAddr: 0xADA8, symBinAddr: 0x2BB8C, symSize: 0x38 }
  - { offset: 0xB3F51, size: 0x8, addend: 0x0, symName: '__ZN4pyo38instance14Bound$LT$T$GT$6as_any17h4aea4de0849b7467E', symObjAddr: 0xAE50, symBinAddr: 0x2BBC4, symSize: 0x38 }
  - { offset: 0xB3FB9, size: 0x8, addend: 0x0, symName: '__ZN4pyo38instance14Bound$LT$T$GT$6as_any17h4c014c8fe0a2b2a8E', symObjAddr: 0xAE88, symBinAddr: 0x2BBFC, symSize: 0x38 }
  - { offset: 0xB4021, size: 0x8, addend: 0x0, symName: '__ZN4pyo38instance14Bound$LT$T$GT$6as_any17h518af373a00040ceE', symObjAddr: 0xAEF8, symBinAddr: 0x2BC34, symSize: 0x38 }
  - { offset: 0xB4089, size: 0x8, addend: 0x0, symName: '__ZN4pyo38instance14Bound$LT$T$GT$6as_any17h83ccc2dc4c615b5cE', symObjAddr: 0xAF30, symBinAddr: 0x2BC6C, symSize: 0x38 }
  - { offset: 0xB40F1, size: 0x8, addend: 0x0, symName: '__ZN4pyo38instance14Bound$LT$T$GT$6as_any17hdb87361cd1f21043E', symObjAddr: 0xB010, symBinAddr: 0x2BCA4, symSize: 0x38 }
  - { offset: 0xB4159, size: 0x8, addend: 0x0, symName: '__ZN4pyo38instance14Bound$LT$T$GT$6as_any17hf1b16246dd072e14E', symObjAddr: 0xB080, symBinAddr: 0x2BCDC, symSize: 0x38 }
  - { offset: 0xB41CE, size: 0x8, addend: 0x0, symName: '__ZN4pyo38instance14Bound$LT$T$GT$6as_any17hf5bd95278fec9637E', symObjAddr: 0xB0B8, symBinAddr: 0x2BD14, symSize: 0x38 }
  - { offset: 0xB4236, size: 0x8, addend: 0x0, symName: '__ZN4pyo38instance14Bound$LT$T$GT$6as_ptr17h155eb2c832ae2a2dE', symObjAddr: 0xB180, symBinAddr: 0x2BD4C, symSize: 0x2C }
  - { offset: 0xB4262, size: 0x8, addend: 0x0, symName: '__ZN4pyo38instance14Bound$LT$T$GT$6as_ptr17h1c52b0e931117525E', symObjAddr: 0xB1D8, symBinAddr: 0x2BD78, symSize: 0x2C }
  - { offset: 0xB429B, size: 0x8, addend: 0x0, symName: '__ZN4pyo38instance14Bound$LT$T$GT$6as_ptr17h2cec1e98acf6f91aE', symObjAddr: 0xB2B4, symBinAddr: 0x2BDA4, symSize: 0x2C }
  - { offset: 0xB42C7, size: 0x8, addend: 0x0, symName: '__ZN4pyo38instance14Bound$LT$T$GT$6as_ptr17h5cc57025d37e8d5aE', symObjAddr: 0xB364, symBinAddr: 0x2BDD0, symSize: 0x2C }
  - { offset: 0xB42F3, size: 0x8, addend: 0x0, symName: '__ZN4pyo38instance14Bound$LT$T$GT$6as_ptr17h5f49a7aa47c57f0cE', symObjAddr: 0xB390, symBinAddr: 0x2BDFC, symSize: 0x2C }
  - { offset: 0xB431F, size: 0x8, addend: 0x0, symName: '__ZN4pyo38instance14Bound$LT$T$GT$6as_ptr17h6711ee0af5c73bfdE', symObjAddr: 0xB440, symBinAddr: 0x2BE28, symSize: 0x2C }
  - { offset: 0xB434B, size: 0x8, addend: 0x0, symName: '__ZN4pyo38instance14Bound$LT$T$GT$6as_ptr17h8c99ba151c9d0d2eE', symObjAddr: 0xB498, symBinAddr: 0x2BE54, symSize: 0x2C }
  - { offset: 0xB4377, size: 0x8, addend: 0x0, symName: '__ZN4pyo38instance14Bound$LT$T$GT$6as_ptr17h9132edaa5229af52E', symObjAddr: 0xB4C4, symBinAddr: 0x2BE80, symSize: 0x2C }
  - { offset: 0xB43A3, size: 0x8, addend: 0x0, symName: '__ZN4pyo38instance14Bound$LT$T$GT$6as_ptr17h97d1d830ecf2b6edE', symObjAddr: 0xB574, symBinAddr: 0x2BEAC, symSize: 0x2C }
  - { offset: 0xB43DC, size: 0x8, addend: 0x0, symName: '__ZN4pyo38instance14Bound$LT$T$GT$6as_ptr17hbf5b5f611d0839edE', symObjAddr: 0xB5F8, symBinAddr: 0x2BED8, symSize: 0x2C }
  - { offset: 0xB4408, size: 0x8, addend: 0x0, symName: '__ZN4pyo38instance14Bound$LT$T$GT$6as_ptr17hcbf66eacfa975833E', symObjAddr: 0xB624, symBinAddr: 0x2BF04, symSize: 0x2C }
  - { offset: 0xB4434, size: 0x8, addend: 0x0, symName: '__ZN4pyo38instance14Bound$LT$T$GT$6as_ptr17hf6732cbb598f8406E', symObjAddr: 0xB650, symBinAddr: 0x2BF30, symSize: 0x2C }
  - { offset: 0xB4460, size: 0x8, addend: 0x0, symName: '__ZN4pyo38instance14Bound$LT$T$GT$6as_ptr17hfb99fba7d890a827E', symObjAddr: 0xB6A8, symBinAddr: 0x2BF5C, symSize: 0x2C }
  - { offset: 0xB448C, size: 0x8, addend: 0x0, symName: '__ZN4pyo38instance14Bound$LT$T$GT$6unbind17h0c758e2b138044cdE', symObjAddr: 0xB6D4, symBinAddr: 0x2BF88, symSize: 0x3C }
  - { offset: 0xB44B8, size: 0x8, addend: 0x0, symName: '__ZN4pyo38instance14Bound$LT$T$GT$6unbind17h292f9977fb292587E', symObjAddr: 0xB74C, symBinAddr: 0x2BFC4, symSize: 0x3C }
  - { offset: 0xB44E4, size: 0x8, addend: 0x0, symName: '__ZN4pyo38instance14Bound$LT$T$GT$6unbind17h33b697432d49c770E', symObjAddr: 0xB788, symBinAddr: 0x2C000, symSize: 0x3C }
  - { offset: 0xB4510, size: 0x8, addend: 0x0, symName: '__ZN4pyo38instance14Bound$LT$T$GT$6unbind17h3fbb71e81cf33fd1E', symObjAddr: 0xB7C4, symBinAddr: 0x2C03C, symSize: 0x3C }
  - { offset: 0xB453C, size: 0x8, addend: 0x0, symName: '__ZN4pyo38instance14Bound$LT$T$GT$6unbind17h59249450ad43adcfE', symObjAddr: 0xB800, symBinAddr: 0x2C078, symSize: 0x3C }
  - { offset: 0xB4568, size: 0x8, addend: 0x0, symName: '__ZN4pyo38instance14Bound$LT$T$GT$6unbind17h93aed70caaece295E', symObjAddr: 0xB83C, symBinAddr: 0x2C0B4, symSize: 0x3C }
  - { offset: 0xB4594, size: 0x8, addend: 0x0, symName: '__ZN4pyo38instance14Bound$LT$T$GT$6unbind17h9dac2cc0946e976fE', symObjAddr: 0xB878, symBinAddr: 0x2C0F0, symSize: 0x3C }
  - { offset: 0xB45C0, size: 0x8, addend: 0x0, symName: '__ZN4pyo38instance14Bound$LT$T$GT$8into_any17h4576c6ee4e0d193dE', symObjAddr: 0xBA1C, symBinAddr: 0x2C12C, symSize: 0x30 }
  - { offset: 0xB45EC, size: 0x8, addend: 0x0, symName: '__ZN4pyo38instance14Bound$LT$T$GT$8into_any17h6678ed3baa4201abE', symObjAddr: 0xBA4C, symBinAddr: 0x2C15C, symSize: 0x30 }
  - { offset: 0xB4618, size: 0x8, addend: 0x0, symName: '__ZN4pyo38instance14Bound$LT$T$GT$8into_any17h7ad1d18c925fbca3E', symObjAddr: 0xBAAC, symBinAddr: 0x2C18C, symSize: 0x30 }
  - { offset: 0xB4644, size: 0x8, addend: 0x0, symName: '__ZN4pyo38instance14Bound$LT$T$GT$8into_any17hd1331ac685cec024E', symObjAddr: 0xBB3C, symBinAddr: 0x2C1BC, symSize: 0x30 }
  - { offset: 0xB4670, size: 0x8, addend: 0x0, symName: '__ZN4pyo38instance14Bound$LT$T$GT$8into_any17hef4c364cc45c52ecE', symObjAddr: 0xBB6C, symBinAddr: 0x2C1EC, symSize: 0x30 }
  - { offset: 0xB469C, size: 0x8, addend: 0x0, symName: '__ZN4pyo38instance14Bound$LT$T$GT$8into_any17hfd7bc212c1561ffeE', symObjAddr: 0xBBCC, symBinAddr: 0x2C21C, symSize: 0x30 }
  - { offset: 0xB46C8, size: 0x8, addend: 0x0, symName: '__ZN4pyo38instance14Bound$LT$T$GT$8into_ptr17h58ce2bf1c63dce48E', symObjAddr: 0xBBFC, symBinAddr: 0x2C24C, symSize: 0x40 }
  - { offset: 0xB46F4, size: 0x8, addend: 0x0, symName: '__ZN4pyo38instance14Bound$LT$T$GT$9cast_into17h180bfaaf7338c8f6E', symObjAddr: 0xBC3C, symBinAddr: 0x2C28C, symSize: 0x30 }
  - { offset: 0xB4728, size: 0x8, addend: 0x0, symName: '__ZN4pyo38instance14Bound$LT$T$GT$9cast_into17h227dbfcea058d440E', symObjAddr: 0xBC6C, symBinAddr: 0x2C2BC, symSize: 0x30 }
  - { offset: 0xB475C, size: 0x8, addend: 0x0, symName: '__ZN4pyo38instance14Bound$LT$T$GT$9cast_into17h50a4c2e2571a69e6E', symObjAddr: 0xBCCC, symBinAddr: 0x2C2EC, symSize: 0x30 }
  - { offset: 0xB4790, size: 0x8, addend: 0x0, symName: '__ZN4pyo38instance14Bound$LT$T$GT$9cast_into17h82e836937cf260aeE', symObjAddr: 0xBCFC, symBinAddr: 0x2C31C, symSize: 0x30 }
  - { offset: 0xB47C4, size: 0x8, addend: 0x0, symName: '__ZN4pyo38instance14Bound$LT$T$GT$9cast_into17hdce38091cbf0b91dE', symObjAddr: 0xBDBC, symBinAddr: 0x2C34C, symSize: 0x30 }
  - { offset: 0xB47F8, size: 0x8, addend: 0x0, symName: '__ZN4pyo38instance17Borrowed$LT$T$GT$10cast_exact17hbefac55aa22800f2E', symObjAddr: 0xC7F4, symBinAddr: 0x2C868, symSize: 0x30 }
  - { offset: 0xB482D, size: 0x8, addend: 0x0, symName: '__ZN4pyo38instance17Borrowed$LT$T$GT$14cast_unchecked17h240c2e42f5896981E', symObjAddr: 0xC8B4, symBinAddr: 0x2C914, symSize: 0x14 }
  - { offset: 0xB4862, size: 0x8, addend: 0x0, symName: '__ZN4pyo38instance17Borrowed$LT$T$GT$14cast_unchecked17h42ce4f928c117d84E', symObjAddr: 0xC8DC, symBinAddr: 0x2C928, symSize: 0x14 }
  - { offset: 0xB4897, size: 0x8, addend: 0x0, symName: '__ZN4pyo38instance17Borrowed$LT$T$GT$14cast_unchecked17h4e4bcd2c6b0d3b27E', symObjAddr: 0xC8F0, symBinAddr: 0x2C93C, symSize: 0x14 }
  - { offset: 0xB48CC, size: 0x8, addend: 0x0, symName: '__ZN4pyo38instance17Borrowed$LT$T$GT$14cast_unchecked17h85ffa43699923b67E', symObjAddr: 0xC918, symBinAddr: 0x2C950, symSize: 0x14 }
  - { offset: 0xB4901, size: 0x8, addend: 0x0, symName: '__ZN4pyo38instance17Borrowed$LT$T$GT$14cast_unchecked17ha04da0a15851175eE', symObjAddr: 0xC940, symBinAddr: 0x2C964, symSize: 0x14 }
  - { offset: 0xB4936, size: 0x8, addend: 0x0, symName: '__ZN4pyo38instance17Borrowed$LT$T$GT$14cast_unchecked17ha97e84171cb8b652E', symObjAddr: 0xC968, symBinAddr: 0x2C978, symSize: 0x14 }
  - { offset: 0xB496B, size: 0x8, addend: 0x0, symName: '__ZN4pyo38instance17Borrowed$LT$T$GT$14cast_unchecked17hc0aaaf9c18115c1fE', symObjAddr: 0xC990, symBinAddr: 0x2C98C, symSize: 0x14 }
  - { offset: 0xB49A0, size: 0x8, addend: 0x0, symName: '__ZN4pyo38instance17Borrowed$LT$T$GT$14cast_unchecked17hc2ec3a81720a1589E', symObjAddr: 0xC9A4, symBinAddr: 0x2C9A0, symSize: 0x14 }
  - { offset: 0xB49D5, size: 0x8, addend: 0x0, symName: '__ZN4pyo38instance17Borrowed$LT$T$GT$14cast_unchecked17hd56c60a7af87a27eE', symObjAddr: 0xC9CC, symBinAddr: 0x2C9B4, symSize: 0x14 }
  - { offset: 0xB4A0A, size: 0x8, addend: 0x0, symName: '__ZN4pyo38instance17Borrowed$LT$T$GT$14cast_unchecked17hdb1cd3d531ee0434E', symObjAddr: 0xC9E0, symBinAddr: 0x2C9C8, symSize: 0x14 }
  - { offset: 0xB4A3F, size: 0x8, addend: 0x0, symName: '__ZN4pyo38instance17Borrowed$LT$T$GT$14cast_unchecked17hdf8dab3f802e9da8E', symObjAddr: 0xC9F4, symBinAddr: 0x2C9DC, symSize: 0x14 }
  - { offset: 0xB4A74, size: 0x8, addend: 0x0, symName: '__ZN4pyo38instance17Borrowed$LT$T$GT$4cast17h05fffeac63d9841eE', symObjAddr: 0xCA08, symBinAddr: 0x2C9F0, symSize: 0x30 }
  - { offset: 0xB4AA9, size: 0x8, addend: 0x0, symName: '__ZN4pyo38instance17Borrowed$LT$T$GT$4cast17h4e992b336ebd4a4eE', symObjAddr: 0xCA98, symBinAddr: 0x2CA20, symSize: 0x30 }
  - { offset: 0xB4ADE, size: 0x8, addend: 0x0, symName: '__ZN4pyo38instance17Borrowed$LT$T$GT$6as_ptr17h0eb921bea7835330E', symObjAddr: 0xCE10, symBinAddr: 0x2CB48, symSize: 0x1C }
  - { offset: 0xB4B0A, size: 0x8, addend: 0x0, symName: '__ZN4pyo38instance17Borrowed$LT$T$GT$6as_ptr17h16e392c2721ef1d7E', symObjAddr: 0xCE2C, symBinAddr: 0x2CB64, symSize: 0x1C }
  - { offset: 0xB4B36, size: 0x8, addend: 0x0, symName: '__ZN4pyo38instance17Borrowed$LT$T$GT$6as_ptr17ha170ad45097cc3f1E', symObjAddr: 0xCE64, symBinAddr: 0x2CB80, symSize: 0x1C }
  - { offset: 0xB4B62, size: 0x8, addend: 0x0, symName: '__ZN4pyo38instance17Borrowed$LT$T$GT$6as_ptr17hb84efbb2c0827133E', symObjAddr: 0xCE9C, symBinAddr: 0x2CB9C, symSize: 0x1C }
  - { offset: 0xB4B8E, size: 0x8, addend: 0x0, symName: '__ZN4pyo38instance17Borrowed$LT$T$GT$6as_ptr17hd08276eec93c3ab8E', symObjAddr: 0xCEB8, symBinAddr: 0x2CBB8, symSize: 0x1C }
  - { offset: 0xB4BBA, size: 0x8, addend: 0x0, symName: '__ZN4pyo38instance17Borrowed$LT$T$GT$6to_any17h2676eccf0d36f466E', symObjAddr: 0xCED4, symBinAddr: 0x2CBD4, symSize: 0x14 }
  - { offset: 0xB4BE6, size: 0x8, addend: 0x0, symName: '__ZN4pyo38instance17Borrowed$LT$T$GT$6to_any17h4e476acd01dd847aE', symObjAddr: 0xCF10, symBinAddr: 0x2CBE8, symSize: 0x14 }
  - { offset: 0xB4C12, size: 0x8, addend: 0x0, symName: '__ZN4pyo38instance17Borrowed$LT$T$GT$6to_any17hc1cc0fde762b9d0eE', symObjAddr: 0xCF24, symBinAddr: 0x2CBFC, symSize: 0x14 }
  - { offset: 0xB4C4C, size: 0x8, addend: 0x0, symName: '__ZN4pyo38instance17Borrowed$LT$T$GT$7extract17h23d02e9e9dc809fbE', symObjAddr: 0xCFD4, symBinAddr: 0x2CC10, symSize: 0x30 }
  - { offset: 0xB4CB6, size: 0x8, addend: 0x0, symName: '__ZN4pyo38instance17Borrowed$LT$T$GT$7extract17haef35918db828880E', symObjAddr: 0xD1E4, symBinAddr: 0x2CC40, symSize: 0x30 }
  - { offset: 0xB4CEB, size: 0x8, addend: 0x0, symName: '__ZN4pyo38instance17Borrowed$LT$T$GT$7extract17hfaab3523e8073413E', symObjAddr: 0xD274, symBinAddr: 0x2CC70, symSize: 0x30 }
  - { offset: 0xB4D20, size: 0x8, addend: 0x0, symName: '__ZN4pyo38instance17Borrowed$LT$T$GT$8to_owned17h0bddb90a04c5be61E', symObjAddr: 0xD2A4, symBinAddr: 0x2CCA0, symSize: 0x2C }
  - { offset: 0xB4D4C, size: 0x8, addend: 0x0, symName: '__ZN4pyo38instance17Borrowed$LT$T$GT$8to_owned17h4024b01d7539e3acE', symObjAddr: 0xD2D0, symBinAddr: 0x2CCCC, symSize: 0x2C }
  - { offset: 0xB4D78, size: 0x8, addend: 0x0, symName: '__ZN4pyo38instance17Borrowed$LT$T$GT$8to_owned17hc363a9c9f586a2d1E', symObjAddr: 0xD328, symBinAddr: 0x2CCF8, symSize: 0x2C }
  - { offset: 0xB4DDC, size: 0x8, addend: 0x0, symName: '__ZN4pyo38instance36Bound$LT$pyo3..types..any..PyAny$GT$14from_owned_ptr17h06977c066e66d80cE', symObjAddr: 0xD3B8, symBinAddr: 0x2CD24, symSize: 0x48 }
  - { offset: 0xB4E45, size: 0x8, addend: 0x0, symName: '__ZN4pyo38instance36Bound$LT$pyo3..types..any..PyAny$GT$17ref_from_non_null17hf9e5daacad1920aaE', symObjAddr: 0xD41C, symBinAddr: 0x2CD88, symSize: 0x38 }
  - { offset: 0xB4ECC, size: 0x8, addend: 0x0, symName: '__ZN4pyo38instance36Bound$LT$pyo3..types..any..PyAny$GT$21from_owned_ptr_or_err17h477047f31ee15ae3E', symObjAddr: 0xD48C, symBinAddr: 0x2CDC0, symSize: 0x9C }
  - { offset: 0xB4F28, size: 0x8, addend: 0x0, symName: '__ZN4pyo38instance36Bound$LT$pyo3..types..any..PyAny$GT$21from_owned_ptr_or_opt17h5f37d3c7c51333a3E', symObjAddr: 0xD528, symBinAddr: 0x2CE5C, symSize: 0x2C }
  - { offset: 0xB4F66, size: 0x8, addend: 0x0, symName: '__ZN4pyo38instance36Bound$LT$pyo3..types..any..PyAny$GT$24from_owned_ptr_unchecked17ha48d77f5007ba72aE', symObjAddr: 0xD58C, symBinAddr: 0x2CEC0, symSize: 0x38 }
  - { offset: 0xB4FA4, size: 0x8, addend: 0x0, symName: '__ZN4pyo38instance39Borrowed$LT$pyo3..types..any..PyAny$GT$13from_non_null17hf258cd2cd1d77835E', symObjAddr: 0xD5C4, symBinAddr: 0x2CEF8, symSize: 0x14 }
  - { offset: 0xB4FE2, size: 0x8, addend: 0x0, symName: '__ZN4pyo38instance39Borrowed$LT$pyo3..types..any..PyAny$GT$18from_ptr_unchecked17ha8b33dc968cfd765E', symObjAddr: 0xD6A8, symBinAddr: 0x2CFA4, symSize: 0x30 }
  - { offset: 0xB614E, size: 0x8, addend: 0x0, symName: '__ZN152_$LT$core..result..Result$LT$pyo3..instance..Bound$LT$pyo3..types..any..PyAny$GT$$C$pyo3..err..PyErr$GT$$u20$as$u20$pyo3..py_result_ext..PyResultExt$GT$19cast_into_unchecked17h0e9c4444bfcaeb45E', symObjAddr: 0x14, symBinAddr: 0x2EE44, symSize: 0x14 }
  - { offset: 0xB6184, size: 0x8, addend: 0x0, symName: '__ZN152_$LT$core..result..Result$LT$pyo3..instance..Bound$LT$pyo3..types..any..PyAny$GT$$C$pyo3..err..PyErr$GT$$u20$as$u20$pyo3..py_result_ext..PyResultExt$GT$19cast_into_unchecked17h2e5360f4dab0a6daE', symObjAddr: 0x28, symBinAddr: 0x2EE58, symSize: 0x14 }
  - { offset: 0xB61BA, size: 0x8, addend: 0x0, symName: '__ZN152_$LT$core..result..Result$LT$pyo3..instance..Bound$LT$pyo3..types..any..PyAny$GT$$C$pyo3..err..PyErr$GT$$u20$as$u20$pyo3..py_result_ext..PyResultExt$GT$19cast_into_unchecked17h4b3ff6cf039b0141E', symObjAddr: 0xA0, symBinAddr: 0x2EE6C, symSize: 0x14 }
  - { offset: 0xB61F0, size: 0x8, addend: 0x0, symName: '__ZN152_$LT$core..result..Result$LT$pyo3..instance..Bound$LT$pyo3..types..any..PyAny$GT$$C$pyo3..err..PyErr$GT$$u20$as$u20$pyo3..py_result_ext..PyResultExt$GT$19cast_into_unchecked17h88bfc0888e91cd51E', symObjAddr: 0xC8, symBinAddr: 0x2EE80, symSize: 0x14 }
  - { offset: 0xB6226, size: 0x8, addend: 0x0, symName: '__ZN152_$LT$core..result..Result$LT$pyo3..instance..Bound$LT$pyo3..types..any..PyAny$GT$$C$pyo3..err..PyErr$GT$$u20$as$u20$pyo3..py_result_ext..PyResultExt$GT$19cast_into_unchecked17he7f7602d9ce09f73E', symObjAddr: 0x154, symBinAddr: 0x2EE94, symSize: 0x14 }
  - { offset: 0xB625C, size: 0x8, addend: 0x0, symName: '__ZN152_$LT$core..result..Result$LT$pyo3..instance..Bound$LT$pyo3..types..any..PyAny$GT$$C$pyo3..err..PyErr$GT$$u20$as$u20$pyo3..py_result_ext..PyResultExt$GT$9cast_into17h7ffa7b1bb036c4caE', symObjAddr: 0x1CC, symBinAddr: 0x2EEA8, symSize: 0x14 }
  - { offset: 0xB7907, size: 0x8, addend: 0x0, symName: '__ZN153_$LT$core..result..Result$LT$T$C$F$GT$$u20$as$u20$core..ops..try_trait..FromResidual$LT$core..result..Result$LT$core..convert..Infallible$C$E$GT$$GT$$GT$13from_residual17h0514b2ebdf6fe4dbE', symObjAddr: 0x274, symBinAddr: 0x2EEBC, symSize: 0x6C }
  - { offset: 0xB798D, size: 0x8, addend: 0x0, symName: '__ZN153_$LT$core..result..Result$LT$T$C$F$GT$$u20$as$u20$core..ops..try_trait..FromResidual$LT$core..result..Result$LT$core..convert..Infallible$C$E$GT$$GT$$GT$13from_residual17h461bcc81fa597a55E', symObjAddr: 0xB00, symBinAddr: 0x2EF28, symSize: 0x6C }
  - { offset: 0xB7A13, size: 0x8, addend: 0x0, symName: '__ZN153_$LT$core..result..Result$LT$T$C$F$GT$$u20$as$u20$core..ops..try_trait..FromResidual$LT$core..result..Result$LT$core..convert..Infallible$C$E$GT$$GT$$GT$13from_residual17h4d6cca008e18e67aE', symObjAddr: 0xD1C, symBinAddr: 0x2EF94, symSize: 0x6C }
  - { offset: 0xB7A7A, size: 0x8, addend: 0x0, symName: '__ZN153_$LT$core..result..Result$LT$T$C$F$GT$$u20$as$u20$core..ops..try_trait..FromResidual$LT$core..result..Result$LT$core..convert..Infallible$C$E$GT$$GT$$GT$13from_residual17h4ee2bba7160607a0E', symObjAddr: 0xDF4, symBinAddr: 0x2F000, symSize: 0x6C }
  - { offset: 0xB7B00, size: 0x8, addend: 0x0, symName: '__ZN153_$LT$core..result..Result$LT$T$C$F$GT$$u20$as$u20$core..ops..try_trait..FromResidual$LT$core..result..Result$LT$core..convert..Infallible$C$E$GT$$GT$$GT$13from_residual17h59874ae5839313f1E', symObjAddr: 0xE60, symBinAddr: 0x2F06C, symSize: 0x6C }
  - { offset: 0xB7B86, size: 0x8, addend: 0x0, symName: '__ZN153_$LT$core..result..Result$LT$T$C$F$GT$$u20$as$u20$core..ops..try_trait..FromResidual$LT$core..result..Result$LT$core..convert..Infallible$C$E$GT$$GT$$GT$13from_residual17h67520c09a9867d03E', symObjAddr: 0x1010, symBinAddr: 0x2F0D8, symSize: 0x6C }
  - { offset: 0xB7C0C, size: 0x8, addend: 0x0, symName: '__ZN153_$LT$core..result..Result$LT$T$C$F$GT$$u20$as$u20$core..ops..try_trait..FromResidual$LT$core..result..Result$LT$core..convert..Infallible$C$E$GT$$GT$$GT$13from_residual17h729cc4d0310ea993E', symObjAddr: 0x130C, symBinAddr: 0x2F144, symSize: 0x6C }
  - { offset: 0xB7C92, size: 0x8, addend: 0x0, symName: '__ZN153_$LT$core..result..Result$LT$T$C$F$GT$$u20$as$u20$core..ops..try_trait..FromResidual$LT$core..result..Result$LT$core..convert..Infallible$C$E$GT$$GT$$GT$13from_residual17h8be16e3065eb8548E', symObjAddr: 0x1600, symBinAddr: 0x2F1B0, symSize: 0x6C }
  - { offset: 0xB7D18, size: 0x8, addend: 0x0, symName: '__ZN153_$LT$core..result..Result$LT$T$C$F$GT$$u20$as$u20$core..ops..try_trait..FromResidual$LT$core..result..Result$LT$core..convert..Infallible$C$E$GT$$GT$$GT$13from_residual17h8dc99bc7d64d3c0dE', symObjAddr: 0x166C, symBinAddr: 0x2F21C, symSize: 0x6C }
  - { offset: 0xB7D9E, size: 0x8, addend: 0x0, symName: '__ZN153_$LT$core..result..Result$LT$T$C$F$GT$$u20$as$u20$core..ops..try_trait..FromResidual$LT$core..result..Result$LT$core..convert..Infallible$C$E$GT$$GT$$GT$13from_residual17h90a98bd9fb0d0ac7E', symObjAddr: 0x16D8, symBinAddr: 0x2F288, symSize: 0x6C }
  - { offset: 0xB7E24, size: 0x8, addend: 0x0, symName: '__ZN153_$LT$core..result..Result$LT$T$C$F$GT$$u20$as$u20$core..ops..try_trait..FromResidual$LT$core..result..Result$LT$core..convert..Infallible$C$E$GT$$GT$$GT$13from_residual17ha7fd52e036f9f0e7E', symObjAddr: 0x1AE8, symBinAddr: 0x2F2F4, symSize: 0x6C }
  - { offset: 0xB7EAA, size: 0x8, addend: 0x0, symName: '__ZN153_$LT$core..result..Result$LT$T$C$F$GT$$u20$as$u20$core..ops..try_trait..FromResidual$LT$core..result..Result$LT$core..convert..Infallible$C$E$GT$$GT$$GT$13from_residual17hb41691dc2ff9e5b3E', symObjAddr: 0x1D58, symBinAddr: 0x2F360, symSize: 0x6C }
  - { offset: 0xB7F11, size: 0x8, addend: 0x0, symName: '__ZN153_$LT$core..result..Result$LT$T$C$F$GT$$u20$as$u20$core..ops..try_trait..FromResidual$LT$core..result..Result$LT$core..convert..Infallible$C$E$GT$$GT$$GT$13from_residual17hbe26a7be9534f067E', symObjAddr: 0x1F60, symBinAddr: 0x2F3CC, symSize: 0x6C }
  - { offset: 0xB7F97, size: 0x8, addend: 0x0, symName: '__ZN153_$LT$core..result..Result$LT$T$C$F$GT$$u20$as$u20$core..ops..try_trait..FromResidual$LT$core..result..Result$LT$core..convert..Infallible$C$E$GT$$GT$$GT$13from_residual17hc4f6ab54c35529f2E', symObjAddr: 0x1FCC, symBinAddr: 0x2F438, symSize: 0x6C }
  - { offset: 0xB801D, size: 0x8, addend: 0x0, symName: '__ZN153_$LT$core..result..Result$LT$T$C$F$GT$$u20$as$u20$core..ops..try_trait..FromResidual$LT$core..result..Result$LT$core..convert..Infallible$C$E$GT$$GT$$GT$13from_residual17hcd7e32eaca2b8912E', symObjAddr: 0x217C, symBinAddr: 0x2F4A4, symSize: 0x6C }
  - { offset: 0xB8084, size: 0x8, addend: 0x0, symName: '__ZN153_$LT$core..result..Result$LT$T$C$F$GT$$u20$as$u20$core..ops..try_trait..FromResidual$LT$core..result..Result$LT$core..convert..Infallible$C$E$GT$$GT$$GT$13from_residual17hce32a40fa29a5883E', symObjAddr: 0x21E8, symBinAddr: 0x2F510, symSize: 0x6C }
  - { offset: 0xB810A, size: 0x8, addend: 0x0, symName: '__ZN153_$LT$core..result..Result$LT$T$C$F$GT$$u20$as$u20$core..ops..try_trait..FromResidual$LT$core..result..Result$LT$core..convert..Infallible$C$E$GT$$GT$$GT$13from_residual17he3dc515a5aa22e4bE', symObjAddr: 0x25B4, symBinAddr: 0x2F57C, symSize: 0x14 }
  - { offset: 0xB8153, size: 0x8, addend: 0x0, symName: '__ZN153_$LT$core..result..Result$LT$T$C$F$GT$$u20$as$u20$core..ops..try_trait..FromResidual$LT$core..result..Result$LT$core..convert..Infallible$C$E$GT$$GT$$GT$13from_residual17hf55d278f268e978eE', symObjAddr: 0x2808, symBinAddr: 0x2F590, symSize: 0x6C }
  - { offset: 0xBAEF8, size: 0x8, addend: 0x0, symName: __ZN4core6result6Result2Ok17h241ab42af9ea5c12E, symObjAddr: 0x66F8, symBinAddr: 0x30600, symSize: 0x1C }
  - { offset: 0xBAF3B, size: 0x8, addend: 0x0, symName: '__ZN79_$LT$core..result..Result$LT$T$C$E$GT$$u20$as$u20$core..ops..try_trait..Try$GT$6branch17h09e2a7a57b0d3872E', symObjAddr: 0x6AC0, symBinAddr: 0x3061C, symSize: 0xA0 }
  - { offset: 0xBAFB8, size: 0x8, addend: 0x0, symName: '__ZN79_$LT$core..result..Result$LT$T$C$E$GT$$u20$as$u20$core..ops..try_trait..Try$GT$6branch17h0cdb876d0752378cE', symObjAddr: 0x6C0C, symBinAddr: 0x306BC, symSize: 0xA0 }
  - { offset: 0xBB035, size: 0x8, addend: 0x0, symName: '__ZN79_$LT$core..result..Result$LT$T$C$E$GT$$u20$as$u20$core..ops..try_trait..Try$GT$6branch17h156a031d062dbc29E', symObjAddr: 0x6DF4, symBinAddr: 0x3075C, symSize: 0xA0 }
  - { offset: 0xBB0B2, size: 0x8, addend: 0x0, symName: '__ZN79_$LT$core..result..Result$LT$T$C$E$GT$$u20$as$u20$core..ops..try_trait..Try$GT$6branch17h1f9eecb8beeab46fE', symObjAddr: 0x7048, symBinAddr: 0x307FC, symSize: 0xB4 }
  - { offset: 0xBB130, size: 0x8, addend: 0x0, symName: '__ZN79_$LT$core..result..Result$LT$T$C$E$GT$$u20$as$u20$core..ops..try_trait..Try$GT$6branch17h234f2275e9dca1b5E', symObjAddr: 0x70FC, symBinAddr: 0x308B0, symSize: 0x44 }
  - { offset: 0xBB1AC, size: 0x8, addend: 0x0, symName: '__ZN79_$LT$core..result..Result$LT$T$C$E$GT$$u20$as$u20$core..ops..try_trait..Try$GT$6branch17h4017fbb3c7e86482E', symObjAddr: 0x7538, symBinAddr: 0x308F4, symSize: 0x68 }
  - { offset: 0xBB229, size: 0x8, addend: 0x0, symName: '__ZN79_$LT$core..result..Result$LT$T$C$E$GT$$u20$as$u20$core..ops..try_trait..Try$GT$6branch17h440db5e2d4d7c5bdE', symObjAddr: 0x75A0, symBinAddr: 0x3095C, symSize: 0xA0 }
  - { offset: 0xBB2A6, size: 0x8, addend: 0x0, symName: '__ZN79_$LT$core..result..Result$LT$T$C$E$GT$$u20$as$u20$core..ops..try_trait..Try$GT$6branch17h485693c88ab42e10E', symObjAddr: 0x76EC, symBinAddr: 0x309FC, symSize: 0x68 }
  - { offset: 0xBB323, size: 0x8, addend: 0x0, symName: '__ZN79_$LT$core..result..Result$LT$T$C$E$GT$$u20$as$u20$core..ops..try_trait..Try$GT$6branch17h5676d64264c73cb6E', symObjAddr: 0x7840, symBinAddr: 0x30A64, symSize: 0x90 }
  - { offset: 0xBB3A0, size: 0x8, addend: 0x0, symName: '__ZN79_$LT$core..result..Result$LT$T$C$E$GT$$u20$as$u20$core..ops..try_trait..Try$GT$6branch17h5f72e1c56c76b5e0E', symObjAddr: 0x7970, symBinAddr: 0x30AF4, symSize: 0xA0 }
  - { offset: 0xBB41D, size: 0x8, addend: 0x0, symName: '__ZN79_$LT$core..result..Result$LT$T$C$E$GT$$u20$as$u20$core..ops..try_trait..Try$GT$6branch17h657397d6a492db16E', symObjAddr: 0x7AB8, symBinAddr: 0x30B94, symSize: 0x68 }
  - { offset: 0xBB49A, size: 0x8, addend: 0x0, symName: '__ZN79_$LT$core..result..Result$LT$T$C$E$GT$$u20$as$u20$core..ops..try_trait..Try$GT$6branch17h662a88590416ba1fE', symObjAddr: 0x7B20, symBinAddr: 0x30BFC, symSize: 0xA0 }
  - { offset: 0xBB517, size: 0x8, addend: 0x0, symName: '__ZN79_$LT$core..result..Result$LT$T$C$E$GT$$u20$as$u20$core..ops..try_trait..Try$GT$6branch17h69f0805473867d40E', symObjAddr: 0x7BC0, symBinAddr: 0x30C9C, symSize: 0xA0 }
  - { offset: 0xBB594, size: 0x8, addend: 0x0, symName: '__ZN79_$LT$core..result..Result$LT$T$C$E$GT$$u20$as$u20$core..ops..try_trait..Try$GT$6branch17h8aed8e74bbec2aedE', symObjAddr: 0x81A4, symBinAddr: 0x30D3C, symSize: 0xA0 }
  - { offset: 0xBB611, size: 0x8, addend: 0x0, symName: '__ZN79_$LT$core..result..Result$LT$T$C$E$GT$$u20$as$u20$core..ops..try_trait..Try$GT$6branch17h8ea9a7104d836fdaE', symObjAddr: 0x82E4, symBinAddr: 0x30DDC, symSize: 0x14 }
  - { offset: 0xBB64D, size: 0x8, addend: 0x0, symName: '__ZN79_$LT$core..result..Result$LT$T$C$E$GT$$u20$as$u20$core..ops..try_trait..Try$GT$6branch17h9095f8b64965ba0cE', symObjAddr: 0x82F8, symBinAddr: 0x30DF0, symSize: 0xA0 }
  - { offset: 0xBB6CA, size: 0x8, addend: 0x0, symName: '__ZN79_$LT$core..result..Result$LT$T$C$E$GT$$u20$as$u20$core..ops..try_trait..Try$GT$6branch17h9cf91542c151c0e0E', symObjAddr: 0x84A0, symBinAddr: 0x30E90, symSize: 0x38 }
  - { offset: 0xBB746, size: 0x8, addend: 0x0, symName: '__ZN79_$LT$core..result..Result$LT$T$C$E$GT$$u20$as$u20$core..ops..try_trait..Try$GT$6branch17ha47ec9d824d23a59E', symObjAddr: 0x8618, symBinAddr: 0x30EC8, symSize: 0xA0 }
  - { offset: 0xBB7C3, size: 0x8, addend: 0x0, symName: '__ZN79_$LT$core..result..Result$LT$T$C$E$GT$$u20$as$u20$core..ops..try_trait..Try$GT$6branch17hbb4107183587f74bE', symObjAddr: 0x872C, symBinAddr: 0x30F68, symSize: 0xA0 }
  - { offset: 0xBB840, size: 0x8, addend: 0x0, symName: '__ZN79_$LT$core..result..Result$LT$T$C$E$GT$$u20$as$u20$core..ops..try_trait..Try$GT$6branch17hc65d2d02b05e2f47E', symObjAddr: 0x8924, symBinAddr: 0x31008, symSize: 0xA0 }
  - { offset: 0xBB8BD, size: 0x8, addend: 0x0, symName: '__ZN79_$LT$core..result..Result$LT$T$C$E$GT$$u20$as$u20$core..ops..try_trait..Try$GT$6branch17hf0917204ac2f45abE', symObjAddr: 0x8D84, symBinAddr: 0x310A8, symSize: 0x68 }
  - { offset: 0xBB93A, size: 0x8, addend: 0x0, symName: '__ZN79_$LT$core..result..Result$LT$T$C$E$GT$$u20$as$u20$core..ops..try_trait..Try$GT$6branch17hfa086c9fa5c12e14E', symObjAddr: 0x8E8C, symBinAddr: 0x31110, symSize: 0xA0 }
  - { offset: 0xBDD04, size: 0x8, addend: 0x0, symName: '__ZN4core6result19Result$LT$T$C$E$GT$14unwrap_or_else17h73d30a1534a42814E', symObjAddr: 0x294C, symBinAddr: 0x2F5FC, symSize: 0x9C }
  - { offset: 0xBDE45, size: 0x8, addend: 0x0, symName: '__ZN4core6result19Result$LT$T$C$E$GT$3map17h1780c4f06005cf5cE', symObjAddr: 0x2D38, symBinAddr: 0x2F698, symSize: 0x90 }
  - { offset: 0xBDEF2, size: 0x8, addend: 0x0, symName: '__ZN4core6result19Result$LT$T$C$E$GT$3map17h429f641a3ad5922fE', symObjAddr: 0x3160, symBinAddr: 0x2F728, symSize: 0x74 }
  - { offset: 0xBDF84, size: 0x8, addend: 0x0, symName: '__ZN4core6result19Result$LT$T$C$E$GT$3map17h4f89050513c6e580E', symObjAddr: 0x3264, symBinAddr: 0x2F79C, symSize: 0x90 }
  - { offset: 0xBE017, size: 0x8, addend: 0x0, symName: '__ZN4core6result19Result$LT$T$C$E$GT$3map17h6610e362f3b29afaE', symObjAddr: 0x3414, symBinAddr: 0x2F82C, symSize: 0x90 }
  - { offset: 0xBE0AA, size: 0x8, addend: 0x0, symName: '__ZN4core6result19Result$LT$T$C$E$GT$3map17h77f2a50406381528E', symObjAddr: 0x35FC, symBinAddr: 0x2F8BC, symSize: 0x90 }
  - { offset: 0xBE144, size: 0x8, addend: 0x0, symName: '__ZN4core6result19Result$LT$T$C$E$GT$3map17ha077cde8d9f074ebE', symObjAddr: 0x37AC, symBinAddr: 0x2F94C, symSize: 0xA0 }
  - { offset: 0xBE1EF, size: 0x8, addend: 0x0, symName: '__ZN4core6result19Result$LT$T$C$E$GT$3map17hb48c05b3a5535e63E', symObjAddr: 0x38D8, symBinAddr: 0x2F9EC, symSize: 0xBC }
  - { offset: 0xBE282, size: 0x8, addend: 0x0, symName: '__ZN4core6result19Result$LT$T$C$E$GT$3map17hd0d5bd8791ea5dc2E', symObjAddr: 0x3AB4, symBinAddr: 0x2FAA8, symSize: 0x90 }
  - { offset: 0xBE32D, size: 0x8, addend: 0x0, symName: '__ZN4core6result19Result$LT$T$C$E$GT$3map17hd77d6dedbb14dea9E', symObjAddr: 0x3B44, symBinAddr: 0x2FB38, symSize: 0xA8 }
  - { offset: 0xBE3C1, size: 0x8, addend: 0x0, symName: '__ZN4core6result19Result$LT$T$C$E$GT$3map17hdd1374452dccd9b1E', symObjAddr: 0x3CF0, symBinAddr: 0x2FBE0, symSize: 0x90 }
  - { offset: 0xBE461, size: 0x8, addend: 0x0, symName: '__ZN4core6result19Result$LT$T$C$E$GT$3map17heddf957b9f9cf8a9E', symObjAddr: 0x3ECC, symBinAddr: 0x2FC70, symSize: 0x9C }
  - { offset: 0xBE501, size: 0x8, addend: 0x0, symName: '__ZN4core6result19Result$LT$T$C$E$GT$6as_ref17hd888c3e1cab9532eE', symObjAddr: 0x4088, symBinAddr: 0x2FD0C, symSize: 0x68 }
  - { offset: 0xBE572, size: 0x8, addend: 0x0, symName: '__ZN4core6result19Result$LT$T$C$E$GT$6expect17h1b62b6bd2f0f8bcaE', symObjAddr: 0x40F0, symBinAddr: 0x2FD74, symSize: 0xB0 }
  - { offset: 0xBE5D5, size: 0x8, addend: 0x0, symName: '__ZN4core6result19Result$LT$T$C$E$GT$6expect17h2633ba68d7f7cad7E', symObjAddr: 0x41A0, symBinAddr: 0x2FE24, symSize: 0xA4 }
  - { offset: 0xBE638, size: 0x8, addend: 0x0, symName: '__ZN4core6result19Result$LT$T$C$E$GT$6expect17h55db13f3f1819d4eE', symObjAddr: 0x4428, symBinAddr: 0x2FEC8, symSize: 0x84 }
  - { offset: 0xBE69A, size: 0x8, addend: 0x0, symName: '__ZN4core6result19Result$LT$T$C$E$GT$6expect17h92d9db61ffe04a10E', symObjAddr: 0x44AC, symBinAddr: 0x2FF4C, symSize: 0x78 }
  - { offset: 0xBE703, size: 0x8, addend: 0x0, symName: '__ZN4core6result19Result$LT$T$C$E$GT$6expect17hfa492d85206a3cf9E', symObjAddr: 0x487C, symBinAddr: 0x2FFC4, symSize: 0xB0 }
  - { offset: 0xBE7B8, size: 0x8, addend: 0x0, symName: '__ZN4core6result19Result$LT$T$C$E$GT$7map_err17h53f6aa4b178da37dE', symObjAddr: 0x4FEC, symBinAddr: 0x30074, symSize: 0x84 }
  - { offset: 0xBE84B, size: 0x8, addend: 0x0, symName: '__ZN4core6result19Result$LT$T$C$E$GT$7map_err17h6a458bf9cba19871E', symObjAddr: 0x5240, symBinAddr: 0x300F8, symSize: 0x98 }
  - { offset: 0xBE8DE, size: 0x8, addend: 0x0, symName: '__ZN4core6result19Result$LT$T$C$E$GT$7map_err17h71e81bf9e77d1b68E', symObjAddr: 0x52D8, symBinAddr: 0x30190, symSize: 0x7C }
  - { offset: 0xBE9A2, size: 0x8, addend: 0x0, symName: '__ZN4core6result19Result$LT$T$C$E$GT$7map_err17h9ce088e13821f0a0E', symObjAddr: 0x566C, symBinAddr: 0x3020C, symSize: 0x30 }
  - { offset: 0xBEA18, size: 0x8, addend: 0x0, symName: '__ZN4core6result19Result$LT$T$C$E$GT$7map_err17h9d7dc0a03b2664b8E', symObjAddr: 0x569C, symBinAddr: 0x3023C, symSize: 0x84 }
  - { offset: 0xBEAAB, size: 0x8, addend: 0x0, symName: '__ZN4core6result19Result$LT$T$C$E$GT$7map_err17ha383cbf55bb53e31E', symObjAddr: 0x579C, symBinAddr: 0x302C0, symSize: 0x30 }
  - { offset: 0xBEB21, size: 0x8, addend: 0x0, symName: '__ZN4core6result19Result$LT$T$C$E$GT$7map_err17ha6bde68434c47766E', symObjAddr: 0x57CC, symBinAddr: 0x302F0, symSize: 0x98 }
  - { offset: 0xBEBB4, size: 0x8, addend: 0x0, symName: '__ZN4core6result19Result$LT$T$C$E$GT$8and_then17h99f394725a95abb2E', symObjAddr: 0x6210, symBinAddr: 0x30388, symSize: 0x88 }
  - { offset: 0xBEC47, size: 0x8, addend: 0x0, symName: '__ZN4core6result19Result$LT$T$C$E$GT$9unwrap_or17h263116c70809c34dE', symObjAddr: 0x6508, symBinAddr: 0x30410, symSize: 0x104 }
  - { offset: 0xBECAB, size: 0x8, addend: 0x0, symName: '__ZN4core6result19Result$LT$T$C$E$GT$9unwrap_or17h4f100b149919c18fE', symObjAddr: 0x660C, symBinAddr: 0x30514, symSize: 0x70 }
  - { offset: 0xBED0E, size: 0x8, addend: 0x0, symName: '__ZN4core6result19Result$LT$T$C$E$GT$9unwrap_or17ha8c7bc893014c12cE', symObjAddr: 0x667C, symBinAddr: 0x30584, symSize: 0x7C }
  - { offset: 0xC05E6, size: 0x8, addend: 0x0, symName: '__ZN4core3ops8function5impls79_$LT$impl$u20$core..ops..function..FnMut$LT$A$GT$$u20$for$u20$$RF$mut$u20$F$GT$8call_mut17h10ee9742dc1dde5eE', symObjAddr: 0x968, symBinAddr: 0x313C0, symSize: 0x38 }
  - { offset: 0xC0635, size: 0x8, addend: 0x0, symName: '__ZN4core3ops8function5impls79_$LT$impl$u20$core..ops..function..FnMut$LT$A$GT$$u20$for$u20$$RF$mut$u20$F$GT$8call_mut17h34eec2d058e20b3fE', symObjAddr: 0x9A0, symBinAddr: 0x313F8, symSize: 0x38 }
  - { offset: 0xC0735, size: 0x8, addend: 0x0, symName: __ZN4core4char7methods25encode_utf8_raw_unchecked17h34da135a00274711E, symObjAddr: 0xD28, symBinAddr: 0x31488, symSize: 0x188 }
  - { offset: 0xC08EB, size: 0x8, addend: 0x0, symName: '__ZN4core5slice29_$LT$impl$u20$$u5b$T$u5d$$GT$4iter17h40b80a93c49451a9E', symObjAddr: 0x11AC, symBinAddr: 0x31708, symSize: 0x28 }
  - { offset: 0xC09DB, size: 0x8, addend: 0x0, symName: '__ZN4core4iter6traits8iterator8Iterator8find_map5check28_$u7b$$u7b$closure$u7d$$u7d$17hd8743f8f0e76da26E', symObjAddr: 0xEB0, symBinAddr: 0x31610, symSize: 0x7C }
  - { offset: 0xC0A5E, size: 0x8, addend: 0x0, symName: '__ZN4core4iter6traits8iterator8Iterator8find_map5check28_$u7b$$u7b$closure$u7d$$u7d$17he1ec79b3edfcb932E', symObjAddr: 0xF2C, symBinAddr: 0x3168C, symSize: 0x7C }
  - { offset: 0xC0FE5, size: 0x8, addend: 0x0, symName: __ZN5alloc3fmt6format17h4067fa3718d3643aE, symObjAddr: 0x6E24, symBinAddr: 0x31D20, symSize: 0xD4 }
  - { offset: 0xC1049, size: 0x8, addend: 0x0, symName: '__ZN5alloc3fmt6format28_$u7b$$u7b$closure$u7d$$u7d$17h1a6a1a48d4678176E', symObjAddr: 0x6EF8, symBinAddr: 0x31DF4, symSize: 0x48 }
  - { offset: 0xC108F, size: 0x8, addend: 0x0, symName: '__ZN87_$LT$T$u20$as$u20$alloc..slice..$LT$impl$u20$$u5b$T$u5d$$GT$..to_vec_in..ConvertVec$GT$6to_vec17hf4f7eb495ba5a130E', symObjAddr: 0x6FC4, symBinAddr: 0x31E3C, symSize: 0x12C }
  - { offset: 0xC19A8, size: 0x8, addend: 0x0, symName: __ZN8pyo3_ffi7cpython11floatobject13_PyFloat_CAST17hffc68e44fba4b2caE, symObjAddr: 0x7A18, symBinAddr: 0x31F68, symSize: 0x8C }
  - { offset: 0xC1A1D, size: 0x8, addend: 0x0, symName: __ZN8pyo3_ffi7cpython11floatobject17PyFloat_AS_DOUBLE17h05864535c8efd1b1E, symObjAddr: 0x7AA4, symBinAddr: 0x31FF4, symSize: 0x78 }
  - { offset: 0xC1CBE, size: 0x8, addend: 0x0, symName: __ZN4pyo35impl_10trampoline33panic_result_into_callback_output17h6089407ca2296edbE, symObjAddr: 0x1E14, symBinAddr: 0x31730, symSize: 0x12C }
  - { offset: 0xC1D8A, size: 0x8, addend: 0x0, symName: __ZN4pyo35impl_10trampoline33panic_result_into_callback_output17hb5fe9227cd853559E, symObjAddr: 0x1F40, symBinAddr: 0x3185C, symSize: 0x114 }
  - { offset: 0xC1FB0, size: 0x8, addend: 0x0, symName: '__ZN4pyo35impl_16extract_argument19FunctionDescription34missing_required_keyword_arguments28_$u7b$$u7b$closure$u7d$$u7d$17hb6cbab06ec3dc538E', symObjAddr: 0x2A24, symBinAddr: 0x31970, symSize: 0x84 }
  - { offset: 0xC2020, size: 0x8, addend: 0x0, symName: '__ZN4pyo35impl_16extract_argument19FunctionDescription37missing_required_positional_arguments28_$u7b$$u7b$closure$u7d$$u7d$17h8a7262957d218fecE', symObjAddr: 0x2BF0, symBinAddr: 0x319F4, symSize: 0x78 }
  - { offset: 0xC208C, size: 0x8, addend: 0x0, symName: __ZN4pyo35impl_16extract_argument19push_parameter_list17he78b0d0ca027eedeE, symObjAddr: 0x2D80, symBinAddr: 0x31B84, symSize: 0x19C }
  - { offset: 0xC2118, size: 0x8, addend: 0x0, symName: __ZN4pyo35impl_16extract_argument25argument_extraction_error17hf0273ad2fd0618b5E, symObjAddr: 0x2F1C, symBinAddr: 0x7CFD8, symSize: 0x228 }
  - { offset: 0xC2B9C, size: 0x8, addend: 0x0, symName: __ZN4core3fmt2rt8Argument11new_display17h09c021a9802f9f0cE, symObjAddr: 0x5F8, symBinAddr: 0x311B0, symSize: 0x2C }
  - { offset: 0xC2BD4, size: 0x8, addend: 0x0, symName: __ZN4core3fmt2rt8Argument11new_display17h1ec7ee9f39c06940E, symObjAddr: 0x624, symBinAddr: 0x311DC, symSize: 0x2C }
  - { offset: 0xC2C19, size: 0x8, addend: 0x0, symName: __ZN4core3fmt2rt8Argument11new_display17h36a9b983d8bcf8aaE, symObjAddr: 0x67C, symBinAddr: 0x31208, symSize: 0x2C }
  - { offset: 0xC2C85, size: 0x8, addend: 0x0, symName: __ZN4core3fmt2rt8Argument11new_display17h4b96247c944d91e5E, symObjAddr: 0x6D4, symBinAddr: 0x31234, symSize: 0x2C }
  - { offset: 0xC2CBD, size: 0x8, addend: 0x0, symName: __ZN4core3fmt2rt8Argument11new_display17h7006f262f53bd882E, symObjAddr: 0x700, symBinAddr: 0x31260, symSize: 0x2C }
  - { offset: 0xC2CF5, size: 0x8, addend: 0x0, symName: __ZN4core3fmt2rt8Argument11new_display17h7273d1f4abcd99b7E, symObjAddr: 0x72C, symBinAddr: 0x3128C, symSize: 0x2C }
  - { offset: 0xC2D2D, size: 0x8, addend: 0x0, symName: __ZN4core3fmt2rt8Argument11new_display17h7874666060723a9bE, symObjAddr: 0x758, symBinAddr: 0x312B8, symSize: 0x2C }
  - { offset: 0xC2D8C, size: 0x8, addend: 0x0, symName: __ZN4core3fmt2rt8Argument11new_display17ha76cd9ba33d07520E, symObjAddr: 0x7DC, symBinAddr: 0x312E4, symSize: 0x2C }
  - { offset: 0xC2DC4, size: 0x8, addend: 0x0, symName: __ZN4core3fmt2rt8Argument11new_display17ha95fa40b04ee97daE, symObjAddr: 0x808, symBinAddr: 0x31310, symSize: 0x2C }
  - { offset: 0xC2DFC, size: 0x8, addend: 0x0, symName: __ZN4core3fmt2rt8Argument11new_display17hb29a867fe564a6f8E, symObjAddr: 0x834, symBinAddr: 0x3133C, symSize: 0x2C }
  - { offset: 0xC2E34, size: 0x8, addend: 0x0, symName: __ZN4core3fmt2rt8Argument11new_display17hf2157d17105472b5E, symObjAddr: 0x88C, symBinAddr: 0x31368, symSize: 0x2C }
  - { offset: 0xC2E6C, size: 0x8, addend: 0x0, symName: __ZN4core3fmt2rt8Argument9new_debug17h32894205463d7728E, symObjAddr: 0x8B8, symBinAddr: 0x31394, symSize: 0x2C }
  - { offset: 0xC2EA4, size: 0x8, addend: 0x0, symName: '__ZN4core4cell13Cell$LT$T$GT$3get17h9d1e614db172c83dE', symObjAddr: 0x9D8, symBinAddr: 0x31430, symSize: 0x18 }
  - { offset: 0xC2EF8, size: 0x8, addend: 0x0, symName: '__ZN4core4cell13Cell$LT$T$GT$3set17h5e62e3e5e6ea9554E', symObjAddr: 0x9F0, symBinAddr: 0x31448, symSize: 0x1C }
  - { offset: 0xC2F6E, size: 0x8, addend: 0x0, symName: '__ZN4core4cell13Cell$LT$T$GT$7replace17hffa6783c6efcb53dE', symObjAddr: 0xA0C, symBinAddr: 0x31464, symSize: 0x24 }
  - { offset: 0xC3081, size: 0x8, addend: 0x0, symName: __ZN4pyo35impl_16extract_argument19FunctionDescription26missing_required_arguments17hcb769b782eadf3b2E, symObjAddr: 0x2054, symBinAddr: 0x7C4C0, symSize: 0x1F0 }
  - { offset: 0xC3145, size: 0x8, addend: 0x0, symName: __ZN4pyo35impl_16extract_argument19FunctionDescription27unexpected_keyword_argument17hab569334e38b82f4E, symObjAddr: 0x2244, symBinAddr: 0x7C6B0, symSize: 0x128 }
  - { offset: 0xC31D3, size: 0x8, addend: 0x0, symName: __ZN4pyo35impl_16extract_argument19FunctionDescription28multiple_values_for_argument17h1d5c1f859a5fcbfaE, symObjAddr: 0x236C, symBinAddr: 0x7C7D8, symSize: 0x108 }
  - { offset: 0xC3259, size: 0x8, addend: 0x0, symName: __ZN4pyo35impl_16extract_argument19FunctionDescription29too_many_positional_arguments17h3658bc654209fc47E, symObjAddr: 0x2474, symBinAddr: 0x7C8E0, symSize: 0x2F4 }
  - { offset: 0xC336A, size: 0x8, addend: 0x0, symName: __ZN4pyo35impl_16extract_argument19FunctionDescription33positional_only_keyword_arguments17hd1b31afdd66f48efE, symObjAddr: 0x2768, symBinAddr: 0x7CBD4, symSize: 0x138 }
  - { offset: 0xC3416, size: 0x8, addend: 0x0, symName: __ZN4pyo35impl_16extract_argument19FunctionDescription34missing_required_keyword_arguments17h933f659654db301cE, symObjAddr: 0x28A0, symBinAddr: 0x7CD0C, symSize: 0x184 }
  - { offset: 0xC34AD, size: 0x8, addend: 0x0, symName: __ZN4pyo35impl_16extract_argument19FunctionDescription37missing_required_positional_arguments17h498b872034f5c554E, symObjAddr: 0x2AA8, symBinAddr: 0x7CE90, symSize: 0x148 }
  - { offset: 0xC34F6, size: 0x8, addend: 0x0, symName: __ZN4pyo35impl_16extract_argument19FunctionDescription9full_name17h8962395b12bf0a34E, symObjAddr: 0x2C68, symBinAddr: 0x31A6C, symSize: 0x118 }
  - { offset: 0xC4AAB, size: 0x8, addend: 0x0, symName: '__ZN4core3num23_$LT$impl$u20$usize$GT$13unchecked_add18precondition_check17he7a7fdf97c1a1aa9E', symObjAddr: 0x1450, symBinAddr: 0x32218, symSize: 0xB0 }
  - { offset: 0xC5316, size: 0x8, addend: 0x0, symName: __ZN4core3ptr14read_unaligned17h68572e7c22fa6ce7E, symObjAddr: 0x183C, symBinAddr: 0x322C8, symSize: 0xA4 }
  - { offset: 0xC542B, size: 0x8, addend: 0x0, symName: __ZN4core3ptr19copy_nonoverlapping18precondition_check17he62359744c9113adE, symObjAddr: 0x1958, symBinAddr: 0x3236C, symSize: 0x36C }
  - { offset: 0xC57D0, size: 0x8, addend: 0x0, symName: '__ZN4core3ptr7mut_ptr31_$LT$impl$u20$$BP$mut$u20$T$GT$6offset18precondition_check17hf6bfc9372a73b1b9E', symObjAddr: 0x271C, symBinAddr: 0x326D8, symSize: 0x110 }
  - { offset: 0xC59AE, size: 0x8, addend: 0x0, symName: '__ZN4core3ptr7mut_ptr31_$LT$impl$u20$$BP$mut$u20$T$GT$7is_null17h87624b529da1f9b5E', symObjAddr: 0x285C, symBinAddr: 0x327E8, symSize: 0x18 }
  - { offset: 0xC5E31, size: 0x8, addend: 0x0, symName: '__ZN100_$LT$core..array..iter..iter_inner..PolymorphicIter$LT$DATA$GT$$u20$as$u20$core..ops..drop..Drop$GT$4drop17hdb2a66e4689905cfE', symObjAddr: 0x70, symBinAddr: 0x3206C, symSize: 0x38 }
  - { offset: 0xC5F8C, size: 0x8, addend: 0x0, symName: '__ZN82_$LT$core..array..iter..IntoIter$LT$T$C$_$GT$$u20$as$u20$core..ops..drop..Drop$GT$4drop17hcd4cb4159fd9eda8E', symObjAddr: 0x51EC, symBinAddr: 0x32E20, symSize: 0x10 }
  - { offset: 0xC5FC5, size: 0x8, addend: 0x0, symName: '__ZN99_$LT$core..array..iter..IntoIter$LT$T$C$_$GT$$u20$as$u20$core..iter..traits..iterator..Iterator$GT$4next17hc95c2b376a5b6be1E', symObjAddr: 0x5844, symBinAddr: 0x332F0, symSize: 0x2C }
  - { offset: 0xC6011, size: 0x8, addend: 0x0, symName: '__ZN100_$LT$core..iter..adapters..take..Take$LT$I$GT$$u20$as$u20$core..iter..traits..iterator..Iterator$GT$4next17hb9949529e8b09685E', symObjAddr: 0x200, symBinAddr: 0x320A4, symSize: 0x58 }
  - { offset: 0xC6046, size: 0x8, addend: 0x0, symName: '__ZN100_$LT$core..iter..adapters..take..Take$LT$I$GT$$u20$as$u20$core..iter..traits..iterator..Iterator$GT$9size_hint17hdfaf722172b702faE', symObjAddr: 0x258, symBinAddr: 0x320FC, symSize: 0x11C }
  - { offset: 0xC622A, size: 0x8, addend: 0x0, symName: __ZN4core4iter6traits8iterator8Iterator3zip17h0dac98f5c1efd12dE, symObjAddr: 0x2B78, symBinAddr: 0x32800, symSize: 0xB0 }
  - { offset: 0xC62A0, size: 0x8, addend: 0x0, symName: __ZN4core4iter6traits8iterator8Iterator9enumerate17he7d5ac1ba9150729E, symObjAddr: 0x2C28, symBinAddr: 0x328B0, symSize: 0x18 }
  - { offset: 0xC62D1, size: 0x8, addend: 0x0, symName: __ZN4core4iter6traits8iterator8Iterator9enumerate17he7d5ac1ba9150729E, symObjAddr: 0x2C28, symBinAddr: 0x328B0, symSize: 0x18 }
  - { offset: 0xC70C2, size: 0x8, addend: 0x0, symName: __ZN8pyo3_ffi6object10Py_IS_TYPE17hf17802337cffe2a3E, symObjAddr: 0x5344, symBinAddr: 0x32EE4, symSize: 0x38 }
  - { offset: 0xC70FC, size: 0x8, addend: 0x0, symName: __ZN8pyo3_ffi6object12PyType_Check17h7ddf38e033428f99E, symObjAddr: 0x537C, symBinAddr: 0x32F1C, symSize: 0x30 }
  - { offset: 0xC712A, size: 0x8, addend: 0x0, symName: __ZN8pyo3_ffi6object17PyType_HasFeature17ha890910568eddc45E, symObjAddr: 0x53AC, symBinAddr: 0x32F4C, symSize: 0x8C }
  - { offset: 0xC7185, size: 0x8, addend: 0x0, symName: __ZN8pyo3_ffi6object18PyObject_TypeCheck17h4d1902b4a6594514E, symObjAddr: 0x5444, symBinAddr: 0x32FD8, symSize: 0x70 }
  - { offset: 0xC71C2, size: 0x8, addend: 0x0, symName: __ZN8pyo3_ffi6object19PyType_FastSubclass17h224693d51dd3a435E, symObjAddr: 0x54B4, symBinAddr: 0x33048, symSize: 0x28 }
  - { offset: 0xC71FF, size: 0x8, addend: 0x0, symName: __ZN8pyo3_ffi6object7Py_None17hcd5550740354bf0fE, symObjAddr: 0x5510, symBinAddr: 0x33070, symSize: 0xC }
  - { offset: 0xC721D, size: 0x8, addend: 0x0, symName: __ZN8pyo3_ffi6object7Py_SIZE17h553f5adf85ed5cb3E, symObjAddr: 0x551C, symBinAddr: 0x3307C, symSize: 0x1D4 }
  - { offset: 0xC8188, size: 0x8, addend: 0x0, symName: '__ZN87_$LT$$BP$mut$u20$pyo3_ffi..object..PyObject$u20$as$u20$pyo3..ffi_ptr_ext..FfiPtrExt$GT$12assume_owned17h761dc3aa4e4d044bE', symObjAddr: 0x521C, symBinAddr: 0x32E30, symSize: 0x24 }
  - { offset: 0xC81CD, size: 0x8, addend: 0x0, symName: '__ZN87_$LT$$BP$mut$u20$pyo3_ffi..object..PyObject$u20$as$u20$pyo3..ffi_ptr_ext..FfiPtrExt$GT$19assume_owned_or_err17hd42a8664de45d18cE', symObjAddr: 0x5264, symBinAddr: 0x32E54, symSize: 0x24 }
  - { offset: 0xC8212, size: 0x8, addend: 0x0, symName: '__ZN87_$LT$$BP$mut$u20$pyo3_ffi..object..PyObject$u20$as$u20$pyo3..ffi_ptr_ext..FfiPtrExt$GT$19assume_owned_or_opt17ha7cd63f06e7c34c3E', symObjAddr: 0x5288, symBinAddr: 0x32E78, symSize: 0x24 }
  - { offset: 0xC8257, size: 0x8, addend: 0x0, symName: '__ZN87_$LT$$BP$mut$u20$pyo3_ffi..object..PyObject$u20$as$u20$pyo3..ffi_ptr_ext..FfiPtrExt$GT$22assume_owned_unchecked17h34ddf87aaf0847f9E', symObjAddr: 0x52D0, symBinAddr: 0x32E9C, symSize: 0x24 }
  - { offset: 0xC829C, size: 0x8, addend: 0x0, symName: '__ZN87_$LT$$BP$mut$u20$pyo3_ffi..object..PyObject$u20$as$u20$pyo3..ffi_ptr_ext..FfiPtrExt$GT$25assume_borrowed_unchecked17hcd15e836657ea9bcE', symObjAddr: 0x52F4, symBinAddr: 0x32EC0, symSize: 0x24 }
  - { offset: 0xC8A78, size: 0x8, addend: 0x0, symName: '__ZN4core5array4iter10iter_inner78PolymorphicIter$LT$$u5b$core..mem..maybe_uninit..MaybeUninit$LT$T$GT$$u5d$$GT$4next17h55ebedb67ac5eb38E', symObjAddr: 0x2C58, symBinAddr: 0x328C8, symSize: 0x184 }
  - { offset: 0xC8D84, size: 0x8, addend: 0x0, symName: '__ZN72_$LT$alloc..boxed..Box$LT$T$C$A$GT$$u20$as$u20$core..ops..drop..Drop$GT$4drop17h185da4a21f2863a4E', symObjAddr: 0x4930, symBinAddr: 0x32A4C, symSize: 0xB8 }
  - { offset: 0xC8EBF, size: 0x8, addend: 0x0, symName: '__ZN72_$LT$alloc..boxed..Box$LT$T$C$A$GT$$u20$as$u20$core..ops..drop..Drop$GT$4drop17h2dd1b6bfb3b2f95cE', symObjAddr: 0x49E8, symBinAddr: 0x32B04, symSize: 0xB8 }
  - { offset: 0xC8FFA, size: 0x8, addend: 0x0, symName: '__ZN72_$LT$alloc..boxed..Box$LT$T$C$A$GT$$u20$as$u20$core..ops..drop..Drop$GT$4drop17h48436a95e206521eE', symObjAddr: 0x4AA0, symBinAddr: 0x32BBC, symSize: 0xCC }
  - { offset: 0xC9135, size: 0x8, addend: 0x0, symName: '__ZN72_$LT$alloc..boxed..Box$LT$T$C$A$GT$$u20$as$u20$core..ops..drop..Drop$GT$4drop17h83a7e92a837ee11bE', symObjAddr: 0x4C38, symBinAddr: 0x32C88, symSize: 0xCC }
  - { offset: 0xC9270, size: 0x8, addend: 0x0, symName: '__ZN72_$LT$alloc..boxed..Box$LT$T$C$A$GT$$u20$as$u20$core..ops..drop..Drop$GT$4drop17hdd6c3b20fbeba76fE', symObjAddr: 0x50A8, symBinAddr: 0x32D54, symSize: 0xCC }
  - { offset: 0xC93B1, size: 0x8, addend: 0x0, symName: '__ZN90_$LT$alloc..boxed..Box$LT$F$C$A$GT$$u20$as$u20$core..ops..function..FnOnce$LT$Args$GT$$GT$9call_once17h1921b0fc9078cc53E', symObjAddr: 0x5720, symBinAddr: 0x33250, symSize: 0xA0 }
  - { offset: 0xC99AB, size: 0x8, addend: 0x0, symName: '__ZN104_$LT$core..ops..index_range..IndexRange$u20$as$u20$core..slice..index..SliceIndex$LT$$u5b$T$u5d$$GT$$GT$17get_unchecked_mut18precondition_check17h82fbcd8f5d82ed6bE', symObjAddr: 0x0, symBinAddr: 0x3331C, symSize: 0xAC }
  - { offset: 0xC9BA8, size: 0x8, addend: 0x0, symName: __ZN5alloc6borrow3Cow8Borrowed17h137d47cef31520e1E, symObjAddr: 0x4CC0, symBinAddr: 0x34A1C, symSize: 0x2C }
  - { offset: 0xC9BE0, size: 0x8, addend: 0x0, symName: '__ZN66_$LT$alloc..borrow..Cow$LT$B$GT$$u20$as$u20$core..fmt..Display$GT$3fmt17hf74997e59138e225E', symObjAddr: 0x4D38, symBinAddr: 0x34A48, symSize: 0x8C }
  - { offset: 0xC9C8E, size: 0x8, addend: 0x0, symName: '__ZN71_$LT$alloc..borrow..Cow$LT$B$GT$$u20$as$u20$core..ops..deref..Deref$GT$5deref17he7cab036b8312884E', symObjAddr: 0x4DC4, symBinAddr: 0x34AD4, symSize: 0x80 }
  - { offset: 0xC9E79, size: 0x8, addend: 0x0, symName: '__ZN4core3ptr8non_null16NonNull$LT$T$GT$13new_unchecked18precondition_check17h7ecfea3bad85ed7fE', symObjAddr: 0x884, symBinAddr: 0x334C4, symSize: 0xA4 }
  - { offset: 0xCA838, size: 0x8, addend: 0x0, symName: '__ZN90_$LT$core..ptr..non_null..NonNull$LT$T$GT$$u20$as$u20$core..convert..From$LT$$RF$T$GT$$GT$4from17h10e45c92389f18d1E', symObjAddr: 0x5FF8, symBinAddr: 0x34C6C, symSize: 0x14 }
  - { offset: 0xCA86F, size: 0x8, addend: 0x0, symName: '__ZN90_$LT$core..ptr..non_null..NonNull$LT$T$GT$$u20$as$u20$core..convert..From$LT$$RF$T$GT$$GT$4from17h21000e6a1b8a2671E', symObjAddr: 0x600C, symBinAddr: 0x34C80, symSize: 0x14 }
  - { offset: 0xCA8A6, size: 0x8, addend: 0x0, symName: '__ZN90_$LT$core..ptr..non_null..NonNull$LT$T$GT$$u20$as$u20$core..convert..From$LT$$RF$T$GT$$GT$4from17h39fbfde6d389e538E', symObjAddr: 0x6098, symBinAddr: 0x34C94, symSize: 0x14 }
  - { offset: 0xCA8DD, size: 0x8, addend: 0x0, symName: '__ZN90_$LT$core..ptr..non_null..NonNull$LT$T$GT$$u20$as$u20$core..convert..From$LT$$RF$T$GT$$GT$4from17h7788518ce9dff1f4E', symObjAddr: 0x60FC, symBinAddr: 0x34CA8, symSize: 0x14 }
  - { offset: 0xCA914, size: 0x8, addend: 0x0, symName: '__ZN90_$LT$core..ptr..non_null..NonNull$LT$T$GT$$u20$as$u20$core..convert..From$LT$$RF$T$GT$$GT$4from17h78a90888110d1832E', symObjAddr: 0x6110, symBinAddr: 0x34CBC, symSize: 0x14 }
  - { offset: 0xCA94B, size: 0x8, addend: 0x0, symName: '__ZN90_$LT$core..ptr..non_null..NonNull$LT$T$GT$$u20$as$u20$core..convert..From$LT$$RF$T$GT$$GT$4from17h8b0b890bf94d2350E', symObjAddr: 0x6124, symBinAddr: 0x34CD0, symSize: 0x14 }
  - { offset: 0xCA982, size: 0x8, addend: 0x0, symName: '__ZN90_$LT$core..ptr..non_null..NonNull$LT$T$GT$$u20$as$u20$core..convert..From$LT$$RF$T$GT$$GT$4from17h9c97f20090149e00E', symObjAddr: 0x614C, symBinAddr: 0x34CE4, symSize: 0x14 }
  - { offset: 0xCA9B9, size: 0x8, addend: 0x0, symName: '__ZN90_$LT$core..ptr..non_null..NonNull$LT$T$GT$$u20$as$u20$core..convert..From$LT$$RF$T$GT$$GT$4from17ha6d9f005c3d4f437E', symObjAddr: 0x6174, symBinAddr: 0x34CF8, symSize: 0x14 }
  - { offset: 0xCA9F0, size: 0x8, addend: 0x0, symName: '__ZN90_$LT$core..ptr..non_null..NonNull$LT$T$GT$$u20$as$u20$core..convert..From$LT$$RF$T$GT$$GT$4from17hb1f4b2be72f9558dE', symObjAddr: 0x6188, symBinAddr: 0x34D0C, symSize: 0x14 }
  - { offset: 0xCAA27, size: 0x8, addend: 0x0, symName: '__ZN90_$LT$core..ptr..non_null..NonNull$LT$T$GT$$u20$as$u20$core..convert..From$LT$$RF$T$GT$$GT$4from17hcec4c3d7d69f9b3bE', symObjAddr: 0x61F0, symBinAddr: 0x34D20, symSize: 0x14 }
  - { offset: 0xCAA5E, size: 0x8, addend: 0x0, symName: '__ZN90_$LT$core..ptr..non_null..NonNull$LT$T$GT$$u20$as$u20$core..convert..From$LT$$RF$T$GT$$GT$4from17hd1768a4e6e91c9b1E', symObjAddr: 0x6204, symBinAddr: 0x34D34, symSize: 0x14 }
  - { offset: 0xCAA95, size: 0x8, addend: 0x0, symName: '__ZN90_$LT$core..ptr..non_null..NonNull$LT$T$GT$$u20$as$u20$core..convert..From$LT$$RF$T$GT$$GT$4from17hd9b774616f794403E', symObjAddr: 0x622C, symBinAddr: 0x34D48, symSize: 0x14 }
  - { offset: 0xCC1E0, size: 0x8, addend: 0x0, symName: '__ZN42_$LT$$RF$T$u20$as$u20$core..fmt..Debug$GT$3fmt17hc5e69fd995f3686eE', symObjAddr: 0x650, symBinAddr: 0x33428, symSize: 0x30 }
  - { offset: 0xCC22C, size: 0x8, addend: 0x0, symName: '__ZN44_$LT$$RF$T$u20$as$u20$core..fmt..Display$GT$3fmt17hbb5f2988b62b718fE', symObjAddr: 0x680, symBinAddr: 0x33458, symSize: 0x30 }
  - { offset: 0xCC2E4, size: 0x8, addend: 0x0, symName: '__ZN50_$LT$$BP$mut$u20$T$u20$as$u20$core..fmt..Debug$GT$3fmt17hfe8f74499af4f36dE', symObjAddr: 0x48D8, symBinAddr: 0x3481C, symSize: 0x38 }
  - { offset: 0xCC356, size: 0x8, addend: 0x0, symName: '__ZN54_$LT$$BP$const$u20$T$u20$as$u20$core..fmt..Pointer$GT$3fmt17hd6c650b9841b3994E', symObjAddr: 0x4B40, symBinAddr: 0x348CC, symSize: 0xCC }
  - { offset: 0xCCA58, size: 0x8, addend: 0x0, symName: '__ZN104_$LT$core..ops..index_range..IndexRange$u20$as$u20$core..slice..index..SliceIndex$LT$$u5b$T$u5d$$GT$$GT$17get_unchecked_mut18precondition_check17h82fbcd8f5d82ed6bE', symObjAddr: 0x0, symBinAddr: 0x3331C, symSize: 0xAC }
  - { offset: 0xCCACC, size: 0x8, addend: 0x0, symName: '__ZN75_$LT$usize$u20$as$u20$core..slice..index..SliceIndex$LT$$u5b$T$u5d$$GT$$GT$13get_unchecked18precondition_check17hf4bdc21b16fd2ac5E', symObjAddr: 0x4F94, symBinAddr: 0x34BC0, symSize: 0xAC }
  - { offset: 0xCCE75, size: 0x8, addend: 0x0, symName: __ZN4core4hint16assert_unchecked18precondition_check17hb800281a2e71f7a9E, symObjAddr: 0x12F8, symBinAddr: 0x3392C, symSize: 0xA4 }
  - { offset: 0xCCED5, size: 0x8, addend: 0x0, symName: __ZN4core4hint21unreachable_unchecked18precondition_check17ha984c292ab1b484fE, symObjAddr: 0x139C, symBinAddr: 0x339D0, symSize: 0x84 }
  - { offset: 0xCCF3F, size: 0x8, addend: 0x0, symName: '__ZN4core7convert3num18ptr_try_from_impls69_$LT$impl$u20$core..convert..TryFrom$LT$u64$GT$$u20$for$u20$usize$GT$8try_from17h2541660bf3a3fb56E', symObjAddr: 0x1574, symBinAddr: 0x33A54, symSize: 0x18 }
  - { offset: 0xCCF75, size: 0x8, addend: 0x0, symName: '__ZN50_$LT$T$u20$as$u20$core..convert..Into$LT$U$GT$$GT$4into17h3ba4dd5bbd16e3fbE', symObjAddr: 0x4910, symBinAddr: 0x34854, symSize: 0x14 }
  - { offset: 0xCCFBC, size: 0x8, addend: 0x0, symName: '__ZN53_$LT$T$u20$as$u20$core..convert..TryInto$LT$U$GT$$GT$8try_into17ha894aa6c850190dbE', symObjAddr: 0x4AC0, symBinAddr: 0x348AC, symSize: 0x20 }
  - { offset: 0xCD25E, size: 0x8, addend: 0x0, symName: '__ZN4pyo33err9err_state10PyErrState14lazy_arguments28_$u7b$$u7b$closure$u7d$$u7d$17h87eb9ac0da0b9318E', symObjAddr: 0x208C, symBinAddr: 0x33DCC, symSize: 0x70 }
  - { offset: 0xCD2C4, size: 0x8, addend: 0x0, symName: '__ZN4pyo33err9err_state10PyErrState10normalized28_$u7b$$u7b$closure$u7d$$u7d$17hb4761eb0e93667c6E', symObjAddr: 0x1EDC, symBinAddr: 0x33C1C, symSize: 0xC }
  - { offset: 0xCD2F5, size: 0x8, addend: 0x0, symName: '__ZN4pyo33err9err_state10PyErrState15make_normalized28_$u7b$$u7b$closure$u7d$$u7d$17h3a30666253c3b80fE', symObjAddr: 0x23BC, symBinAddr: 0x33E3C, symSize: 0x34 }
  - { offset: 0xCD324, size: 0x8, addend: 0x0, symName: '__ZN4pyo33err9err_state10PyErrState15make_normalized28_$u7b$$u7b$closure$u7d$$u7d$28_$u7b$$u7b$closure$u7d$$u7d$17hc5a010d0027c08fbE', symObjAddr: 0x23F0, symBinAddr: 0x33E70, symSize: 0x360 }
  - { offset: 0xCD3D6, size: 0x8, addend: 0x0, symName: '__ZN4pyo33err9err_state10PyErrState15make_normalized28_$u7b$$u7b$closure$u7d$$u7d$28_$u7b$$u7b$closure$u7d$$u7d$28_$u7b$$u7b$closure$u7d$$u7d$17hbd98c9e7d650248fE', symObjAddr: 0x2750, symBinAddr: 0x341D0, symSize: 0x38 }
  - { offset: 0xCD615, size: 0x8, addend: 0x0, symName: __ZN4pyo33err9err_state10raise_lazy17h919379a2ba8d702cE, symObjAddr: 0x2870, symBinAddr: 0x342F0, symSize: 0x130 }
  - { offset: 0xCD6A9, size: 0x8, addend: 0x0, symName: '__ZN4pyo33err9err_state20PyErrStateNormalized10ptraceback28_$u7b$$u7b$closure$u7d$$u7d$17h010d9681cf62533aE', symObjAddr: 0x2AE0, symBinAddr: 0x34560, symSize: 0x24 }
  - { offset: 0xCD6EC, size: 0x8, addend: 0x0, symName: '__ZN4pyo33err9err_state20PyErrStateNormalized4take28_$u7b$$u7b$closure$u7d$$u7d$17hf929a3756b52ff99E', symObjAddr: 0x2B54, symBinAddr: 0x345D4, symSize: 0x28 }
  - { offset: 0xCE06E, size: 0x8, addend: 0x0, symName: '__ZN107_$LT$pyo3..instance..Bound$LT$pyo3..types..list..PyList$GT$$u20$as$u20$pyo3..types..list..PyListMethods$GT$6append5inner17h1edcfddc7577dd6aE', symObjAddr: 0x4A8, symBinAddr: 0x333C8, symSize: 0x60 }
  - { offset: 0xCE0DC, size: 0x8, addend: 0x0, symName: '__ZN75_$LT$pyo3..types..list..PyList$u20$as$u20$pyo3..type_object..PyTypeInfo$GT$10is_type_of17h3afd8544f6aa6871E', symObjAddr: 0x4F28, symBinAddr: 0x34B54, symSize: 0x30 }
  - { offset: 0xCE108, size: 0x8, addend: 0x0, symName: '__ZN75_$LT$pyo3..types..list..PyList$u20$as$u20$pyo3..type_object..PyTypeInfo$GT$15type_object_raw17hf1ffb721bf24754aE', symObjAddr: 0x4F58, symBinAddr: 0x34B84, symSize: 0x24 }
  - { offset: 0xCE144, size: 0x8, addend: 0x0, symName: '__ZN75_$LT$pyo3..types..list..PyList$u20$as$u20$pyo3..type_object..PyTypeInfo$GT$15type_object_raw28_$u7b$$u7b$closure$u7d$$u7d$17hf2b991dc80a5a890E', symObjAddr: 0x4F7C, symBinAddr: 0x34BA8, symSize: 0x18 }
  - { offset: 0xCE414, size: 0x8, addend: 0x0, symName: __ZN4pyo35impl_10pyfunction20create_py_c_function17h65c5938730019300E, symObjAddr: 0x2C8C, symBinAddr: 0x3465C, symSize: 0x190 }
  - { offset: 0xCE634, size: 0x8, addend: 0x0, symName: __ZN4pyo311type_object10PyTypeInfo11type_object17h54c922bccc48a5f0E, symObjAddr: 0x1B98, symBinAddr: 0x33A6C, symSize: 0x30 }
  - { offset: 0xCE67A, size: 0x8, addend: 0x0, symName: '__ZN52_$LT$T$u20$as$u20$pyo3..type_object..PyTypeCheck$GT$10type_check17h456e58159d5fd759E', symObjAddr: 0x498C, symBinAddr: 0x34868, symSize: 0x24 }
  - { offset: 0xCE6AF, size: 0x8, addend: 0x0, symName: '__ZN52_$LT$T$u20$as$u20$pyo3..type_object..PyTypeCheck$GT$16classinfo_object17h6c3c562b021bc1ccE', symObjAddr: 0x4A18, symBinAddr: 0x3488C, symSize: 0x20 }
  - { offset: 0xCF49F, size: 0x8, addend: 0x0, symName: '__ZN4core3ptr8non_null16NonNull$LT$T$GT$13new_unchecked17h1a7275f4431a259bE', symObjAddr: 0x848, symBinAddr: 0x33488, symSize: 0x3C }
  - { offset: 0xCF539, size: 0x8, addend: 0x0, symName: '__ZN4core3ptr8non_null16NonNull$LT$T$GT$20offset_from_unsigned17h04935727b9c6654bE', symObjAddr: 0x928, symBinAddr: 0x33568, symSize: 0x7C }
  - { offset: 0xCF643, size: 0x8, addend: 0x0, symName: '__ZN4core3ptr8non_null16NonNull$LT$T$GT$20offset_from_unsigned17h572eda39d3f66ae6E', symObjAddr: 0x9A4, symBinAddr: 0x335E4, symSize: 0x7C }
  - { offset: 0xCF774, size: 0x8, addend: 0x0, symName: '__ZN4core3ptr8non_null16NonNull$LT$T$GT$20offset_from_unsigned17h6f316be7baab21b5E', symObjAddr: 0xA9C, symBinAddr: 0x33660, symSize: 0x7C }
  - { offset: 0xCF87E, size: 0x8, addend: 0x0, symName: '__ZN4core3ptr8non_null16NonNull$LT$T$GT$20offset_from_unsigned17h9029143cf68d42b7E', symObjAddr: 0xB18, symBinAddr: 0x336DC, symSize: 0x7C }
  - { offset: 0xCF9CF, size: 0x8, addend: 0x0, symName: '__ZN4core3ptr8non_null16NonNull$LT$T$GT$3new17hf7b17c29e8e1510cE', symObjAddr: 0xF08, symBinAddr: 0x33758, symSize: 0x58 }
  - { offset: 0xCFA2B, size: 0x8, addend: 0x0, symName: '__ZN4core3ptr8non_null16NonNull$LT$T$GT$4cast17h01d953dbdcf3a5beE', symObjAddr: 0xF60, symBinAddr: 0x337B0, symSize: 0x14 }
  - { offset: 0xCFA87, size: 0x8, addend: 0x0, symName: '__ZN4core3ptr8non_null16NonNull$LT$T$GT$4cast17h0882caabb436468eE', symObjAddr: 0xF9C, symBinAddr: 0x337C4, symSize: 0x14 }
  - { offset: 0xCFAC9, size: 0x8, addend: 0x0, symName: '__ZN4core3ptr8non_null16NonNull$LT$T$GT$4cast17h121d547f39baca88E', symObjAddr: 0xFB0, symBinAddr: 0x337D8, symSize: 0x14 }
  - { offset: 0xCFB18, size: 0x8, addend: 0x0, symName: '__ZN4core3ptr8non_null16NonNull$LT$T$GT$4cast17h1a57193f6820607aE', symObjAddr: 0xFC4, symBinAddr: 0x337EC, symSize: 0x14 }
  - { offset: 0xCFB67, size: 0x8, addend: 0x0, symName: '__ZN4core3ptr8non_null16NonNull$LT$T$GT$4cast17h24175cf4cb85db37E', symObjAddr: 0x1000, symBinAddr: 0x33800, symSize: 0x14 }
  - { offset: 0xCFB9C, size: 0x8, addend: 0x0, symName: '__ZN4core3ptr8non_null16NonNull$LT$T$GT$4cast17h2b0fb4115c5ac2e4E', symObjAddr: 0x1014, symBinAddr: 0x33814, symSize: 0x14 }
  - { offset: 0xCFC47, size: 0x8, addend: 0x0, symName: '__ZN4core3ptr8non_null16NonNull$LT$T$GT$4cast17h3443521aaab2ff99E', symObjAddr: 0x1050, symBinAddr: 0x33828, symSize: 0x14 }
  - { offset: 0xCFC89, size: 0x8, addend: 0x0, symName: '__ZN4core3ptr8non_null16NonNull$LT$T$GT$4cast17h3edcf6d44282b88aE', symObjAddr: 0x1078, symBinAddr: 0x3383C, symSize: 0x14 }
  - { offset: 0xCFCF2, size: 0x8, addend: 0x0, symName: '__ZN4core3ptr8non_null16NonNull$LT$T$GT$4cast17h853e379906231adcE', symObjAddr: 0x1154, symBinAddr: 0x33850, symSize: 0x14 }
  - { offset: 0xCFD27, size: 0x8, addend: 0x0, symName: '__ZN4core3ptr8non_null16NonNull$LT$T$GT$4cast17h88302248ed4d57d4E', symObjAddr: 0x1168, symBinAddr: 0x33864, symSize: 0x14 }
  - { offset: 0xCFD5C, size: 0x8, addend: 0x0, symName: '__ZN4core3ptr8non_null16NonNull$LT$T$GT$4cast17h88829e6bed6940cdE', symObjAddr: 0x117C, symBinAddr: 0x33878, symSize: 0x14 }
  - { offset: 0xCFD91, size: 0x8, addend: 0x0, symName: '__ZN4core3ptr8non_null16NonNull$LT$T$GT$4cast17h8a24b56cbfd340a7E', symObjAddr: 0x1190, symBinAddr: 0x3388C, symSize: 0x14 }
  - { offset: 0xCFDE0, size: 0x8, addend: 0x0, symName: '__ZN4core3ptr8non_null16NonNull$LT$T$GT$4cast17h9148c2eacecb0af4E', symObjAddr: 0x11B8, symBinAddr: 0x338A0, symSize: 0x14 }
  - { offset: 0xCFE15, size: 0x8, addend: 0x0, symName: '__ZN4core3ptr8non_null16NonNull$LT$T$GT$4cast17haa16e0f539b3f384E', symObjAddr: 0x11F4, symBinAddr: 0x338B4, symSize: 0x14 }
  - { offset: 0xCFE57, size: 0x8, addend: 0x0, symName: '__ZN4core3ptr8non_null16NonNull$LT$T$GT$4cast17hce7bb5fff19637aaE', symObjAddr: 0x1244, symBinAddr: 0x338C8, symSize: 0x14 }
  - { offset: 0xCFE99, size: 0x8, addend: 0x0, symName: '__ZN4core3ptr8non_null16NonNull$LT$T$GT$4cast17he1fceb56f1f4dcf2E', symObjAddr: 0x1280, symBinAddr: 0x338DC, symSize: 0x14 }
  - { offset: 0xCFEE8, size: 0x8, addend: 0x0, symName: '__ZN4core3ptr8non_null16NonNull$LT$T$GT$4cast17he7d33ed7755d0c6dE', symObjAddr: 0x1294, symBinAddr: 0x338F0, symSize: 0x14 }
  - { offset: 0xCFF1D, size: 0x8, addend: 0x0, symName: '__ZN4core3ptr8non_null16NonNull$LT$T$GT$4cast17hf4f8763ff32a94dbE', symObjAddr: 0x12A8, symBinAddr: 0x33904, symSize: 0x14 }
  - { offset: 0xCFF52, size: 0x8, addend: 0x0, symName: '__ZN4core3ptr8non_null16NonNull$LT$T$GT$4cast17hfa42cf449585c44dE', symObjAddr: 0x12D0, symBinAddr: 0x33918, symSize: 0x14 }
  - { offset: 0xCFFC7, size: 0x8, addend: 0x0, symName: __ZN4pyo33err9err_state10PyErrState10from_inner17h4445a300e536902dE, symObjAddr: 0x1D5C, symBinAddr: 0x33A9C, symSize: 0xF0 }
  - { offset: 0xD0008, size: 0x8, addend: 0x0, symName: __ZN4pyo33err9err_state10PyErrState10normalized17h9ff705c32c5d3636E, symObjAddr: 0x1E4C, symBinAddr: 0x33B8C, symSize: 0x90 }
  - { offset: 0xD0059, size: 0x8, addend: 0x0, symName: __ZN4pyo33err9err_state10PyErrState13as_normalized17hd6887d800a04239fE, symObjAddr: 0x1EE8, symBinAddr: 0x33C28, symSize: 0x100 }
  - { offset: 0xD00BE, size: 0x8, addend: 0x0, symName: __ZN4pyo33err9err_state10PyErrState14lazy_arguments17h81d7d1cc338f43b8E, symObjAddr: 0x1FE8, symBinAddr: 0x33D28, symSize: 0xA4 }
  - { offset: 0xD0157, size: 0x8, addend: 0x0, symName: __ZN4pyo33err9err_state10PyErrState15make_normalized17ha00c421cf25cace4E, symObjAddr: 0x20FC, symBinAddr: 0x7D200, symSize: 0x2C0 }
  - { offset: 0xD0219, size: 0x8, addend: 0x0, symName: __ZN4pyo33err9err_state10PyErrState4lazy17h2a1793412fba8a37E, symObjAddr: 0x2788, symBinAddr: 0x34208, symSize: 0x3C }
  - { offset: 0xD0257, size: 0x8, addend: 0x0, symName: __ZN4pyo33err9err_state10PyErrState7restore17h3ebb9d42c81c7592E, symObjAddr: 0x27C4, symBinAddr: 0x34244, symSize: 0xAC }
  - { offset: 0xD02B0, size: 0x8, addend: 0x0, symName: __ZN4pyo33err9err_state15PyErrStateInner7restore17h147fa14ed165cdccE, symObjAddr: 0x29A0, symBinAddr: 0x34420, symSize: 0x84 }
  - { offset: 0xD032B, size: 0x8, addend: 0x0, symName: __ZN4pyo33err9err_state15PyErrStateInner9normalize17h8d42e4f5b4cf288fE, symObjAddr: 0x2A24, symBinAddr: 0x344A4, symSize: 0x8C }
  - { offset: 0xD03A6, size: 0x8, addend: 0x0, symName: __ZN4pyo33err9err_state20PyErrStateNormalized10ptraceback17he4685d460fb2a460E, symObjAddr: 0x2AB0, symBinAddr: 0x34530, symSize: 0x30 }
  - { offset: 0xD03E1, size: 0x8, addend: 0x0, symName: __ZN4pyo33err9err_state20PyErrStateNormalized3new17h06543a1304b8e4b6E, symObjAddr: 0x2B04, symBinAddr: 0x34584, symSize: 0x2C }
  - { offset: 0xD0403, size: 0x8, addend: 0x0, symName: __ZN4pyo33err9err_state20PyErrStateNormalized4take17h79e6675c4fb4f1d2E, symObjAddr: 0x2B30, symBinAddr: 0x345B0, symSize: 0x24 }
  - { offset: 0xD0430, size: 0x8, addend: 0x0, symName: __ZN4pyo33err9err_state20PyErrStateNormalized5ptype17hf3ac3c07b442c2bfE, symObjAddr: 0x2B7C, symBinAddr: 0x345FC, symSize: 0x2C }
  - { offset: 0xD0485, size: 0x8, addend: 0x0, symName: __ZN4pyo35impl_10pyfunction13PyFunctionDef20create_py_c_function17h06f5e39b30b8cb0bE, symObjAddr: 0x2C1C, symBinAddr: 0x34628, symSize: 0x34 }
  - { offset: 0xD04DB, size: 0x8, addend: 0x0, symName: __ZN4pyo35types4list6PyList5empty17hdd0e7d1385063111E, symObjAddr: 0x3ADC, symBinAddr: 0x347EC, symSize: 0x30 }
  - { offset: 0xD0536, size: 0x8, addend: 0x0, symName: '__ZN5alloc6borrow12Cow$LT$B$GT$10into_owned17hd1b62a00a65ba116E', symObjAddr: 0x4C0C, symBinAddr: 0x34998, symSize: 0x84 }
  - { offset: 0xD0C2B, size: 0x8, addend: 0x0, symName: '__ZN4core3ptr9const_ptr33_$LT$impl$u20$$BP$const$u20$T$GT$20offset_from_unsigned18precondition_check17h92a069dd270b51b8E', symObjAddr: 0xD10, symBinAddr: 0x35148, symSize: 0xAC }
  - { offset: 0xD0D29, size: 0x8, addend: 0x0, symName: '__ZN4core3ptr9const_ptr33_$LT$impl$u20$$BP$const$u20$T$GT$6offset18precondition_check17hb6be1bde36c15c25E', symObjAddr: 0xDBC, symBinAddr: 0x351F4, symSize: 0x110 }
  - { offset: 0xD0F43, size: 0x8, addend: 0x0, symName: '__ZN4core3ptr9const_ptr33_$LT$impl$u20$$BP$const$u20$T$GT$7is_null17h25d28b3a50390393E', symObjAddr: 0xECC, symBinAddr: 0x35304, symSize: 0x18 }
  - { offset: 0xD2B41, size: 0x8, addend: 0x0, symName: '__ZN50_$LT$T$u20$as$u20$core..convert..Into$LT$U$GT$$GT$4into17h88cc6abd137892b8E', symObjAddr: 0x7F68, symBinAddr: 0x36EBC, symSize: 0x30 }
  - { offset: 0xD2BE3, size: 0x8, addend: 0x0, symName: '__ZN110_$LT$core..iter..adapters..enumerate..Enumerate$LT$I$GT$$u20$as$u20$core..iter..traits..iterator..Iterator$GT$4next17h3fc174717fb2a464E', symObjAddr: 0x270, symBinAddr: 0x34D5C, symSize: 0xEC }
  - { offset: 0xD2CC9, size: 0x8, addend: 0x0, symName: '__ZN110_$LT$core..iter..adapters..enumerate..Enumerate$LT$I$GT$$u20$as$u20$core..iter..traits..iterator..Iterator$GT$4next17ha636f3fa60029195E', symObjAddr: 0x35C, symBinAddr: 0x34E48, symSize: 0xE0 }
  - { offset: 0xD2DAF, size: 0x8, addend: 0x0, symName: '__ZN110_$LT$core..iter..adapters..enumerate..Enumerate$LT$I$GT$$u20$as$u20$core..iter..traits..iterator..Iterator$GT$4next17hac5d0c1b901f8566E', symObjAddr: 0x43C, symBinAddr: 0x34F28, symSize: 0xEC }
  - { offset: 0xD2F25, size: 0x8, addend: 0x0, symName: '__ZN63_$LT$I$u20$as$u20$core..iter..traits..collect..IntoIterator$GT$9into_iter17h82c5b3d6790d5e12E', symObjAddr: 0x8778, symBinAddr: 0x37624, symSize: 0x18 }
  - { offset: 0xD2F5C, size: 0x8, addend: 0x0, symName: '__ZN63_$LT$I$u20$as$u20$core..iter..traits..collect..IntoIterator$GT$9into_iter17hbb3400e15f94817eE', symObjAddr: 0x8790, symBinAddr: 0x3763C, symSize: 0x14 }
  - { offset: 0xD2F93, size: 0x8, addend: 0x0, symName: '__ZN63_$LT$I$u20$as$u20$core..iter..traits..collect..IntoIterator$GT$9into_iter17he3acbe8e6a888227E', symObjAddr: 0x87A4, symBinAddr: 0x37650, symSize: 0x14 }
  - { offset: 0xD35F6, size: 0x8, addend: 0x0, symName: __ZN4core9ub_checks23maybe_is_nonoverlapping7runtime17hb093f5febd2459cbE, symObjAddr: 0x152C, symBinAddr: 0x3531C, symSize: 0xD8 }
  - { offset: 0xD4397, size: 0x8, addend: 0x0, symName: '__ZN4pyo33err5PyErr3new28_$u7b$$u7b$closure$u7d$$u7d$17h2f356a59c5f77a44E', symObjAddr: 0x4D24, symBinAddr: 0x361DC, symSize: 0xC0 }
  - { offset: 0xD43EF, size: 0x8, addend: 0x0, symName: '__ZN4pyo33err5PyErr3new28_$u7b$$u7b$closure$u7d$$u7d$17h43cddeb276eb5071E', symObjAddr: 0x500C, symBinAddr: 0x3629C, symSize: 0xD4 }
  - { offset: 0xD4448, size: 0x8, addend: 0x0, symName: '__ZN4pyo33err5PyErr3new28_$u7b$$u7b$closure$u7d$$u7d$17h64218e4593c0c7a1E', symObjAddr: 0x53F4, symBinAddr: 0x36370, symSize: 0xD4 }
  - { offset: 0xD44A1, size: 0x8, addend: 0x0, symName: '__ZN4pyo33err5PyErr3new28_$u7b$$u7b$closure$u7d$$u7d$17h6e91e9c1250f4be1E', symObjAddr: 0x56F8, symBinAddr: 0x36444, symSize: 0xC8 }
  - { offset: 0xD44F9, size: 0x8, addend: 0x0, symName: '__ZN4pyo33err5PyErr3new28_$u7b$$u7b$closure$u7d$$u7d$17h7621b82e14dbc8dbE', symObjAddr: 0x5954, symBinAddr: 0x3650C, symSize: 0xD4 }
  - { offset: 0xD4552, size: 0x8, addend: 0x0, symName: '__ZN4pyo33err5PyErr3new28_$u7b$$u7b$closure$u7d$$u7d$17h7be50c67d4922421E', symObjAddr: 0x5A28, symBinAddr: 0x365E0, symSize: 0xC0 }
  - { offset: 0xD45AA, size: 0x8, addend: 0x0, symName: '__ZN4pyo33err5PyErr3new28_$u7b$$u7b$closure$u7d$$u7d$17hec161e631fdf60d6E', symObjAddr: 0x63E4, symBinAddr: 0x366A0, symSize: 0xD4 }
  - { offset: 0xD4609, size: 0x8, addend: 0x0, symName: '__ZN4pyo33err5PyErr22print_panic_and_unwind28_$u7b$$u7b$closure$u7d$$u7d$17h3d3db9843eecc982E', symObjAddr: 0x30E4, symBinAddr: 0x35C9C, symSize: 0x7C }
  - { offset: 0xD4642, size: 0x8, addend: 0x0, symName: '__ZN4pyo33err5PyErr22print_panic_and_unwind28_$u7b$$u7b$closure$u7d$$u7d$17h72bbce2296f59151E', symObjAddr: 0x3160, symBinAddr: 0x35D18, symSize: 0x64 }
  - { offset: 0xD468C, size: 0x8, addend: 0x0, symName: '__ZN4pyo33err5PyErr9set_cause28_$u7b$$u7b$closure$u7d$$u7d$17h65937bd332be690fE', symObjAddr: 0x6DD4, symBinAddr: 0x36D1C, symSize: 0x28 }
  - { offset: 0xD4716, size: 0x8, addend: 0x0, symName: '__ZN4pyo33err10cast_error106_$LT$impl$u20$core..convert..From$LT$pyo3..err..cast_error..CastError$GT$$u20$for$u20$pyo3..err..PyErr$GT$4from17h64998481974d8685E', symObjAddr: 0x1C8C, symBinAddr: 0x354AC, symSize: 0xE0 }
  - { offset: 0xD4765, size: 0x8, addend: 0x0, symName: '__ZN4pyo33err10cast_error110_$LT$impl$u20$core..convert..From$LT$pyo3..err..cast_error..CastIntoError$GT$$u20$for$u20$pyo3..err..PyErr$GT$4from17hd2d6a564e10e82a6E', symObjAddr: 0x1D6C, symBinAddr: 0x3558C, symSize: 0xF8 }
  - { offset: 0xD481E, size: 0x8, addend: 0x0, symName: '__ZN47_$LT$T$u20$as$u20$pyo3..err..PyErrArguments$GT$9arguments17h141ad8f20f70dc9eE', symObjAddr: 0xAE8, symBinAddr: 0x35014, symSize: 0xF4 }
  - { offset: 0xD48BD, size: 0x8, addend: 0x0, symName: '__ZN47_$LT$T$u20$as$u20$pyo3..err..PyErrArguments$GT$9arguments17hca73665931e51fafE', symObjAddr: 0xBDC, symBinAddr: 0x35108, symSize: 0x40 }
  - { offset: 0xD4929, size: 0x8, addend: 0x0, symName: __ZN4pyo33err15failed_to_fetch17hd71be81d506584d4E, symObjAddr: 0x2020, symBinAddr: 0x7D4C0, symSize: 0x18 }
  - { offset: 0xD4947, size: 0x8, addend: 0x0, symName: __ZN4pyo33err17error_on_minusone17hc7976f8ade1e0aaeE, symObjAddr: 0x2100, symBinAddr: 0x35684, symSize: 0xC8 }
  - { offset: 0xD4999, size: 0x8, addend: 0x0, symName: __ZN4pyo33err17error_on_minusone17hea51b14d19ac3d08E, symObjAddr: 0x21C8, symBinAddr: 0x3574C, symSize: 0xC8 }
  - { offset: 0xD49F0, size: 0x8, addend: 0x0, symName: '__ZN53_$LT$pyo3..err..PyErr$u20$as$u20$core..fmt..Debug$GT$3fmt17h5a3bec4c7f88324bE', symObjAddr: 0x801C, symBinAddr: 0x36F0C, symSize: 0x40 }
  - { offset: 0xD4A32, size: 0x8, addend: 0x0, symName: '__ZN53_$LT$pyo3..err..PyErr$u20$as$u20$core..fmt..Debug$GT$3fmt28_$u7b$$u7b$closure$u7d$$u7d$17h1da6e6f50bb3fed7E', symObjAddr: 0x805C, symBinAddr: 0x36F4C, symSize: 0x178 }
  - { offset: 0xD4A96, size: 0x8, addend: 0x0, symName: '__ZN53_$LT$pyo3..err..PyErr$u20$as$u20$core..fmt..Debug$GT$3fmt28_$u7b$$u7b$closure$u7d$$u7d$28_$u7b$$u7b$closure$u7d$$u7d$17h678d187e5f50bad6E', symObjAddr: 0x81D4, symBinAddr: 0x370C4, symSize: 0x190 }
  - { offset: 0xD4B6E, size: 0x8, addend: 0x0, symName: '__ZN55_$LT$pyo3..err..PyErr$u20$as$u20$core..fmt..Display$GT$3fmt17h9611ece32f6022aaE', symObjAddr: 0x8364, symBinAddr: 0x37254, symSize: 0x34 }
  - { offset: 0xD4BB0, size: 0x8, addend: 0x0, symName: '__ZN55_$LT$pyo3..err..PyErr$u20$as$u20$core..fmt..Display$GT$3fmt28_$u7b$$u7b$closure$u7d$$u7d$17habc7d849b9631fe0E', symObjAddr: 0x8398, symBinAddr: 0x37288, symSize: 0x380 }
  - { offset: 0xD4CE1, size: 0x8, addend: 0x0, symName: '__ZN55_$LT$pyo3..err..PyErr$u20$as$u20$core..fmt..Display$GT$3fmt28_$u7b$$u7b$closure$u7d$$u7d$28_$u7b$$u7b$closure$u7d$$u7d$17h3236d59298b54facE', symObjAddr: 0x8718, symBinAddr: 0x37608, symSize: 0x1C }
  - { offset: 0xD5237, size: 0x8, addend: 0x0, symName: '__ZN83_$LT$pyo3..types..sequence..PySequence$u20$as$u20$pyo3..type_object..PyTypeInfo$GT$15type_object_raw4TYPE17hd7fe92ba9d4d05deE', symObjAddr: 0x47858, symBinAddr: 0xC4FC8, symSize: 0x0 }
  - { offset: 0xD5245, size: 0x8, addend: 0x0, symName: '__ZN83_$LT$pyo3..types..sequence..PySequence$u20$as$u20$pyo3..type_object..PyTypeInfo$GT$15type_object_raw17h286021276e0995f6E', symObjAddr: 0x8948, symBinAddr: 0x376A0, symSize: 0xD0 }
  - { offset: 0xD52F2, size: 0x8, addend: 0x0, symName: '__ZN4pyo35types5float64_$LT$impl$u20$pyo3..conversion..FromPyObject$u20$for$u20$f64$GT$7extract17h9aca925d2600e3edE', symObjAddr: 0x7A50, symBinAddr: 0x36D6C, symSize: 0x150 }
  - { offset: 0xD539C, size: 0x8, addend: 0x0, symName: '__ZN77_$LT$pyo3..types..float..PyFloat$u20$as$u20$pyo3..type_object..PyTypeInfo$GT$15type_object_raw17h81718d25d5cee423E', symObjAddr: 0x87E4, symBinAddr: 0x37664, symSize: 0x24 }
  - { offset: 0xD53D8, size: 0x8, addend: 0x0, symName: '__ZN77_$LT$pyo3..types..float..PyFloat$u20$as$u20$pyo3..type_object..PyTypeInfo$GT$15type_object_raw28_$u7b$$u7b$closure$u7d$$u7d$17hc80f56369718141bE', symObjAddr: 0x8808, symBinAddr: 0x37688, symSize: 0x18 }
  - { offset: 0xD5536, size: 0x8, addend: 0x0, symName: __ZN4pyo311type_object10PyTypeInfo11type_object17h558f9a8fa40e1efdE, symObjAddr: 0x1BA4, symBinAddr: 0x353F4, symSize: 0x30 }
  - { offset: 0xD5576, size: 0x8, addend: 0x0, symName: __ZN4pyo311type_object10PyTypeInfo11type_object17h85ddfec257f6eab6E, symObjAddr: 0x1BD4, symBinAddr: 0x35424, symSize: 0x30 }
  - { offset: 0xD55B6, size: 0x8, addend: 0x0, symName: __ZN4pyo311type_object10PyTypeInfo16is_exact_type_of17ha0ec59efc9a3fd3fE, symObjAddr: 0x1C34, symBinAddr: 0x35454, symSize: 0x58 }
  - { offset: 0xD5616, size: 0x8, addend: 0x0, symName: '__ZN52_$LT$T$u20$as$u20$pyo3..type_object..PyTypeCheck$GT$16classinfo_object17h4e18efce51bab749E', symObjAddr: 0x7FFC, symBinAddr: 0x36EEC, symSize: 0x20 }
  - { offset: 0xD6339, size: 0x8, addend: 0x0, symName: __ZN8pyo3_ffi12moduleobject14PyModule_Check17h88fda2d6bca6e9edE, symObjAddr: 0x8B48, symBinAddr: 0x37770, symSize: 0x2C }
  - { offset: 0xD6B4A, size: 0x8, addend: 0x0, symName: __ZN4pyo33err5PyErr10from_state17h5978133c62007df8E, symObjAddr: 0x2290, symBinAddr: 0x35814, symSize: 0x30 }
  - { offset: 0xD6B6E, size: 0x8, addend: 0x0, symName: __ZN4pyo33err5PyErr10from_value17h59fa4298fce82535E, symObjAddr: 0x22C0, symBinAddr: 0x35844, symSize: 0x1B4 }
  - { offset: 0xD6C0B, size: 0x8, addend: 0x0, symName: __ZN4pyo33err5PyErr10into_value17h0f12aa31db72f0acE, symObjAddr: 0x2474, symBinAddr: 0x359F8, symSize: 0x128 }
  - { offset: 0xD6C93, size: 0x8, addend: 0x0, symName: __ZN4pyo33err5PyErr10normalized17hb54281e0d48c262cE, symObjAddr: 0x259C, symBinAddr: 0x35B20, symSize: 0x24 }
  - { offset: 0xD6CDE, size: 0x8, addend: 0x0, symName: __ZN4pyo33err5PyErr11is_instance17h2112a8bb6683905aE, symObjAddr: 0x25C0, symBinAddr: 0x35B44, symSize: 0xA0 }
  - { offset: 0xD6D68, size: 0x8, addend: 0x0, symName: __ZN4pyo33err5PyErr14is_instance_of17hd26ac207659acd14E, symObjAddr: 0x2DA8, symBinAddr: 0x35BE4, symSize: 0x84 }
  - { offset: 0xD6DAF, size: 0x8, addend: 0x0, symName: __ZN4pyo33err5PyErr16write_unraisable17h0a2d023ecf81d9d2E, symObjAddr: 0x2EB0, symBinAddr: 0x35C68, symSize: 0x34 }
  - { offset: 0xD6E0A, size: 0x8, addend: 0x0, symName: __ZN4pyo33err5PyErr22print_panic_and_unwind17h9c1f7b495537d2f6E, symObjAddr: 0x2EE4, symBinAddr: 0x7D4D8, symSize: 0x200 }
  - { offset: 0xD6E8B, size: 0x8, addend: 0x0, symName: __ZN4pyo33err5PyErr3new17h16ead81d8f00de12E, symObjAddr: 0x34AC, symBinAddr: 0x35D7C, symSize: 0xA0 }
  - { offset: 0xD6EEA, size: 0x8, addend: 0x0, symName: __ZN4pyo33err5PyErr3new17h1f32f9741f64e9f6E, symObjAddr: 0x354C, symBinAddr: 0x35E1C, symSize: 0x9C }
  - { offset: 0xD6F48, size: 0x8, addend: 0x0, symName: __ZN4pyo33err5PyErr3new17h315e7cd5782977dfE, symObjAddr: 0x3714, symBinAddr: 0x35EB8, symSize: 0xA0 }
  - { offset: 0xD6FA7, size: 0x8, addend: 0x0, symName: __ZN4pyo33err5PyErr3new17h6d2a9eea6e88616eE, symObjAddr: 0x3D18, symBinAddr: 0x35F58, symSize: 0xA0 }
  - { offset: 0xD7006, size: 0x8, addend: 0x0, symName: __ZN4pyo33err5PyErr3new17h7a70817b563a521cE, symObjAddr: 0x3DB8, symBinAddr: 0x35FF8, symSize: 0x9C }
  - { offset: 0xD7064, size: 0x8, addend: 0x0, symName: __ZN4pyo33err5PyErr3new17hcea24ce63be7323cE, symObjAddr: 0x462C, symBinAddr: 0x36094, symSize: 0xA8 }
  - { offset: 0xD70C2, size: 0x8, addend: 0x0, symName: __ZN4pyo33err5PyErr3new17hec8c78aa94fa37e7E, symObjAddr: 0x4804, symBinAddr: 0x3613C, symSize: 0xA0 }
  - { offset: 0xD7114, size: 0x8, addend: 0x0, symName: __ZN4pyo33err5PyErr4take17ha07a54610b099f65E, symObjAddr: 0x670C, symBinAddr: 0x36774, symSize: 0x13C }
  - { offset: 0xD7195, size: 0x8, addend: 0x0, symName: __ZN4pyo33err5PyErr5cause17h3b0ddab9233abed1E, symObjAddr: 0x68BC, symBinAddr: 0x368B0, symSize: 0x44 }
  - { offset: 0xD71F1, size: 0x8, addend: 0x0, symName: __ZN4pyo33err5PyErr5fetch17hdf00eac4a7886608E, symObjAddr: 0x6900, symBinAddr: 0x368F4, symSize: 0x3C }
  - { offset: 0xD722D, size: 0x8, addend: 0x0, symName: __ZN4pyo33err5PyErr5value17h4a3372aa5977b6c0E, symObjAddr: 0x6978, symBinAddr: 0x36930, symSize: 0x28 }
  - { offset: 0xD7268, size: 0x8, addend: 0x0, symName: __ZN4pyo33err5PyErr7restore17ha48a36d3854a410aE, symObjAddr: 0x69CC, symBinAddr: 0x36958, symSize: 0x38 }
  - { offset: 0xD72A7, size: 0x8, addend: 0x0, symName: __ZN4pyo33err5PyErr8get_type17h62794f81c084d526E, symObjAddr: 0x6A04, symBinAddr: 0x36990, symSize: 0x28 }
  - { offset: 0xD72EF, size: 0x8, addend: 0x0, symName: __ZN4pyo33err5PyErr8new_type17h6fa4cc317bdff8eaE, symObjAddr: 0x6A2C, symBinAddr: 0x369B8, symSize: 0x200 }
  - { offset: 0xD7426, size: 0x8, addend: 0x0, symName: __ZN4pyo33err5PyErr9set_cause17h0fb2f0a86f4e2c6bE, symObjAddr: 0x6C70, symBinAddr: 0x36BB8, symSize: 0x164 }
  - { offset: 0xD74B6, size: 0x8, addend: 0x0, symName: __ZN4pyo33err5PyErr9traceback17hebdad29aaea6c893E, symObjAddr: 0x6DFC, symBinAddr: 0x36D44, symSize: 0x28 }
  - { offset: 0xD77BF, size: 0x8, addend: 0x0, symName: '__ZN71_$LT$pyo3..impl_..panic..PanicTrap$u20$as$u20$core..ops..drop..Drop$GT$4drop17he651c876effbf929E', symObjAddr: 0x2F10, symBinAddr: 0x382A0, symSize: 0x20 }
  - { offset: 0xD7963, size: 0x8, addend: 0x0, symName: __ZN4pyo310conversion15IntoPyObjectExt17into_bound_py_any17h6111df8f568502c4E, symObjAddr: 0x20FC, symBinAddr: 0x37E38, symSize: 0x54 }
  - { offset: 0xD79CE, size: 0x8, addend: 0x0, symName: __ZN4pyo310conversion15IntoPyObjectExt22into_pyobject_or_pyerr17hc95cdcf687b18a40E, symObjAddr: 0x2280, symBinAddr: 0x37E8C, symSize: 0x4C }
  - { offset: 0xD92CA, size: 0x8, addend: 0x0, symName: __ZN4core3cmp3Ord3max17hc300136f3a8db372E, symObjAddr: 0xC64, symBinAddr: 0x37A24, symSize: 0x80 }
  - { offset: 0xD9338, size: 0x8, addend: 0x0, symName: __ZN4core3cmp3Ord3min17hfd06e4a42d46d948E, symObjAddr: 0xCE4, symBinAddr: 0x37AA4, symSize: 0x80 }
  - { offset: 0xD9433, size: 0x8, addend: 0x0, symName: __ZN4core4iter8adapters3zip27TrustedRandomAccessNoCoerce4size17h72cfd764dadb9bd5E, symObjAddr: 0x1AEC, symBinAddr: 0x37C7C, symSize: 0x2C }
  - { offset: 0xD946A, size: 0x8, addend: 0x0, symName: __ZN4core4iter8adapters3zip27TrustedRandomAccessNoCoerce4size17ha481120d1a599073E, symObjAddr: 0x1B44, symBinAddr: 0x37CA8, symSize: 0x2C }
  - { offset: 0xD9554, size: 0x8, addend: 0x0, symName: __ZN4core4iter6traits8iterator8Iterator3zip17h25c6c7c3da783078E, symObjAddr: 0xEEC, symBinAddr: 0x37B60, symSize: 0xC8 }
  - { offset: 0xD95CA, size: 0x8, addend: 0x0, symName: __ZN4core4iter6traits8iterator8Iterator4take17h61e84bea419520ddE, symObjAddr: 0x1184, symBinAddr: 0x37C28, symSize: 0x2C }
  - { offset: 0xD9625, size: 0x8, addend: 0x0, symName: __ZN4core4iter6traits8iterator8Iterator9enumerate17hc5cd26fd245cae60E, symObjAddr: 0x1740, symBinAddr: 0x37C54, symSize: 0x28 }
  - { offset: 0xD967D, size: 0x8, addend: 0x0, symName: '__ZN63_$LT$I$u20$as$u20$core..iter..traits..collect..IntoIterator$GT$9into_iter17h040d54fc8ff4b544E', symObjAddr: 0x2904, symBinAddr: 0x381D8, symSize: 0x14 }
  - { offset: 0xD96C1, size: 0x8, addend: 0x0, symName: '__ZN4core4iter5range101_$LT$impl$u20$core..iter..traits..iterator..Iterator$u20$for$u20$core..ops..range..Range$LT$A$GT$$GT$4next17h8b613dce5f28f121E', symObjAddr: 0xDAC, symBinAddr: 0x37B3C, symSize: 0x24 }
  - { offset: 0xD96FE, size: 0x8, addend: 0x0, symName: '__ZN89_$LT$core..ops..range..Range$LT$T$GT$$u20$as$u20$core..iter..range..RangeIteratorImpl$GT$9spec_next17h5d4cdc9b21fa9c73E', symObjAddr: 0x3090, symBinAddr: 0x382C0, symSize: 0x94 }
  - { offset: 0xD9E9F, size: 0x8, addend: 0x0, symName: '__ZN91_$LT$core..slice..iter..Iter$LT$T$GT$$u20$as$u20$core..iter..traits..iterator..Iterator$GT$24__iterator_get_unchecked17h30a771d4d432c710E', symObjAddr: 0x317C, symBinAddr: 0x38384, symSize: 0x20 }
  - { offset: 0xD9EFA, size: 0x8, addend: 0x0, symName: '__ZN91_$LT$core..slice..iter..Iter$LT$T$GT$$u20$as$u20$core..iter..traits..iterator..Iterator$GT$24__iterator_get_unchecked17h472eb09bad44eec9E', symObjAddr: 0x31BC, symBinAddr: 0x383A4, symSize: 0x28 }
  - { offset: 0xD9F55, size: 0x8, addend: 0x0, symName: '__ZN91_$LT$core..slice..iter..Iter$LT$T$GT$$u20$as$u20$core..iter..traits..iterator..Iterator$GT$4next17h2000880b1df46ebdE', symObjAddr: 0x3684, symBinAddr: 0x383CC, symSize: 0xA8 }
  - { offset: 0xDA08F, size: 0x8, addend: 0x0, symName: '__ZN91_$LT$core..slice..iter..Iter$LT$T$GT$$u20$as$u20$core..iter..traits..iterator..Iterator$GT$4next17h4d4aa0cc2c41b702E', symObjAddr: 0x387C, symBinAddr: 0x38474, symSize: 0xA8 }
  - { offset: 0xDA1C9, size: 0x8, addend: 0x0, symName: '__ZN91_$LT$core..slice..iter..Iter$LT$T$GT$$u20$as$u20$core..iter..traits..iterator..Iterator$GT$9size_hint17h0e2c5cb191776bffE', symObjAddr: 0x3D14, symBinAddr: 0x3851C, symSize: 0x60 }
  - { offset: 0xDA238, size: 0x8, addend: 0x0, symName: '__ZN91_$LT$core..slice..iter..Iter$LT$T$GT$$u20$as$u20$core..iter..traits..iterator..Iterator$GT$9size_hint17h5422640e2e671851E', symObjAddr: 0x3D74, symBinAddr: 0x3857C, symSize: 0x60 }
  - { offset: 0xDA2A7, size: 0x8, addend: 0x0, symName: '__ZN91_$LT$core..slice..iter..Iter$LT$T$GT$$u20$as$u20$core..iter..traits..iterator..Iterator$GT$9size_hint17h7ec03372d7fc267cE', symObjAddr: 0x3DD4, symBinAddr: 0x385DC, symSize: 0x60 }
  - { offset: 0xDA32D, size: 0x8, addend: 0x0, symName: '__ZN118_$LT$$u5b$core..mem..maybe_uninit..MaybeUninit$LT$T$GT$$u5d$$u20$as$u20$core..array..iter..iter_inner..PartialDrop$GT$12partial_drop17h0713e4ffd0b1ed93E', symObjAddr: 0x604, symBinAddr: 0x3779C, symSize: 0xC0 }
  - { offset: 0xDA441, size: 0x8, addend: 0x0, symName: '__ZN129_$LT$$u5b$core..mem..maybe_uninit..MaybeUninit$LT$T$GT$$u3b$$u20$N$u5d$$u20$as$u20$core..array..iter..iter_inner..PartialDrop$GT$12partial_drop17hfbb80cb6682b7884E', symObjAddr: 0x914, symBinAddr: 0x3785C, symSize: 0x4C }
  - { offset: 0xDA535, size: 0x8, addend: 0x0, symName: '__ZN31_$LT$dyn$u20$core..any..Any$GT$12downcast_ref17h0399b2bbbbbb459bE', symObjAddr: 0xAB0, symBinAddr: 0x378A8, symSize: 0xB8 }
  - { offset: 0xDA664, size: 0x8, addend: 0x0, symName: '__ZN31_$LT$dyn$u20$core..any..Any$GT$12downcast_ref17hf0dd932703c17c33E', symObjAddr: 0xB68, symBinAddr: 0x37960, symSize: 0xB8 }
  - { offset: 0xDA7F8, size: 0x8, addend: 0x0, symName: '__ZN54_$LT$dyn$u20$core..any..Any$u2b$core..marker..Send$GT$12downcast_ref17h3309403818ceb0a4E', symObjAddr: 0x25AC, symBinAddr: 0x37ED8, symSize: 0x2C }
  - { offset: 0xDA82F, size: 0x8, addend: 0x0, symName: '__ZN54_$LT$dyn$u20$core..any..Any$u2b$core..marker..Send$GT$12downcast_ref17hae0b7383324ad6f5E', symObjAddr: 0x25D8, symBinAddr: 0x37F04, symSize: 0x2C }
  - { offset: 0xDA872, size: 0x8, addend: 0x0, symName: '__ZN47_$LT$$LP$$RP$$u20$as$u20$core..unit..IsUnit$GT$7is_unit17haac2c34449ccce33E', symObjAddr: 0xC20, symBinAddr: 0x37A18, symSize: 0xC }
  - { offset: 0xDA8A5, size: 0x8, addend: 0x0, symName: __ZN4core5alloc6layout6Layout25from_size_align_unchecked18precondition_check17ha351f46ed4bfd716E, symObjAddr: 0x1B70, symBinAddr: 0x37CD4, symSize: 0xBC }
  - { offset: 0xDA9BC, size: 0x8, addend: 0x0, symName: '__ZN4core3str6traits99_$LT$impl$u20$core..slice..index..SliceIndex$LT$str$GT$$u20$for$u20$core..ops..range..RangeFull$GT$5index17h2a47d6c4d739a0d3E', symObjAddr: 0xD94, symBinAddr: 0x37B24, symSize: 0x18 }
  - { offset: 0xDB41A, size: 0x8, addend: 0x0, symName: __ZN8pyo3_ffi11tupleobject13PyTuple_Check17hc5262543141b39b7E, symObjAddr: 0x3124, symBinAddr: 0x38354, symSize: 0x30 }
  - { offset: 0xDBA3E, size: 0x8, addend: 0x0, symName: '__ZN63_$LT$alloc..alloc..Global$u20$as$u20$core..alloc..Allocator$GT$10deallocate17hced12fa3ae684bbdE', symObjAddr: 0x29E4, symBinAddr: 0x381EC, symSize: 0x80 }
  - { offset: 0xDBB05, size: 0x8, addend: 0x0, symName: '__ZN63_$LT$alloc..alloc..Global$u20$as$u20$core..alloc..Allocator$GT$8allocate17h079a56e8675041a4E', symObjAddr: 0x2E9C, symBinAddr: 0x3826C, symSize: 0x34 }
  - { offset: 0xDBB40, size: 0x8, addend: 0x0, symName: __ZN5alloc5alloc15exchange_malloc17h030d6f7b92850a58E, symObjAddr: 0x2630, symBinAddr: 0x37F30, symSize: 0xAC }
  - { offset: 0xDC18F, size: 0x8, addend: 0x0, symName: '__ZN4core5slice4iter13Iter$LT$T$GT$3new17h16e59f53840519afE', symObjAddr: 0x1ECC, symBinAddr: 0x37D90, symSize: 0x50 }
  - { offset: 0xDC33F, size: 0x8, addend: 0x0, symName: '__ZN4core5slice4iter13Iter$LT$T$GT$3new17ha6b75eb0a13b43aaE', symObjAddr: 0x1F1C, symBinAddr: 0x37DE0, symSize: 0x58 }
  - { offset: 0xDC5EA, size: 0x8, addend: 0x0, symName: __ZN5alloc5alloc6Global10alloc_impl17h84818562d239b191E, symObjAddr: 0x26DC, symBinAddr: 0x37FDC, symSize: 0x1FC }
  - { offset: 0xDE8A3, size: 0x8, addend: 0x0, symName: __ZN4core3str8converts19from_utf8_unchecked17hc42cc56c159aed38E, symObjAddr: 0x48, symBinAddr: 0x3863C, symSize: 0x18 }
  - { offset: 0xDF2DD, size: 0x8, addend: 0x0, symName: __ZN8pyo3_ffi10longobject12PyLong_Check17h7b01c6d915846fdfE, symObjAddr: 0xD78, symBinAddr: 0x38674, symSize: 0x30 }
  - { offset: 0xDF30F, size: 0x8, addend: 0x0, symName: __ZN8pyo3_ffi8pyerrors22PyExceptionClass_Check17hab4de1799044999fE, symObjAddr: 0xDA8, symBinAddr: 0x386A4, symSize: 0x60 }
  - { offset: 0xDF33B, size: 0x8, addend: 0x0, symName: __ZN8pyo3_ffi8pyerrors25PyExceptionInstance_Check17h27fdc95450f96bb2E, symObjAddr: 0xE08, symBinAddr: 0x38704, symSize: 0x30 }
  - { offset: 0xDF803, size: 0x8, addend: 0x0, symName: '__ZN83_$LT$alloc..vec..set_len_on_drop..SetLenOnDrop$u20$as$u20$core..ops..drop..Drop$GT$4drop17h867517e08732c7d4E', symObjAddr: 0xD58, symBinAddr: 0x38654, symSize: 0x20 }
  - { offset: 0xE035D, size: 0x8, addend: 0x0, symName: __ZN9hashbrown3raw11TableLayout20calculate_layout_for17he279a410d03b285bE, symObjAddr: 0x1020, symBinAddr: 0x38734, symSize: 0x220 }
  - { offset: 0xE07B5, size: 0x8, addend: 0x0, symName: __ZN9hashbrown3raw13RawTableInner17new_uninitialized17h73b8df5f9fad5405E, symObjAddr: 0x1CE8, symBinAddr: 0x38954, symSize: 0x1B0 }
  - { offset: 0xE0AD7, size: 0x8, addend: 0x0, symName: '__ZN127_$LT$pyo3..instance..Bound$LT$pyo3..types..traceback..PyTraceback$GT$$u20$as$u20$pyo3..types..traceback..PyTracebackMethods$GT$6format8INTERNED17h3b5b71ab0b4c5350E', symObjAddr: 0x4590, symBinAddr: 0xC4448, symSize: 0x0 }
  - { offset: 0xE0AF1, size: 0x8, addend: 0x0, symName: '__ZN127_$LT$pyo3..instance..Bound$LT$pyo3..types..traceback..PyTraceback$GT$$u20$as$u20$pyo3..types..traceback..PyTracebackMethods$GT$6format8INTERNED17h8ac247c6d5ab4910E', symObjAddr: 0x45B0, symBinAddr: 0xC4468, symSize: 0x0 }
  - { offset: 0xE0B0B, size: 0x8, addend: 0x0, symName: '__ZN127_$LT$pyo3..instance..Bound$LT$pyo3..types..traceback..PyTraceback$GT$$u20$as$u20$pyo3..types..traceback..PyTracebackMethods$GT$6format8INTERNED17hcd99ecf9495a9814E', symObjAddr: 0x45D0, symBinAddr: 0xC4488, symSize: 0x0 }
  - { offset: 0xE30AF, size: 0x8, addend: 0x0, symName: __ZN4core9core_arch10arm_shared4neon9generated13vget_lane_u6417hb46f6320dbc5720bE, symObjAddr: 0xAF0, symBinAddr: 0x38FF4, symSize: 0x18 }
  - { offset: 0xE488C, size: 0x8, addend: 0x0, symName: '__ZN111_$LT$alloc..vec..Vec$LT$T$GT$$u20$as$u20$alloc..vec..spec_from_iter_nested..SpecFromIterNested$LT$T$C$I$GT$$GT$9from_iter17hc11e5692cb0ead15E', symObjAddr: 0x47C, symBinAddr: 0x38B04, symSize: 0x278 }
  - { offset: 0xE4B47, size: 0x8, addend: 0x0, symName: '__ZN111_$LT$alloc..vec..Vec$LT$T$GT$$u20$as$u20$alloc..vec..spec_from_iter_nested..SpecFromIterNested$LT$T$C$I$GT$$GT$9from_iter17hed373b3c5ee740dbE', symObjAddr: 0x6F4, symBinAddr: 0x38D7C, symSize: 0x278 }
  - { offset: 0xE5066, size: 0x8, addend: 0x0, symName: '__ZN5alloc3vec16Vec$LT$T$C$A$GT$7set_len18precondition_check17hfbb47460ed65cdbbE', symObjAddr: 0x2B98, symBinAddr: 0x394DC, symSize: 0xAC }
  - { offset: 0xE548A, size: 0x8, addend: 0x0, symName: '__ZN72_$LT$alloc..vec..Vec$LT$T$C$A$GT$$u20$as$u20$core..ops..deref..Deref$GT$5deref17h0cb9a607fde2af2fE', symObjAddr: 0x3918, symBinAddr: 0x397DC, symSize: 0x24 }
  - { offset: 0xE54CA, size: 0x8, addend: 0x0, symName: '__ZN72_$LT$alloc..vec..Vec$LT$T$C$A$GT$$u20$as$u20$core..ops..deref..Deref$GT$5deref17he866633debf0f296E', symObjAddr: 0x3960, symBinAddr: 0x39800, symSize: 0x24 }
  - { offset: 0xE5510, size: 0x8, addend: 0x0, symName: '__ZN67_$LT$alloc..vec..Vec$LT$T$GT$$u20$as$u20$core..default..Default$GT$7default17h2607d9792eefcc2bE', symObjAddr: 0x374C, symBinAddr: 0x39780, symSize: 0x14 }
  - { offset: 0xE5532, size: 0x8, addend: 0x0, symName: '__ZN67_$LT$alloc..vec..Vec$LT$T$GT$$u20$as$u20$core..default..Default$GT$7default17h2607d9792eefcc2bE', symObjAddr: 0x374C, symBinAddr: 0x39780, symSize: 0x14 }
  - { offset: 0xE5553, size: 0x8, addend: 0x0, symName: '__ZN70_$LT$alloc..vec..Vec$LT$T$C$A$GT$$u20$as$u20$core..ops..drop..Drop$GT$4drop17h52b0bd964a740c2dE', symObjAddr: 0x37AC, symBinAddr: 0x39794, symSize: 0x24 }
  - { offset: 0xE5603, size: 0x8, addend: 0x0, symName: '__ZN70_$LT$alloc..vec..Vec$LT$T$C$A$GT$$u20$as$u20$core..ops..drop..Drop$GT$4drop17h9843b80b1ce0fc9cE', symObjAddr: 0x3874, symBinAddr: 0x397B8, symSize: 0x24 }
  - { offset: 0xE56B9, size: 0x8, addend: 0x0, symName: '__ZN90_$LT$alloc..vec..Vec$LT$T$C$A$GT$$u20$as$u20$core..iter..traits..collect..IntoIterator$GT$9into_iter17h8edb6ddad58e718aE', symObjAddr: 0x3B00, symBinAddr: 0x39824, symSize: 0xDC }
  - { offset: 0xE5951, size: 0x8, addend: 0x0, symName: '__ZN95_$LT$alloc..vec..Vec$LT$T$GT$$u20$as$u20$core..iter..traits..collect..FromIterator$LT$T$GT$$GT$9from_iter17h27bc6b161946084fE', symObjAddr: 0x3BDC, symBinAddr: 0x39900, symSize: 0x3C }
  - { offset: 0xE5992, size: 0x8, addend: 0x0, symName: '__ZN95_$LT$alloc..vec..Vec$LT$T$GT$$u20$as$u20$core..iter..traits..collect..FromIterator$LT$T$GT$$GT$9from_iter17hc7c9d038efa7142bE', symObjAddr: 0x3C8C, symBinAddr: 0x3993C, symSize: 0x3C }
  - { offset: 0xE59DE, size: 0x8, addend: 0x0, symName: '__ZN97_$LT$alloc..vec..Vec$LT$T$C$A$GT$$u20$as$u20$alloc..vec..spec_extend..SpecExtend$LT$T$C$I$GT$$GT$11spec_extend17h5f2dc384ebd732a5E', symObjAddr: 0x3D18, symBinAddr: 0x39978, symSize: 0x24 }
  - { offset: 0xE5A30, size: 0x8, addend: 0x0, symName: '__ZN97_$LT$alloc..vec..Vec$LT$T$C$A$GT$$u20$as$u20$alloc..vec..spec_extend..SpecExtend$LT$T$C$I$GT$$GT$11spec_extend17hf160a853b474553cE', symObjAddr: 0x3D3C, symBinAddr: 0x3999C, symSize: 0x24 }
  - { offset: 0xE5A8E, size: 0x8, addend: 0x0, symName: '__ZN98_$LT$alloc..vec..Vec$LT$T$GT$$u20$as$u20$alloc..vec..spec_from_iter..SpecFromIter$LT$T$C$I$GT$$GT$9from_iter17h8b27bd5b8438922eE', symObjAddr: 0x3D84, symBinAddr: 0x399C0, symSize: 0x14 }
  - { offset: 0xE5ACD, size: 0x8, addend: 0x0, symName: '__ZN98_$LT$alloc..vec..Vec$LT$T$GT$$u20$as$u20$alloc..vec..spec_from_iter..SpecFromIter$LT$T$C$I$GT$$GT$9from_iter17hdd3a77bcc34e68caE', symObjAddr: 0x3DAC, symBinAddr: 0x399D4, symSize: 0x14 }
  - { offset: 0xE6254, size: 0x8, addend: 0x0, symName: '__ZN5alloc3vec12Vec$LT$T$GT$3new17h7261c89763795516E', symObjAddr: 0xD78, symBinAddr: 0x3900C, symSize: 0x14 }
  - { offset: 0xE64EB, size: 0x8, addend: 0x0, symName: '__ZN5alloc3vec16Vec$LT$T$C$A$GT$16extend_desugared17hcabd7cf4697a5122E', symObjAddr: 0x1B14, symBinAddr: 0x39020, symSize: 0x1E4 }
  - { offset: 0xE690F, size: 0x8, addend: 0x0, symName: '__ZN5alloc3vec16Vec$LT$T$C$A$GT$16extend_desugared17he7cbf27b9f17cae9E', symObjAddr: 0x1CF8, symBinAddr: 0x39204, symSize: 0x1E4 }
  - { offset: 0xE6C0D, size: 0x8, addend: 0x0, symName: '__ZN5alloc3vec16Vec$LT$T$C$A$GT$4push17ha94a77d1c3ba6921E', symObjAddr: 0x271C, symBinAddr: 0x393E8, symSize: 0x2C }
  - { offset: 0xE6D74, size: 0x8, addend: 0x0, symName: '__ZN5alloc3vec16Vec$LT$T$C$A$GT$7reserve17h15ee7575ff88b5d4E', symObjAddr: 0x2940, symBinAddr: 0x39414, symSize: 0xC8 }
  - { offset: 0xE6F7B, size: 0x8, addend: 0x0, symName: '__ZN5alloc3vec16Vec$LT$T$C$A$GT$8as_slice17hdc942f65d0b0afdeE', symObjAddr: 0x2CAC, symBinAddr: 0x39588, symSize: 0x68 }
  - { offset: 0xE70A5, size: 0x8, addend: 0x0, symName: '__ZN5alloc3vec16Vec$LT$T$C$A$GT$8as_slice17hf418b4bde1d60d90E', symObjAddr: 0x2D14, symBinAddr: 0x395F0, symSize: 0x6C }
  - { offset: 0xE7184, size: 0x8, addend: 0x0, symName: '__ZN5alloc3vec16Vec$LT$T$C$A$GT$8is_empty17h9cf6cfd599fac34cE', symObjAddr: 0x2DC0, symBinAddr: 0x3965C, symSize: 0x20 }
  - { offset: 0xE7209, size: 0x8, addend: 0x0, symName: '__ZN5alloc3vec16Vec$LT$T$C$A$GT$8is_empty17hfda2a921eb7fc546E', symObjAddr: 0x2E00, symBinAddr: 0x3967C, symSize: 0x20 }
  - { offset: 0xE73CA, size: 0x8, addend: 0x0, symName: '__ZN5alloc3vec16Vec$LT$T$C$A$GT$8push_mut17he5b19f685cac3aa4E', symObjAddr: 0x35D8, symBinAddr: 0x3969C, symSize: 0xE4 }
  - { offset: 0xE7845, size: 0x8, addend: 0x0, symName: '__ZN103_$LT$pyo3..instance..Bound$LT$pyo3..types..any..PyAny$GT$$u20$as$u20$pyo3..types..any..PyAnyMethods$GT$7getattr5inner17h3fca6d356986d977E', symObjAddr: 0xB7C, symBinAddr: 0x399E8, symSize: 0x6C }
  - { offset: 0xE7888, size: 0x8, addend: 0x0, symName: '__ZN103_$LT$pyo3..instance..Bound$LT$pyo3..types..any..PyAny$GT$$u20$as$u20$pyo3..types..any..PyAnyMethods$GT$7setattr5inner17h165022d6748317d8E', symObjAddr: 0xD50, symBinAddr: 0x39A54, symSize: 0x7C }
  - { offset: 0xE79F7, size: 0x8, addend: 0x0, symName: __ZN4pyo35types5tuple16array_into_tuple17h11b7e7dd491fc7b0E, symObjAddr: 0x3318, symBinAddr: 0x3A234, symSize: 0x200 }
  - { offset: 0xE7AAD, size: 0x8, addend: 0x0, symName: __ZN4pyo35types5tuple18wrong_tuple_length17h7a6b66460ffe0f0bE, symObjAddr: 0x41FC, symBinAddr: 0x7D728, symSize: 0xC8 }
  - { offset: 0xE7BC7, size: 0x8, addend: 0x0, symName: '__ZN4pyo35types5tuple74_$LT$impl$u20$pyo3..conversion..IntoPyObject$u20$for$u20$$LP$T0$C$$RP$$GT$13into_pyobject17h9bf1a5273ff7d647E', symObjAddr: 0x538C, symBinAddr: 0x3A524, symSize: 0xB4 }
  - { offset: 0xE7C3E, size: 0x8, addend: 0x0, symName: '__ZN77_$LT$pyo3..types..tuple..PyTuple$u20$as$u20$pyo3..type_object..PyTypeInfo$GT$10is_type_of17hf0f261c2bdfbc38dE', symObjAddr: 0x7018, symBinAddr: 0x3B7BC, symSize: 0x30 }
  - { offset: 0xE7C6A, size: 0x8, addend: 0x0, symName: '__ZN77_$LT$pyo3..types..tuple..PyTuple$u20$as$u20$pyo3..type_object..PyTypeInfo$GT$15type_object_raw17hce2ae53c21660974E', symObjAddr: 0x7048, symBinAddr: 0x3B7EC, symSize: 0x24 }
  - { offset: 0xE7CA6, size: 0x8, addend: 0x0, symName: '__ZN77_$LT$pyo3..types..tuple..PyTuple$u20$as$u20$pyo3..type_object..PyTypeInfo$GT$15type_object_raw28_$u7b$$u7b$closure$u7d$$u7d$17hecd36744084086e3E', symObjAddr: 0x706C, symBinAddr: 0x3B810, symSize: 0x18 }
  - { offset: 0xE7CF5, size: 0x8, addend: 0x0, symName: '__ZN97_$LT$pyo3..types..tuple..BoundTupleIterator$u20$as$u20$core..iter..traits..iterator..Iterator$GT$4next17h5e65831cf4b74b95E', symObjAddr: 0x797C, symBinAddr: 0x3BB94, symSize: 0xD0 }
  - { offset: 0xE7D74, size: 0x8, addend: 0x0, symName: '__ZN81_$LT$pyo3..types..typeobject..PyType$u20$as$u20$pyo3..type_object..PyTypeInfo$GT$10is_type_of17h2db7ce989be72fa2E', symObjAddr: 0x71A4, symBinAddr: 0x3B8E0, symSize: 0x30 }
  - { offset: 0xE7DA0, size: 0x8, addend: 0x0, symName: '__ZN81_$LT$pyo3..types..typeobject..PyType$u20$as$u20$pyo3..type_object..PyTypeInfo$GT$15type_object_raw17h884c3d963c94c210E', symObjAddr: 0x71D4, symBinAddr: 0x3B910, symSize: 0x24 }
  - { offset: 0xE7DDC, size: 0x8, addend: 0x0, symName: '__ZN81_$LT$pyo3..types..typeobject..PyType$u20$as$u20$pyo3..type_object..PyTypeInfo$GT$15type_object_raw28_$u7b$$u7b$closure$u7d$$u7d$17h68769f45fb6fa928E', symObjAddr: 0x71F8, symBinAddr: 0x3B934, symSize: 0x18 }
  - { offset: 0xE7E5B, size: 0x8, addend: 0x0, symName: '__ZN75_$LT$pyo3..types..none..PyNone$u20$as$u20$pyo3..type_object..PyTypeInfo$GT$15type_object_raw17h3f3acb3f3ea0061aE', symObjAddr: 0x6E60, symBinAddr: 0x3B6A0, symSize: 0x20 }
  - { offset: 0xE8113, size: 0x8, addend: 0x0, symName: '__ZN4pyo38internal5state12ATTACH_COUNT29_$u7b$$u7b$constant$u7d$$u7d$28_$u7b$$u7b$closure$u7d$$u7d$3VAL17he3d23e487f2846c5E', symObjAddr: 0x9400, symBinAddr: 0xC4E90, symSize: 0x0 }
  - { offset: 0xE8122, size: 0x8, addend: 0x0, symName: '__ZN4pyo38internal5state12ATTACH_COUNT29_$u7b$$u7b$constant$u7d$$u7d$28_$u7b$$u7b$closure$u7d$$u7d$17h5941d23108e58fd8E', symObjAddr: 0x5A68, symBinAddr: 0x3A7D4, symSize: 0x30 }
  - { offset: 0xE816A, size: 0x8, addend: 0x0, symName: __ZN4pyo38internal5state4POOL17hfbb2ddd8f1c05922E, symObjAddr: 0x93A8, symBinAddr: 0xC44A8, symSize: 0x0 }
  - { offset: 0xE8299, size: 0x8, addend: 0x0, symName: '__ZN4pyo38internal5state11AttachGuard10try_attach28_$u7b$$u7b$closure$u7d$$u7d$17hd05263f782802120E', symObjAddr: 0x58B8, symBinAddr: 0x3A6B4, symSize: 0x24 }
  - { offset: 0xE831F, size: 0x8, addend: 0x0, symName: '__ZN4pyo38internal5state13SuspendAttach3new28_$u7b$$u7b$closure$u7d$$u7d$17h770322344cdd8788E', symObjAddr: 0x607C, symBinAddr: 0x3ADE8, symSize: 0x28 }
  - { offset: 0xE83AB, size: 0x8, addend: 0x0, symName: __ZN4pyo38internal5state15register_decref17h8afe37e31d381f9dE, symObjAddr: 0x6178, symBinAddr: 0x3AE10, symSize: 0x2C }
  - { offset: 0xE83DA, size: 0x8, addend: 0x0, symName: '__ZN4pyo38internal5state18thread_is_attached28_$u7b$$u7b$closure$u7d$$u7d$17h0a56865c0b1d9c42E', symObjAddr: 0x61F8, symBinAddr: 0x3AE3C, symSize: 0x2C }
  - { offset: 0xE841D, size: 0x8, addend: 0x0, symName: '__ZN4pyo38internal5state22decrement_attach_count28_$u7b$$u7b$closure$u7d$$u7d$17h9b0acb73c5b52554E', symObjAddr: 0x6224, symBinAddr: 0x3AE68, symSize: 0x90 }
  - { offset: 0xE8475, size: 0x8, addend: 0x0, symName: '__ZN4pyo38internal5state22increment_attach_count28_$u7b$$u7b$closure$u7d$$u7d$17h0d041a0976c89779E', symObjAddr: 0x62B4, symBinAddr: 0x3AEF8, symSize: 0x74 }
  - { offset: 0xE84C8, size: 0x8, addend: 0x0, symName: __ZN4pyo38internal5state24drop_deferred_references17h6273c98f92253b71E, symObjAddr: 0x6328, symBinAddr: 0x3AF6C, symSize: 0x4C }
  - { offset: 0xE8518, size: 0x8, addend: 0x0, symName: __ZN4pyo38internal5state8get_pool17ha2b1549ec3f1a926E, symObjAddr: 0x6374, symBinAddr: 0x3AFB8, symSize: 0x1C }
  - { offset: 0xE8547, size: 0x8, addend: 0x0, symName: '__ZN76_$LT$pyo3..internal..state..AttachGuard$u20$as$u20$core..ops..drop..Drop$GT$4drop17h1838151641b86173E', symObjAddr: 0x6E80, symBinAddr: 0x3B6C0, symSize: 0x5C }
  - { offset: 0xE85A6, size: 0x8, addend: 0x0, symName: '__ZN78_$LT$pyo3..internal..state..SuspendAttach$u20$as$u20$core..ops..drop..Drop$GT$4drop17h227d1e7430b85387E', symObjAddr: 0x7084, symBinAddr: 0x3B828, symSize: 0x80 }
  - { offset: 0xE85F1, size: 0x8, addend: 0x0, symName: '__ZN78_$LT$pyo3..internal..state..SuspendAttach$u20$as$u20$core..ops..drop..Drop$GT$4drop28_$u7b$$u7b$closure$u7d$$u7d$17h4b2debff82817a4dE', symObjAddr: 0x7104, symBinAddr: 0x3B8A8, symSize: 0x38 }
  - { offset: 0xE874C, size: 0x8, addend: 0x0, symName: __ZN4pyo311type_object10PyTypeInfo11type_object17h2b6883242bf6ae26E, symObjAddr: 0x28E8, symBinAddr: 0x3A14C, symSize: 0x30 }
  - { offset: 0xE878C, size: 0x8, addend: 0x0, symName: __ZN4pyo311type_object10PyTypeInfo11type_object17h5954802ee59b38c2E, symObjAddr: 0x2918, symBinAddr: 0x3A17C, symSize: 0x30 }
  - { offset: 0xE87CC, size: 0x8, addend: 0x0, symName: __ZN4pyo311type_object10PyTypeInfo11type_object17hc8d2552e61b9b079E, symObjAddr: 0x29A8, symBinAddr: 0x3A1AC, symSize: 0x30 }
  - { offset: 0xE8812, size: 0x8, addend: 0x0, symName: '__ZN52_$LT$T$u20$as$u20$pyo3..type_object..PyTypeCheck$GT$10type_check17h492c186625ea15e0E', symObjAddr: 0x63C8, symBinAddr: 0x3AFD4, symSize: 0x24 }
  - { offset: 0xE8847, size: 0x8, addend: 0x0, symName: '__ZN52_$LT$T$u20$as$u20$pyo3..type_object..PyTypeCheck$GT$10type_check17h8cc27da0b08c0c92E', symObjAddr: 0x6410, symBinAddr: 0x3AFF8, symSize: 0x24 }
  - { offset: 0xE887C, size: 0x8, addend: 0x0, symName: '__ZN52_$LT$T$u20$as$u20$pyo3..type_object..PyTypeCheck$GT$16classinfo_object17h1286c3376b17efe4E', symObjAddr: 0x6434, symBinAddr: 0x3B01C, symSize: 0x20 }
  - { offset: 0xE88BC, size: 0x8, addend: 0x0, symName: '__ZN52_$LT$T$u20$as$u20$pyo3..type_object..PyTypeCheck$GT$16classinfo_object17h22073dbcd94c2001E', symObjAddr: 0x6454, symBinAddr: 0x3B03C, symSize: 0x20 }
  - { offset: 0xE9F6D, size: 0x8, addend: 0x0, symName: '__ZN49_$LT$usize$u20$as$u20$core..iter..range..Step$GT$17forward_unchecked17h21fde5e19807e95aE', symObjAddr: 0x1F40, symBinAddr: 0x3A058, symSize: 0x50 }
  - { offset: 0xE9FDD, size: 0x8, addend: 0x0, symName: __ZN4core4iter6traits8iterator8Iterator9enumerate17h03019bc3c6dbdaebE, symObjAddr: 0x228C, symBinAddr: 0x3A134, symSize: 0x18 }
  - { offset: 0xEA00E, size: 0x8, addend: 0x0, symName: __ZN4core4iter6traits8iterator8Iterator9enumerate17h03019bc3c6dbdaebE, symObjAddr: 0x228C, symBinAddr: 0x3A134, symSize: 0x18 }
  - { offset: 0xEA836, size: 0x8, addend: 0x0, symName: '__ZN69_$LT$core..hash..sip..Sip13Rounds$u20$as$u20$core..hash..sip..Sip$GT$8c_rounds17h275681f1c2c785d6E', symObjAddr: 0x65A4, symBinAddr: 0x3B088, symSize: 0x170 }
  - { offset: 0xEA9AC, size: 0x8, addend: 0x0, symName: '__ZN69_$LT$core..hash..sip..Sip13Rounds$u20$as$u20$core..hash..sip..Sip$GT$8d_rounds17ha59fdd6e1aecef22E', symObjAddr: 0x6714, symBinAddr: 0x3B1F8, symSize: 0x408 }
  - { offset: 0xEADE4, size: 0x8, addend: 0x0, symName: '__ZN71_$LT$core..hash..sip..Hasher$LT$S$GT$$u20$as$u20$core..hash..Hasher$GT$6finish17hddeea5db59bca835E', symObjAddr: 0x6D54, symBinAddr: 0x3B600, symSize: 0xA0 }
  - { offset: 0xEB649, size: 0x8, addend: 0x0, symName: __ZN8pyo3_ffi7cpython11tupleobject16PyTuple_GET_ITEM17hbc251d132f52beebE, symObjAddr: 0x7580, symBinAddr: 0x3B94C, symSize: 0x10C }
  - { offset: 0xEB6A8, size: 0x8, addend: 0x0, symName: __ZN8pyo3_ffi7cpython11tupleobject16PyTuple_GET_SIZE17h9816a9636dd5cc38E, symObjAddr: 0x768C, symBinAddr: 0x3BA58, symSize: 0x24 }
  - { offset: 0xEB6D4, size: 0x8, addend: 0x0, symName: __ZN8pyo3_ffi7cpython11tupleobject16PyTuple_SET_ITEM17h877cbf9146a6d6e3E, symObjAddr: 0x76B0, symBinAddr: 0x3BA7C, symSize: 0x118 }
  - { offset: 0xEBE8D, size: 0x8, addend: 0x0, symName: '__ZN62_$LT$std..thread..ThreadId$u20$as$u20$core..cmp..PartialEq$GT$2eq17hed1884fd2dc23d28E', symObjAddr: 0x6560, symBinAddr: 0x3B05C, symSize: 0x2C }
  - { offset: 0xEC1C8, size: 0x8, addend: 0x0, symName: __ZN3std4sync6poison10map_result17h580555ec62d1b0ecE, symObjAddr: 0x13F0, symBinAddr: 0x39AD0, symSize: 0xC4 }
  - { offset: 0xEC25C, size: 0x8, addend: 0x0, symName: __ZN3std4sync6poison10map_result17h71e6b38d197a886eE, symObjAddr: 0x14B4, symBinAddr: 0x39B94, symSize: 0xC4 }
  - { offset: 0xEC313, size: 0x8, addend: 0x0, symName: '__ZN76_$LT$std..sync..poison..PoisonError$LT$T$GT$$u20$as$u20$core..fmt..Debug$GT$3fmt17h331bf1bf5d8bcbb0E', symObjAddr: 0x6EDC, symBinAddr: 0x3B71C, symSize: 0x50 }
  - { offset: 0xEC356, size: 0x8, addend: 0x0, symName: '__ZN76_$LT$std..sync..poison..PoisonError$LT$T$GT$$u20$as$u20$core..fmt..Debug$GT$3fmt17h686bf9d361f8b576E', symObjAddr: 0x6F2C, symBinAddr: 0x3B76C, symSize: 0x50 }
  - { offset: 0xEC502, size: 0x8, addend: 0x0, symName: '__ZN3std4sync9once_lock17OnceLock$LT$T$GT$11get_or_init28_$u7b$$u7b$closure$u7d$$u7d$17he9bce8f9a81131c5E', symObjAddr: 0x1820, symBinAddr: 0x39EB0, symSize: 0x3C }
  - { offset: 0xEC549, size: 0x8, addend: 0x0, symName: '__ZN3std4sync9once_lock17OnceLock$LT$T$GT$10initialize28_$u7b$$u7b$closure$u7d$$u7d$17hb321a36f004cd7f4E', symObjAddr: 0x1750, symBinAddr: 0x39DE0, symSize: 0xA4 }
  - { offset: 0xECA90, size: 0x8, addend: 0x0, symName: __ZN3std4sync6poison4Flag4done17hfd240f4e4971cc45E, symObjAddr: 0x1578, symBinAddr: 0x39C58, symSize: 0xA4 }
  - { offset: 0xECB7E, size: 0x8, addend: 0x0, symName: __ZN3std4sync6poison4Flag5guard17hc17b84a9f0b7ff9cE, symObjAddr: 0x161C, symBinAddr: 0x39CFC, symSize: 0xE4 }
  - { offset: 0xECC54, size: 0x8, addend: 0x0, symName: '__ZN3std4sync9once_lock17OnceLock$LT$T$GT$10initialize17hec4cf3a3c27c6d77E', symObjAddr: 0x1700, symBinAddr: 0x7D6D8, symSize: 0x50 }
  - { offset: 0xECD8E, size: 0x8, addend: 0x0, symName: '__ZN3std4sync9once_lock17OnceLock$LT$T$GT$11get_or_init17hfcdeabbdad4378b9E', symObjAddr: 0x17F4, symBinAddr: 0x39E84, symSize: 0x2C }
  - { offset: 0xECE9B, size: 0x8, addend: 0x0, symName: '__ZN3std4sync9once_lock17OnceLock$LT$T$GT$15get_or_try_init17h8a4ee2d176a2ee30E', symObjAddr: 0x185C, symBinAddr: 0x39EEC, symSize: 0xD0 }
  - { offset: 0xED0C3, size: 0x8, addend: 0x0, symName: '__ZN3std4sync9once_lock17OnceLock$LT$T$GT$3get17h7cfa2ebbfc0977e0E', symObjAddr: 0x192C, symBinAddr: 0x39FBC, symSize: 0x80 }
  - { offset: 0xED270, size: 0x8, addend: 0x0, symName: __ZN3std6thread6Thread2id17h9f87706788437fceE, symObjAddr: 0x19AC, symBinAddr: 0x3A03C, symSize: 0x1C }
  - { offset: 0xED36F, size: 0x8, addend: 0x0, symName: '__ZN4core4hash3sip15Hasher$LT$S$GT$5reset17h0f21f2bca92c3b4fE', symObjAddr: 0x1FC0, symBinAddr: 0x3A0A8, symSize: 0x8C }
  - { offset: 0xED3AA, size: 0x8, addend: 0x0, symName: __ZN4pyo35types10typeobject6PyType22from_borrowed_type_ptr17ha098b2b70d803df3E, symObjAddr: 0x3148, symBinAddr: 0x3A1DC, symSize: 0x34 }
  - { offset: 0xED3F2, size: 0x8, addend: 0x0, symName: __ZN4pyo35types4none6PyNone3get17h7cb088017f659284E, symObjAddr: 0x3190, symBinAddr: 0x3A210, symSize: 0x24 }
  - { offset: 0xED41F, size: 0x8, addend: 0x0, symName: __ZN4pyo35types5tuple18BoundTupleIterator3new17h6d7dbb1953697611E, symObjAddr: 0x4184, symBinAddr: 0x3A434, symSize: 0x78 }
  - { offset: 0xED46D, size: 0x8, addend: 0x0, symName: __ZN4pyo35types5tuple21BorrowedTupleIterator3new17h60d1a5b286978f61E, symObjAddr: 0x42C4, symBinAddr: 0x3A4AC, symSize: 0x48 }
  - { offset: 0xED4BB, size: 0x8, addend: 0x0, symName: __ZN4pyo35types5tuple21BorrowedTupleIterator8get_item17hf700da709ed7791dE, symObjAddr: 0x430C, symBinAddr: 0x3A4F4, symSize: 0x30 }
  - { offset: 0xED580, size: 0x8, addend: 0x0, symName: __ZN4pyo38internal5state11AttachGuard10try_attach17h69c62b7bd1a6bedeE, symObjAddr: 0x57DC, symBinAddr: 0x3A5D8, symSize: 0xDC }
  - { offset: 0xED5C0, size: 0x8, addend: 0x0, symName: __ZN4pyo38internal5state11AttachGuard19do_attach_unchecked17h06e6219e456541b0E, symObjAddr: 0x5930, symBinAddr: 0x7D7F0, symSize: 0x3C }
  - { offset: 0xED605, size: 0x8, addend: 0x0, symName: __ZN4pyo38internal5state11AttachGuard6assume17h7d9d522a9f760626E, symObjAddr: 0x596C, symBinAddr: 0x3A6D8, symSize: 0x28 }
  - { offset: 0xED62D, size: 0x8, addend: 0x0, symName: __ZN4pyo38internal5state11AttachGuard6attach17h492b7ad2231dd9afE, symObjAddr: 0x5994, symBinAddr: 0x3A700, symSize: 0xB4 }
  - { offset: 0xED65E, size: 0x8, addend: 0x0, symName: __ZN4pyo38internal5state11AttachGuard6python17hadf16ec02a9baba1E, symObjAddr: 0x5A48, symBinAddr: 0x3A7B4, symSize: 0x20 }
  - { offset: 0xED6C3, size: 0x8, addend: 0x0, symName: __ZN4pyo38internal5state13ReferencePool15register_decref17h1038874b51f0f5ceE, symObjAddr: 0x5A98, symBinAddr: 0x3A804, symSize: 0x130 }
  - { offset: 0xED748, size: 0x8, addend: 0x0, symName: __ZN4pyo38internal5state13ReferencePool24drop_deferred_references17hb995cb21fc42c925E, symObjAddr: 0x5BC8, symBinAddr: 0x3A934, symSize: 0x428 }
  - { offset: 0xED868, size: 0x8, addend: 0x0, symName: __ZN4pyo38internal5state13ReferencePool3new17h4d090f009c369e8dE, symObjAddr: 0x5FF0, symBinAddr: 0x3AD5C, symSize: 0x4C }
  - { offset: 0xED87B, size: 0x8, addend: 0x0, symName: __ZN4pyo38internal5state13SuspendAttach3new17ha49c15568d866b2cE, symObjAddr: 0x603C, symBinAddr: 0x3ADA8, symSize: 0x40 }
  - { offset: 0xED8AC, size: 0x8, addend: 0x0, symName: __ZN4pyo38internal5state15ForbidAttaching4bail17h8a92776c33059dfeE, symObjAddr: 0x6124, symBinAddr: 0x7D82C, symSize: 0x54 }
  - { offset: 0xEDC24, size: 0x8, addend: 0x0, symName: '__ZN45_$LT$T$u20$as$u20$alloc..string..ToString$GT$9to_string17h15834eedd3823a0eE', symObjAddr: 0x93C, symBinAddr: 0x3BDE4, symSize: 0x24 }
  - { offset: 0xEDC5B, size: 0x8, addend: 0x0, symName: '__ZN45_$LT$T$u20$as$u20$alloc..string..ToString$GT$9to_string17h32944cd6c253b88eE', symObjAddr: 0x9CC, symBinAddr: 0x3BE08, symSize: 0x24 }
  - { offset: 0xEDC92, size: 0x8, addend: 0x0, symName: '__ZN45_$LT$T$u20$as$u20$alloc..string..ToString$GT$9to_string17h3a446f6701bf73d8E', symObjAddr: 0x9F0, symBinAddr: 0x3BE2C, symSize: 0x28 }
  - { offset: 0xEDCCF, size: 0x8, addend: 0x0, symName: '__ZN49_$LT$T$u20$as$u20$alloc..string..SpecToString$GT$14spec_to_string17hc1237443b0678096E', symObjAddr: 0x1828, symBinAddr: 0x3BF70, symSize: 0xF4 }
  - { offset: 0xEDDDB, size: 0x8, addend: 0x0, symName: '__ZN76_$LT$alloc..string..String$u20$as$u20$core..convert..From$LT$$RF$str$GT$$GT$4from17h6d77898a343157bfE', symObjAddr: 0x656C, symBinAddr: 0x3D938, symSize: 0x50 }
  - { offset: 0xEDEC8, size: 0x8, addend: 0x0, symName: '__ZN51_$LT$str$u20$as$u20$alloc..string..SpecToString$GT$14spec_to_string17hd9fd4218cdf89304E', symObjAddr: 0x5598, symBinAddr: 0x3D1A4, symSize: 0x50 }
  - { offset: 0xEDFF1, size: 0x8, addend: 0x0, symName: '__ZN55_$LT$$RF$str$u20$as$u20$alloc..string..SpecToString$GT$14spec_to_string17h84ec3f15cb381402E', symObjAddr: 0x5690, symBinAddr: 0x3D268, symSize: 0x5C }
  - { offset: 0xEE156, size: 0x8, addend: 0x0, symName: '__ZN65_$LT$alloc..string..String$u20$as$u20$core..ops..deref..Deref$GT$5deref17h338b18c75b031845E', symObjAddr: 0x5F00, symBinAddr: 0x3D6DC, symSize: 0x24 }
  - { offset: 0xEE18A, size: 0x8, addend: 0x0, symName: '__ZN58_$LT$alloc..string..String$u20$as$u20$core..fmt..Debug$GT$3fmt17h8a06ee2326a3fe50E', symObjAddr: 0x56EC, symBinAddr: 0x3D2C4, symSize: 0x88 }
  - { offset: 0xEE2EF, size: 0x8, addend: 0x0, symName: '__ZN58_$LT$alloc..string..String$u20$as$u20$core..fmt..Write$GT$10write_char17h13a3b698ca32643cE', symObjAddr: 0x5774, symBinAddr: 0x3D34C, symSize: 0x38 }
  - { offset: 0xEE32C, size: 0x8, addend: 0x0, symName: '__ZN58_$LT$alloc..string..String$u20$as$u20$core..fmt..Write$GT$9write_str17h193b44aaa44fde86E', symObjAddr: 0x57AC, symBinAddr: 0x3D384, symSize: 0x40 }
  - { offset: 0xEE390, size: 0x8, addend: 0x0, symName: '__ZN60_$LT$alloc..string..String$u20$as$u20$core..fmt..Display$GT$3fmt17h13be7edbd84367bbE', symObjAddr: 0x5CBC, symBinAddr: 0x3D5F4, symSize: 0x88 }
  - { offset: 0xEE4F5, size: 0x8, addend: 0x0, symName: '__ZN74_$LT$alloc..string..String$u20$as$u20$core..ops..index..Index$LT$I$GT$$GT$5index17h7698456113059ec4E', symObjAddr: 0x62FC, symBinAddr: 0x3D754, symSize: 0x84 }
  - { offset: 0xEEA38, size: 0x8, addend: 0x0, symName: '__ZN5alloc3str83_$LT$impl$u20$core..borrow..Borrow$LT$str$GT$$u20$for$u20$alloc..string..String$GT$6borrow17h20fd56518b747e35E', symObjAddr: 0x5830, symBinAddr: 0x3D3C4, symSize: 0x2C }
  - { offset: 0xEF0FA, size: 0x8, addend: 0x0, symName: '__ZN70_$LT$core..num..error..TryFromIntError$u20$as$u20$core..fmt..Debug$GT$3fmt17hc0904c06d02d956cE', symObjAddr: 0x625C, symBinAddr: 0x3D700, symSize: 0x54 }
  - { offset: 0xEF184, size: 0x8, addend: 0x0, symName: '__ZN50_$LT$T$u20$as$u20$core..convert..Into$LT$U$GT$$GT$4into17h81104edb717729b9E', symObjAddr: 0x5540, symBinAddr: 0x3D14C, symSize: 0x2C }
  - { offset: 0xEF1C4, size: 0x8, addend: 0x0, symName: '__ZN50_$LT$T$u20$as$u20$core..convert..Into$LT$U$GT$$GT$4into17he7a59218ecfc0a85E', symObjAddr: 0x556C, symBinAddr: 0x3D178, symSize: 0x2C }
  - { offset: 0xEF218, size: 0x8, addend: 0x0, symName: '__ZN42_$LT$$RF$T$u20$as$u20$core..fmt..Debug$GT$3fmt17ha51c2cd3b43ea41dE', symObjAddr: 0x83C, symBinAddr: 0x3BD74, symSize: 0x30 }
  - { offset: 0xEF264, size: 0x8, addend: 0x0, symName: '__ZN45_$LT$$LP$$RP$$u20$as$u20$core..fmt..Debug$GT$3fmt17hd991df1173cb5106E', symObjAddr: 0x8FC, symBinAddr: 0x3BDA4, symSize: 0x40 }
  - { offset: 0xEF5B2, size: 0x8, addend: 0x0, symName: __ZN4core3fmt5Write9write_fmt17h43b3765580ca5f07E, symObjAddr: 0x2028, symBinAddr: 0x3C2EC, symSize: 0x24 }
  - { offset: 0xEF600, size: 0x8, addend: 0x0, symName: '__ZN75_$LT$$RF$mut$u20$W$u20$as$u20$core..fmt..Write..write_fmt..SpecWriteFmt$GT$14spec_write_fmt17h1a0129a076b0b3ceE', symObjAddr: 0x6380, symBinAddr: 0x3D7D8, symSize: 0x160 }
  - { offset: 0xEF6BD, size: 0x8, addend: 0x0, symName: '__ZN53_$LT$core..fmt..Error$u20$as$u20$core..fmt..Debug$GT$3fmt17h7a1dbafa549e48f5E', symObjAddr: 0x55E8, symBinAddr: 0x3D1F4, symSize: 0x40 }
  - { offset: 0xEF702, size: 0x8, addend: 0x0, symName: '__ZN54_$LT$$BP$const$u20$T$u20$as$u20$core..fmt..Pointer$GT$3fmt28_$u7b$$u7b$closure$u7d$$u7d$17hdd5125ea0b930a42E', symObjAddr: 0x565C, symBinAddr: 0x3D234, symSize: 0x34 }
  - { offset: 0xEF7D2, size: 0x8, addend: 0x0, symName: __ZN4core4sync6atomic11atomic_load17h069f8d67b7bc6dffE, symObjAddr: 0x25B0, symBinAddr: 0x3C574, symSize: 0x150 }
  - { offset: 0xEF844, size: 0x8, addend: 0x0, symName: __ZN4core4sync6atomic11atomic_load17he77655ebf5937e21E, symObjAddr: 0x2700, symBinAddr: 0x3C6C4, symSize: 0x150 }
  - { offset: 0xEF8B6, size: 0x8, addend: 0x0, symName: __ZN4core4sync6atomic23atomic_compare_exchange17hd95ea864bc0bb268E, symObjAddr: 0x2ED4, symBinAddr: 0x3C814, symSize: 0x514 }
  - { offset: 0xF080B, size: 0x8, addend: 0x0, symName: '__ZN4core3cmp5impls54_$LT$impl$u20$core..cmp..PartialEq$u20$for$u20$i32$GT$2ne17hed5d517a94429015E', symObjAddr: 0x1B04, symBinAddr: 0x3C064, symSize: 0x2C }
  - { offset: 0xF084E, size: 0x8, addend: 0x0, symName: '__ZN4core3cmp5impls54_$LT$impl$u20$core..cmp..PartialEq$u20$for$u20$u64$GT$2eq17h789769fdacbd30f0E', symObjAddr: 0x1B88, symBinAddr: 0x3C090, symSize: 0x2C }
  - { offset: 0xF0891, size: 0x8, addend: 0x0, symName: '__ZN4core3cmp5impls56_$LT$impl$u20$core..cmp..PartialEq$u20$for$u20$isize$GT$2ne17h06df42f3d6977997E', symObjAddr: 0x1BF0, symBinAddr: 0x3C0BC, symSize: 0x2C }
  - { offset: 0xF0909, size: 0x8, addend: 0x0, symName: '__ZN115_$LT$core..iter..adapters..filter_map..FilterMap$LT$I$C$F$GT$$u20$as$u20$core..iter..traits..iterator..Iterator$GT$4next17h4c11384092e37601E', symObjAddr: 0x2B8, symBinAddr: 0x3BC64, symSize: 0x2C }
  - { offset: 0xF0950, size: 0x8, addend: 0x0, symName: '__ZN115_$LT$core..iter..adapters..filter_map..FilterMap$LT$I$C$F$GT$$u20$as$u20$core..iter..traits..iterator..Iterator$GT$4next17hf84855deb2785fc4E', symObjAddr: 0x2E4, symBinAddr: 0x3BC90, symSize: 0x2C }
  - { offset: 0xF0997, size: 0x8, addend: 0x0, symName: '__ZN115_$LT$core..iter..adapters..filter_map..FilterMap$LT$I$C$F$GT$$u20$as$u20$core..iter..traits..iterator..Iterator$GT$9size_hint17h0b13fedd0d22cef2E', symObjAddr: 0x310, symBinAddr: 0x3BCBC, symSize: 0x4C }
  - { offset: 0xF09FB, size: 0x8, addend: 0x0, symName: '__ZN115_$LT$core..iter..adapters..filter_map..FilterMap$LT$I$C$F$GT$$u20$as$u20$core..iter..traits..iterator..Iterator$GT$9size_hint17h9dd12be00ae4d873E', symObjAddr: 0x35C, symBinAddr: 0x3BD08, symSize: 0x4C }
  - { offset: 0xF0BD3, size: 0x8, addend: 0x0, symName: __ZN4core4iter6traits8iterator8Iterator7collect17h144521312d8b633cE, symObjAddr: 0x2334, symBinAddr: 0x3C48C, symSize: 0x74 }
  - { offset: 0xF0C69, size: 0x8, addend: 0x0, symName: __ZN4core4iter6traits8iterator8Iterator7collect17he6faeabe52302e76E, symObjAddr: 0x23A8, symBinAddr: 0x3C500, symSize: 0x74 }
  - { offset: 0xF0D0B, size: 0x8, addend: 0x0, symName: '__ZN63_$LT$I$u20$as$u20$core..iter..traits..collect..IntoIterator$GT$9into_iter17h1af46844564a23b0E', symObjAddr: 0x5D44, symBinAddr: 0x3D67C, symSize: 0x30 }
  - { offset: 0xF0D43, size: 0x8, addend: 0x0, symName: '__ZN63_$LT$I$u20$as$u20$core..iter..traits..collect..IntoIterator$GT$9into_iter17h8e90bdfbd0d9329dE', symObjAddr: 0x5D74, symBinAddr: 0x3D6AC, symSize: 0x30 }
  - { offset: 0xF0DB8, size: 0x8, addend: 0x0, symName: '__ZN36_$LT$T$u20$as$u20$core..any..Any$GT$7type_id17h6902008b2c7232ccE', symObjAddr: 0x3A8, symBinAddr: 0x3BD54, symSize: 0x20 }
  - { offset: 0xF0F09, size: 0x8, addend: 0x0, symName: '__ZN4core5slice29_$LT$impl$u20$$u5b$T$u5d$$GT$4iter17h9c00a2e640d21404E', symObjAddr: 0x3BDC, symBinAddr: 0x3CD28, symSize: 0x28 }
  - { offset: 0xF177B, size: 0x8, addend: 0x0, symName: __ZN4pyo321interpreter_lifecycle5START17hd790066832b8fbadE, symObjAddr: 0x9C98, symBinAddr: 0xC44D8, symSize: 0x0 }
  - { offset: 0xF1788, size: 0x8, addend: 0x0, symName: __ZN4pyo321interpreter_lifecycle10initialize17h44031f453afe9b55E, symObjAddr: 0x40AC, symBinAddr: 0x3CEEC, symSize: 0x1C }
  - { offset: 0xF17A6, size: 0x8, addend: 0x0, symName: '__ZN4pyo321interpreter_lifecycle10initialize28_$u7b$$u7b$closure$u7d$$u7d$17h193a5f48e114a0d0E', symObjAddr: 0x40C8, symBinAddr: 0x3CF08, symSize: 0x38 }
  - { offset: 0xF17DC, size: 0x8, addend: 0x0, symName: __ZN4pyo321interpreter_lifecycle18ensure_initialized17h90c4f904b07a2e48E, symObjAddr: 0x4100, symBinAddr: 0x3CF40, symSize: 0x38 }
  - { offset: 0xF17FA, size: 0x8, addend: 0x0, symName: '__ZN4pyo321interpreter_lifecycle18ensure_initialized28_$u7b$$u7b$closure$u7d$$u7d$17h5deb4a5ebeb43b7cE', symObjAddr: 0x4138, symBinAddr: 0x3CF78, symSize: 0xA4 }
  - { offset: 0xF1A6D, size: 0x8, addend: 0x0, symName: '__ZN4pyo35types5tuple74_$LT$impl$u20$pyo3..conversion..IntoPyObject$u20$for$u20$$LP$T0$C$$RP$$GT$13into_pyobject17h5da5f6790638a428E', symObjAddr: 0x5424, symBinAddr: 0x3D08C, symSize: 0xC0 }
  - { offset: 0xF1C97, size: 0x8, addend: 0x0, symName: '__ZN47_$LT$T$u20$as$u20$pyo3..err..PyErrArguments$GT$9arguments17h25341ec2c6f45700E', symObjAddr: 0xB80, symBinAddr: 0x3BE54, symSize: 0x34 }
  - { offset: 0xF1D03, size: 0x8, addend: 0x0, symName: '__ZN47_$LT$T$u20$as$u20$pyo3..err..PyErrArguments$GT$9arguments17h2c7bee5268873df5E', symObjAddr: 0xBB4, symBinAddr: 0x3BE88, symSize: 0xE8 }
  - { offset: 0xF1E39, size: 0x8, addend: 0x0, symName: '__ZN78_$LT$pyo3..err..cast_error..DisplayCastError$u20$as$u20$core..fmt..Display$GT$3fmt17h1c034ca5c78cb493E', symObjAddr: 0x6664, symBinAddr: 0x3D988, symSize: 0x230 }
  - { offset: 0xF1F1B, size: 0x8, addend: 0x0, symName: '__ZN78_$LT$pyo3..err..cast_error..DisplayCastError$u20$as$u20$core..fmt..Display$GT$3fmt28_$u7b$$u7b$closure$u7d$$u7d$17h280ecbb4a62ffb8cE', symObjAddr: 0x6894, symBinAddr: 0x3DBB8, symSize: 0x24 }
  - { offset: 0xF1F5F, size: 0x8, addend: 0x0, symName: '__ZN78_$LT$pyo3..err..cast_error..DisplayClassInfo$u20$as$u20$core..fmt..Display$GT$3fmt17h89729b711c80a639E', symObjAddr: 0x68B8, symBinAddr: 0x3DBDC, symSize: 0x50C }
  - { offset: 0xF2082, size: 0x8, addend: 0x0, symName: '__ZN78_$LT$pyo3..err..cast_error..DisplayClassInfo$u20$as$u20$core..fmt..Display$GT$3fmt28_$u7b$$u7b$closure$u7d$$u7d$17h1ebcbe2c82e67792E', symObjAddr: 0x6DC4, symBinAddr: 0x3E0E8, symSize: 0x1C }
  - { offset: 0xF20BF, size: 0x8, addend: 0x0, symName: '__ZN87_$LT$pyo3..err..cast_error..CastErrorArguments$u20$as$u20$pyo3..err..PyErrArguments$GT$9arguments17hecc3659966b22da0E', symObjAddr: 0x6E78, symBinAddr: 0x3E104, symSize: 0x190 }
  - { offset: 0xF21BF, size: 0x8, addend: 0x0, symName: __ZN4pyo310conversion15IntoPyObjectExt11into_py_any17hcc9227c4c214776eE, symObjAddr: 0x3C20, symBinAddr: 0x3CD50, symSize: 0x48 }
  - { offset: 0xF222C, size: 0x8, addend: 0x0, symName: __ZN4pyo310conversion15IntoPyObjectExt17into_bound_py_any17h80ead167f6ee58f2E, symObjAddr: 0x3C68, symBinAddr: 0x3CD98, symSize: 0x48 }
  - { offset: 0xF22AE, size: 0x8, addend: 0x0, symName: '__ZN4pyo311conversions3std6string82_$LT$impl$u20$pyo3..conversion..FromPyObject$u20$for$u20$alloc..string..String$GT$7extract17h3789b10b1540204dE', symObjAddr: 0x3CF0, symBinAddr: 0x3CDE0, symSize: 0x98 }
  - { offset: 0xF22FD, size: 0x8, addend: 0x0, symName: '__ZN4pyo311conversions3std6string82_$LT$impl$u20$pyo3..conversion..IntoPyObject$u20$for$u20$alloc..string..String$GT$13into_pyobject17hbd40f5d65d38dfb8E', symObjAddr: 0x3D88, symBinAddr: 0x3CE78, symSize: 0x74 }
  - { offset: 0xF2D0B, size: 0x8, addend: 0x0, symName: __ZN8pyo3_ffi13unicodeobject15PyUnicode_Check17h5b69dced4cdc732eE, symObjAddr: 0x72CC, symBinAddr: 0x3E294, symSize: 0x30 }
  - { offset: 0xF3390, size: 0x8, addend: 0x0, symName: __ZN4core3ffi5c_str4CStr6as_ptr17hafbf8ca0be26036cE, symObjAddr: 0x1CC0, symBinAddr: 0x3C0E8, symSize: 0x18 }
  - { offset: 0xF34C9, size: 0x8, addend: 0x0, symName: '__ZN4core3fmt2rt38_$LT$impl$u20$core..fmt..Arguments$GT$6new_v117h174bbf8283ab7069E', symObjAddr: 0x1DEC, symBinAddr: 0x3C100, symSize: 0x4C }
  - { offset: 0xF352D, size: 0x8, addend: 0x0, symName: '__ZN4core3fmt2rt38_$LT$impl$u20$core..fmt..Arguments$GT$6new_v117h5cb1e90a7d36be8aE', symObjAddr: 0x1E38, symBinAddr: 0x3C14C, symSize: 0x54 }
  - { offset: 0xF3591, size: 0x8, addend: 0x0, symName: '__ZN4core3fmt2rt38_$LT$impl$u20$core..fmt..Arguments$GT$6new_v117h867de95e168c3e16E', symObjAddr: 0x1E8C, symBinAddr: 0x3C1A0, symSize: 0x50 }
  - { offset: 0xF3629, size: 0x8, addend: 0x0, symName: '__ZN4core3fmt2rt38_$LT$impl$u20$core..fmt..Arguments$GT$6new_v117ha3b94266a10efe8fE', symObjAddr: 0x1F2C, symBinAddr: 0x3C1F0, symSize: 0x54 }
  - { offset: 0xF3659, size: 0x8, addend: 0x0, symName: '__ZN4core3fmt2rt38_$LT$impl$u20$core..fmt..Arguments$GT$6new_v117he783acdf7d6d2fbeE', symObjAddr: 0x1F80, symBinAddr: 0x3C244, symSize: 0x54 }
  - { offset: 0xF36A3, size: 0x8, addend: 0x0, symName: '__ZN4core3fmt2rt38_$LT$impl$u20$core..fmt..Arguments$GT$6new_v117hf3dd07b98cc1abb6E', symObjAddr: 0x1FD4, symBinAddr: 0x3C298, symSize: 0x54 }
  - { offset: 0xF3731, size: 0x8, addend: 0x0, symName: __ZN4core3fmt9Formatter9write_fmt17h74fd80e2688217eeE, symObjAddr: 0x204C, symBinAddr: 0x3C310, symSize: 0x17C }
  - { offset: 0xF3859, size: 0x8, addend: 0x0, symName: __ZN4pyo33err10cast_error13CastIntoError10into_inner17h474e050882b770f5E, symObjAddr: 0x41DC, symBinAddr: 0x3D01C, symSize: 0x38 }
  - { offset: 0xF387B, size: 0x8, addend: 0x0, symName: __ZN4pyo33err10cast_error13CastIntoError3new17h55adf0b08eb11ef5E, symObjAddr: 0x4214, symBinAddr: 0x3D054, symSize: 0x1C }
  - { offset: 0xF38AB, size: 0x8, addend: 0x0, symName: __ZN4pyo33err10cast_error9CastError3new17h3f071a8782dbba79E, symObjAddr: 0x4230, symBinAddr: 0x3D070, symSize: 0x1C }
  - { offset: 0xF3BBF, size: 0x8, addend: 0x0, symName: __ZN5alloc6string6String4push17h3a73cb1d62f74968E, symObjAddr: 0x593C, symBinAddr: 0x3D3F0, symSize: 0x13C }
  - { offset: 0xF3E81, size: 0x8, addend: 0x0, symName: __ZN5alloc6string6String6as_str17h10208b93399ea88aE, symObjAddr: 0x5A78, symBinAddr: 0x3D52C, symSize: 0x78 }
  - { offset: 0xF404F, size: 0x8, addend: 0x0, symName: __ZN5alloc6string6String8push_str17ha1ee164fb532ef7cE, symObjAddr: 0x5B14, symBinAddr: 0x3D5A4, symSize: 0x50 }
  - { offset: 0xF5AC0, size: 0x8, addend: 0x0, symName: '__ZN145_$LT$core..option..Option$LT$T$GT$$u20$as$u20$core..ops..try_trait..FromResidual$LT$core..option..Option$LT$core..convert..Infallible$GT$$GT$$GT$13from_residual17h5c064770c4abaa9aE', symObjAddr: 0x60, symBinAddr: 0x3E2C4, symSize: 0x10 }
  - { offset: 0xF5BF0, size: 0x8, addend: 0x0, symName: '__ZN75_$LT$core..option..Option$LT$T$GT$$u20$as$u20$core..ops..try_trait..Try$GT$6branch17he9ce3b1cb20536e4E', symObjAddr: 0x6360, symBinAddr: 0x40414, symSize: 0x40 }
  - { offset: 0xF6F95, size: 0x8, addend: 0x0, symName: '__ZN66_$LT$core..option..Option$LT$T$GT$$u20$as$u20$core..fmt..Debug$GT$3fmt17h165ef8a3c19fe43fE', symObjAddr: 0x5F98, symBinAddr: 0x40374, symSize: 0xA0 }
  - { offset: 0xF7451, size: 0x8, addend: 0x0, symName: '__ZN4core3fmt8builders11DebugStruct10field_with28_$u7b$$u7b$closure$u7d$$u7d$17h187d96ac90c1641bE', symObjAddr: 0x133C, symBinAddr: 0x3ED54, symSize: 0x360 }
  - { offset: 0xF83F9, size: 0x8, addend: 0x0, symName: '__ZN4core5slice4iter87_$LT$impl$u20$core..iter..traits..collect..IntoIterator$u20$for$u20$$RF$$u5b$T$u5d$$GT$9into_iter17h0f92bb520c4808d2E', symObjAddr: 0x2284, symBinAddr: 0x3F0D0, symSize: 0x50 }
  - { offset: 0xF8570, size: 0x8, addend: 0x0, symName: '__ZN4core3str21_$LT$impl$u20$str$GT$3len17h2406a2afceb4d442E', symObjAddr: 0x1F44, symBinAddr: 0x3F0B4, symSize: 0x1C }
  - { offset: 0xF8959, size: 0x8, addend: 0x0, symName: '__ZN78_$LT$std..io..error..repr_bitpacked..Repr$u20$as$u20$core..ops..drop..Drop$GT$4drop28_$u7b$$u7b$closure$u7d$$u7d$17hbc785c6030e784caE', symObjAddr: 0x63E8, symBinAddr: 0x4048C, symSize: 0x3C }
  - { offset: 0xF8A0E, size: 0x8, addend: 0x0, symName: '__ZN78_$LT$std..io..error..repr_bitpacked..Repr$u20$as$u20$core..ops..drop..Drop$GT$4drop17h547ef756cb08b373E', symObjAddr: 0x63B0, symBinAddr: 0x40454, symSize: 0x38 }
  - { offset: 0xF8A37, size: 0x8, addend: 0x0, symName: __ZN3std2io5error14repr_bitpacked11decode_repr17h1d4c4738b5d4e4abE, symObjAddr: 0xD4, symBinAddr: 0x3E2D4, symSize: 0x1DC }
  - { offset: 0xF8CA4, size: 0x8, addend: 0x0, symName: '__ZN3std2io5error14repr_bitpacked4Repr4data28_$u7b$$u7b$closure$u7d$$u7d$17h02ba5233082ee278E', symObjAddr: 0xC70, symBinAddr: 0x3EC94, symSize: 0x14 }
  - { offset: 0xF8CDC, size: 0x8, addend: 0x0, symName: __ZN3std2io5error14repr_bitpacked11decode_repr17h5a73bf5d727bc618E, symObjAddr: 0x2B0, symBinAddr: 0x3E4B0, symSize: 0x1DC }
  - { offset: 0xF8F38, size: 0x8, addend: 0x0, symName: __ZN3std2io5error14repr_bitpacked14kind_from_prim17hb3047cc0d7cb9a83E, symObjAddr: 0x668, symBinAddr: 0x3E68C, symSize: 0x608 }
  - { offset: 0xF9F9B, size: 0x8, addend: 0x0, symName: '__ZN4pyo311conversions3std6string68_$LT$impl$u20$pyo3..conversion..IntoPyObject$u20$for$u20$$RF$str$GT$13into_pyobject17h82b2310994039dc2E', symObjAddr: 0x4F48, symBinAddr: 0x3FF28, symSize: 0x28 }
  - { offset: 0xFB627, size: 0x8, addend: 0x0, symName: __ZN4core3fmt8builders11DebugStruct10field_with17hcc2db9a91d10a650E, symObjAddr: 0x1290, symBinAddr: 0x3ECA8, symSize: 0xAC }
  - { offset: 0xFB91D, size: 0x8, addend: 0x0, symName: '__ZN4core6option15Option$LT$T$GT$11map_or_else17h05838254a5916a00E', symObjAddr: 0x26D0, symBinAddr: 0x3F120, symSize: 0xD4 }
  - { offset: 0xFB9A1, size: 0x8, addend: 0x0, symName: '__ZN4core6option15Option$LT$T$GT$11map_or_else17h1551088ea7136aafE', symObjAddr: 0x27A4, symBinAddr: 0x3F1F4, symSize: 0xCC }
  - { offset: 0xFBACB, size: 0x8, addend: 0x0, symName: '__ZN4core6option15Option$LT$T$GT$11map_or_else17hfffc2814382d857aE', symObjAddr: 0x2C94, symBinAddr: 0x3F2C0, symSize: 0xCC }
  - { offset: 0xFBB60, size: 0x8, addend: 0x0, symName: '__ZN4core6option15Option$LT$T$GT$14unwrap_or_else17h0801c67a2e208b00E', symObjAddr: 0x2D60, symBinAddr: 0x3F38C, symSize: 0x6C }
  - { offset: 0xFBBC3, size: 0x8, addend: 0x0, symName: '__ZN4core6option15Option$LT$T$GT$14unwrap_or_else17h5430b10efdb90ef2E', symObjAddr: 0x2DCC, symBinAddr: 0x3F3F8, symSize: 0x5C }
  - { offset: 0xFBC3F, size: 0x8, addend: 0x0, symName: '__ZN4core6option15Option$LT$T$GT$14unwrap_or_else17h8cf23b62f17704d9E', symObjAddr: 0x2E84, symBinAddr: 0x3F454, symSize: 0x70 }
  - { offset: 0xFBCA2, size: 0x8, addend: 0x0, symName: '__ZN4core6option15Option$LT$T$GT$14unwrap_or_else17hd3e9b3916486fc48E', symObjAddr: 0x2EF4, symBinAddr: 0x3F4C4, symSize: 0x6C }
  - { offset: 0xFBD1F, size: 0x8, addend: 0x0, symName: '__ZN4core6option15Option$LT$T$GT$16unwrap_unchecked17h1b6b987fae89b28eE', symObjAddr: 0x3008, symBinAddr: 0x3F530, symSize: 0x4C }
  - { offset: 0xFBD60, size: 0x8, addend: 0x0, symName: '__ZN4core6option15Option$LT$T$GT$16unwrap_unchecked17ha5ce04cd4ceecc32E', symObjAddr: 0x314C, symBinAddr: 0x3F57C, symSize: 0x4C }
  - { offset: 0xFBDA1, size: 0x8, addend: 0x0, symName: '__ZN4core6option15Option$LT$T$GT$16unwrap_unchecked17hc395ebf31973d69cE', symObjAddr: 0x3254, symBinAddr: 0x3F5C8, symSize: 0x5C }
  - { offset: 0xFBDE3, size: 0x8, addend: 0x0, symName: '__ZN4core6option15Option$LT$T$GT$16unwrap_unchecked17hc7ef496316454b1eE', symObjAddr: 0x32B0, symBinAddr: 0x3F624, symSize: 0x60 }
  - { offset: 0xFBE25, size: 0x8, addend: 0x0, symName: '__ZN4core6option15Option$LT$T$GT$16unwrap_unchecked17hfb11ab882c30b6e0E', symObjAddr: 0x335C, symBinAddr: 0x3F684, symSize: 0x5C }
  - { offset: 0xFBE85, size: 0x8, addend: 0x0, symName: '__ZN4core6option15Option$LT$T$GT$3map17h0f85901b1417c977E', symObjAddr: 0x341C, symBinAddr: 0x3F6E0, symSize: 0x50 }
  - { offset: 0xFBF08, size: 0x8, addend: 0x0, symName: '__ZN4core6option15Option$LT$T$GT$3map17h2725d779264bf384E', symObjAddr: 0x34E8, symBinAddr: 0x3F730, symSize: 0x5C }
  - { offset: 0xFBF8B, size: 0x8, addend: 0x0, symName: '__ZN4core6option15Option$LT$T$GT$3map17h8721e80324da667cE', symObjAddr: 0x3544, symBinAddr: 0x3F78C, symSize: 0x7C }
  - { offset: 0xFBFF6, size: 0x8, addend: 0x0, symName: '__ZN4core6option15Option$LT$T$GT$3map17h8cb6b1e9ca0a0ebfE', symObjAddr: 0x35C0, symBinAddr: 0x3F808, symSize: 0x84 }
  - { offset: 0xFC07A, size: 0x8, addend: 0x0, symName: '__ZN4core6option15Option$LT$T$GT$3map17hd0811a2d6935fb8aE', symObjAddr: 0x378C, symBinAddr: 0x3F88C, symSize: 0x50 }
  - { offset: 0xFC0E5, size: 0x8, addend: 0x0, symName: '__ZN4core6option15Option$LT$T$GT$3map17hfe8459812bc35064E', symObjAddr: 0x37DC, symBinAddr: 0x3F8DC, symSize: 0x78 }
  - { offset: 0xFC16A, size: 0x8, addend: 0x0, symName: '__ZN4core6option15Option$LT$T$GT$4take17h1fa41375dac06efbE', symObjAddr: 0x38D0, symBinAddr: 0x3F954, symSize: 0x5C }
  - { offset: 0xFC1C1, size: 0x8, addend: 0x0, symName: '__ZN4core6option15Option$LT$T$GT$4take17h28b0abbb3bcd01f5E', symObjAddr: 0x392C, symBinAddr: 0x3F9B0, symSize: 0x5C }
  - { offset: 0xFC218, size: 0x8, addend: 0x0, symName: '__ZN4core6option15Option$LT$T$GT$4take17h4a54b60afeb88b5fE', symObjAddr: 0x3988, symBinAddr: 0x3FA0C, symSize: 0x3C }
  - { offset: 0xFC26F, size: 0x8, addend: 0x0, symName: '__ZN4core6option15Option$LT$T$GT$4take17hbcae0d628fbdc0d6E', symObjAddr: 0x3AF8, symBinAddr: 0x3FA48, symSize: 0x3C }
  - { offset: 0xFC2C6, size: 0x8, addend: 0x0, symName: '__ZN4core6option15Option$LT$T$GT$6as_ref17h0cc02e1c673bb9a8E', symObjAddr: 0x3BB4, symBinAddr: 0x3FA84, symSize: 0x4C }
  - { offset: 0xFC32A, size: 0x8, addend: 0x0, symName: '__ZN4core6option15Option$LT$T$GT$6as_ref17h1173f979fbc01c19E', symObjAddr: 0x3C4C, symBinAddr: 0x3FAD0, symSize: 0x4C }
  - { offset: 0xFC38E, size: 0x8, addend: 0x0, symName: '__ZN4core6option15Option$LT$T$GT$6as_ref17h2a4129349453f26dE', symObjAddr: 0x3CE4, symBinAddr: 0x3FB1C, symSize: 0x4C }
  - { offset: 0xFC426, size: 0x8, addend: 0x0, symName: '__ZN4core6option15Option$LT$T$GT$6as_ref17he50c83245c4a17a9E', symObjAddr: 0x3DC8, symBinAddr: 0x3FB68, symSize: 0x4C }
  - { offset: 0xFC47D, size: 0x8, addend: 0x0, symName: '__ZN4core6option15Option$LT$T$GT$6as_ref17hedf298c9581345f7E', symObjAddr: 0x3E14, symBinAddr: 0x3FBB4, symSize: 0x4C }
  - { offset: 0xFC4C7, size: 0x8, addend: 0x0, symName: '__ZN4core6option15Option$LT$T$GT$6expect17h085de32b57afa6d9E', symObjAddr: 0x3E60, symBinAddr: 0x3FC00, symSize: 0x60 }
  - { offset: 0xFC503, size: 0x8, addend: 0x0, symName: '__ZN4core6option15Option$LT$T$GT$6expect17h3eaaad3aee3196b8E', symObjAddr: 0x3EC0, symBinAddr: 0x3FC60, symSize: 0x5C }
  - { offset: 0xFC556, size: 0x8, addend: 0x0, symName: '__ZN4core6option15Option$LT$T$GT$6map_or17h5ca3efad30190497E', symObjAddr: 0x3F78, symBinAddr: 0x3FCBC, symSize: 0xA8 }
  - { offset: 0xFC5E0, size: 0x8, addend: 0x0, symName: '__ZN4core6option15Option$LT$T$GT$6map_or17h730d36f947819d60E', symObjAddr: 0x4020, symBinAddr: 0x3FD64, symSize: 0xA8 }
  - { offset: 0xFC682, size: 0x8, addend: 0x0, symName: '__ZN4core6option15Option$LT$T$GT$6map_or17hb83daba1c23ce5d8E', symObjAddr: 0x417C, symBinAddr: 0x3FE0C, symSize: 0xA8 }
  - { offset: 0xFC71D, size: 0x8, addend: 0x0, symName: '__ZN4core6option15Option$LT$T$GT$7is_none17h97bff39d4ce98ccbE', symObjAddr: 0x4274, symBinAddr: 0x3FEB4, symSize: 0x28 }
  - { offset: 0xFC774, size: 0x8, addend: 0x0, symName: '__ZN4core6option15Option$LT$T$GT$7is_some17h180b6a771dc9ef8eE', symObjAddr: 0x4308, symBinAddr: 0x3FEDC, symSize: 0x28 }
  - { offset: 0xFC7BA, size: 0x8, addend: 0x0, symName: '__ZN4core6option15Option$LT$T$GT$7replace17h8fdcd1f57f1d0f66E', symObjAddr: 0x4380, symBinAddr: 0x3FF04, symSize: 0x24 }
  - { offset: 0xFC83A, size: 0x8, addend: 0x0, symName: __ZN4pyo36marker6Python15assume_attached17hc105834dcb638580E, symObjAddr: 0x5538, symBinAddr: 0x3FF50, symSize: 0x4 }
  - { offset: 0xFC84D, size: 0x8, addend: 0x0, symName: __ZN4pyo36marker6Python4None17h5b062fd75ba33565E, symObjAddr: 0x56E4, symBinAddr: 0x3FF54, symSize: 0x28 }
  - { offset: 0xFC889, size: 0x8, addend: 0x0, symName: __ZN4pyo36marker6Python6attach17h151514250ef17d32E, symObjAddr: 0x5814, symBinAddr: 0x3FF7C, symSize: 0xE8 }
  - { offset: 0xFC8D4, size: 0x8, addend: 0x0, symName: __ZN4pyo36marker6Python6attach17h77a56f4ce79a3c29E, symObjAddr: 0x59D8, symBinAddr: 0x40064, symSize: 0xE8 }
  - { offset: 0xFC91F, size: 0x8, addend: 0x0, symName: __ZN4pyo36marker6Python6attach17h9462c8bb341b3626E, symObjAddr: 0x5AC0, symBinAddr: 0x4014C, symSize: 0xF4 }
  - { offset: 0xFC992, size: 0x8, addend: 0x0, symName: __ZN4pyo36marker6Python6detach17h589979c4e806056bE, symObjAddr: 0x5C9C, symBinAddr: 0x40240, symSize: 0xB0 }
  - { offset: 0xFCA00, size: 0x8, addend: 0x0, symName: __ZN4pyo36marker6Python6import17h2f06df029bc71572E, symObjAddr: 0x5D4C, symBinAddr: 0x402F0, symSize: 0x24 }
  - { offset: 0xFCA47, size: 0x8, addend: 0x0, symName: __ZN4pyo36marker6Python6import17hdc61c68f607c7164E, symObjAddr: 0x5D70, symBinAddr: 0x40314, symSize: 0x28 }
  - { offset: 0xFCA8E, size: 0x8, addend: 0x0, symName: __ZN4pyo36marker6Python8get_type17h219e30a4ca9df663E, symObjAddr: 0x5DE4, symBinAddr: 0x4033C, symSize: 0x1C }
  - { offset: 0xFCAC6, size: 0x8, addend: 0x0, symName: __ZN4pyo36marker6Python8get_type17hc62132a16fd04ca3E, symObjAddr: 0x5E00, symBinAddr: 0x40358, symSize: 0x1C }
  - { offset: 0xFCB9A, size: 0x8, addend: 0x0, symName: '__ZN103_$LT$alloc..vec..into_iter..IntoIter$LT$T$C$A$GT$$u20$as$u20$core..iter..traits..iterator..Iterator$GT$4next17h9c42bec82682e098E', symObjAddr: 0x0, symBinAddr: 0x404C8, symSize: 0xAC }
  - { offset: 0xFE2AD, size: 0x8, addend: 0x0, symName: '__ZN4core3ptr101drop_in_place$LT$core..result..Result$LT$alloc..borrow..Cow$LT$str$GT$$C$$RF$pyo3..err..PyErr$GT$$GT$17h6faa6f2ede085c3eE', symObjAddr: 0x2F4C, symBinAddr: 0x413F8, symSize: 0x4C }
  - { offset: 0xFE2DC, size: 0x8, addend: 0x0, symName: '__ZN4core3ptr101drop_in_place$LT$std..io..error..ErrorData$LT$alloc..boxed..Box$LT$std..io..error..Custom$GT$$GT$$GT$17hb9146c0d4d32a1d6E', symObjAddr: 0x2FBC, symBinAddr: 0x41444, symSize: 0x48 }
  - { offset: 0xFE30B, size: 0x8, addend: 0x0, symName: '__ZN4core3ptr101drop_in_place$LT$std..sys..sync..once_box..OnceBox$LT$std..sys..pal..unix..sync..mutex..Mutex$GT$$GT$17h313f4cd5e3579c25E', symObjAddr: 0x3004, symBinAddr: 0x4148C, symSize: 0x24 }
  - { offset: 0xFE33A, size: 0x8, addend: 0x0, symName: '__ZN4core3ptr104drop_in_place$LT$core..option..Option$LT$pyo3..instance..Py$LT$pyo3..types..string..PyString$GT$$GT$$GT$17h1a95621666014385E', symObjAddr: 0x3104, symBinAddr: 0x414B0, symSize: 0x44 }
  - { offset: 0xFE369, size: 0x8, addend: 0x0, symName: '__ZN4core3ptr106drop_in_place$LT$alloc..vec..Vec$LT$core..ptr..non_null..NonNull$LT$pyo3_ffi..object..PyObject$GT$$GT$$GT$17h7f3eb3e923a8da38E', symObjAddr: 0x3148, symBinAddr: 0x414F4, symSize: 0x5C }
  - { offset: 0xFE398, size: 0x8, addend: 0x0, symName: '__ZN4core3ptr106drop_in_place$LT$core..option..Option$LT$pyo3..instance..Py$LT$pyo3..types..typeobject..PyType$GT$$GT$$GT$17he0418b5d17a2304fE', symObjAddr: 0x31A4, symBinAddr: 0x41550, symSize: 0x44 }
  - { offset: 0xFE3C7, size: 0x8, addend: 0x0, symName: '__ZN4core3ptr107drop_in_place$LT$core..option..Option$LT$pyo3..instance..Bound$LT$pyo3..types..string..PyString$GT$$GT$$GT$17haf25e10a540be18eE', symObjAddr: 0x320C, symBinAddr: 0x41594, symSize: 0x44 }
  - { offset: 0xFE3F6, size: 0x8, addend: 0x0, symName: '__ZN4core3ptr107drop_in_place$LT$core..pin..Pin$LT$alloc..boxed..Box$LT$std..sys..pal..unix..sync..mutex..Mutex$GT$$GT$$GT$17h62ebe8af1e99c8c2E', symObjAddr: 0x3250, symBinAddr: 0x415D8, symSize: 0x24 }
  - { offset: 0xFE425, size: 0x8, addend: 0x0, symName: '__ZN4core3ptr108drop_in_place$LT$core..option..Option$LT$pyo3..instance..Py$LT$pyo3..exceptions..PyBaseException$GT$$GT$$GT$17h034f267534de5d69E', symObjAddr: 0x32B4, symBinAddr: 0x415FC, symSize: 0x44 }
  - { offset: 0xFE454, size: 0x8, addend: 0x0, symName: '__ZN4core3ptr109drop_in_place$LT$core..iter..adapters..enumerate..Enumerate$LT$pyo3..types..tuple..BoundTupleIterator$GT$$GT$17hf66e046dabe3a26aE', symObjAddr: 0x3360, symBinAddr: 0x41640, symSize: 0x24 }
  - { offset: 0xFE483, size: 0x8, addend: 0x0, symName: '__ZN4core3ptr109drop_in_place$LT$std..sync..poison..mutex..Mutex$LT$core..option..Option$LT$std..thread..ThreadId$GT$$GT$$GT$17hd1027c042f94e2e3E', symObjAddr: 0x33A8, symBinAddr: 0x41664, symSize: 0x24 }
  - { offset: 0xFE4B2, size: 0x8, addend: 0x0, symName: '__ZN4core3ptr113drop_in_place$LT$alloc..raw_vec..RawVec$LT$core..ptr..non_null..NonNull$LT$pyo3_ffi..object..PyObject$GT$$GT$$GT$17h665d5d6bc5d5f480E', symObjAddr: 0x34F4, symBinAddr: 0x41688, symSize: 0x24 }
  - { offset: 0xFE4E1, size: 0x8, addend: 0x0, symName: '__ZN4core3ptr114drop_in_place$LT$std..sync..poison..mutex..MutexGuard$LT$core..option..Option$LT$std..thread..ThreadId$GT$$GT$$GT$17h6c3f65da18509c66E', symObjAddr: 0x3560, symBinAddr: 0x416AC, symSize: 0x24 }
  - { offset: 0xFE510, size: 0x8, addend: 0x0, symName: '__ZN4core3ptr116drop_in_place$LT$core..cell..UnsafeCell$LT$core..option..Option$LT$pyo3..err..err_state..PyErrStateInner$GT$$GT$$GT$17h082d031c4b32e717E', symObjAddr: 0x3584, symBinAddr: 0x416D0, symSize: 0x24 }
  - { offset: 0xFE53F, size: 0x8, addend: 0x0, symName: '__ZN4core3ptr118drop_in_place$LT$alloc..boxed..Box$LT$dyn$u20$core..error..Error$u2b$core..marker..Sync$u2b$core..marker..Send$GT$$GT$17hb10a028423c6519cE', symObjAddr: 0x36D4, symBinAddr: 0x416F4, symSize: 0x80 }
  - { offset: 0xFE56E, size: 0x8, addend: 0x0, symName: '__ZN4core3ptr118drop_in_place$LT$core..array..iter..IntoIter$LT$pyo3..instance..Bound$LT$pyo3..types..any..PyAny$GT$$C$1_usize$GT$$GT$17h01edccdeddb58ab2E', symObjAddr: 0x3754, symBinAddr: 0x41774, symSize: 0x5C }
  - { offset: 0xFE59D, size: 0x8, addend: 0x0, symName: '__ZN4core3ptr122drop_in_place$LT$alloc..vec..into_iter..IntoIter$LT$core..ptr..non_null..NonNull$LT$pyo3_ffi..object..PyObject$GT$$GT$$GT$17hc19dd251eb47e99aE', symObjAddr: 0x38E4, symBinAddr: 0x417D0, symSize: 0x24 }
  - { offset: 0xFE5CC, size: 0x8, addend: 0x0, symName: '__ZN4core3ptr126drop_in_place$LT$core..result..Result$LT$pyo3..instance..Bound$LT$pyo3..types..string..PyString$GT$$C$pyo3..err..PyErr$GT$$GT$17h9ec8899d8334ef39E', symObjAddr: 0x39C4, symBinAddr: 0x417F4, symSize: 0x50 }
  - { offset: 0xFE5FB, size: 0x8, addend: 0x0, symName: '__ZN4core3ptr132drop_in_place$LT$pyo3..err..PyErr..new$LT$pyo3..exceptions..PyTypeError$C$alloc..string..String$GT$..$u7b$$u7b$closure$u7d$$u7d$$GT$17h70370af99ed20a0aE', symObjAddr: 0x3ADC, symBinAddr: 0x41844, symSize: 0x24 }
  - { offset: 0xFE62A, size: 0x8, addend: 0x0, symName: '__ZN4core3ptr133drop_in_place$LT$pyo3..err..PyErr..new$LT$pyo3..exceptions..PyValueError$C$alloc..string..String$GT$..$u7b$$u7b$closure$u7d$$u7d$$GT$17hdc4a1521d5548442E', symObjAddr: 0x3B00, symBinAddr: 0x41868, symSize: 0x24 }
  - { offset: 0xFE659, size: 0x8, addend: 0x0, symName: '__ZN4core3ptr135drop_in_place$LT$core..option..Option$LT$core..pin..Pin$LT$alloc..boxed..Box$LT$std..sys..pal..unix..sync..mutex..Mutex$GT$$GT$$GT$$GT$17hd0ce97c1571a20b1E', symObjAddr: 0x3B6C, symBinAddr: 0x4188C, symSize: 0x44 }
  - { offset: 0xFE688, size: 0x8, addend: 0x0, symName: '__ZN4core3ptr136drop_in_place$LT$pyo3..err..PyErr..new$LT$pyo3..exceptions..PyOverflowError$C$alloc..string..String$GT$..$u7b$$u7b$closure$u7d$$u7d$$GT$17h8e053a643dcd2822E', symObjAddr: 0x3C40, symBinAddr: 0x418D0, symSize: 0x24 }
  - { offset: 0xFE6B7, size: 0x8, addend: 0x0, symName: '__ZN4core3ptr139drop_in_place$LT$core..result..Result$LT$pyo3..instance..Borrowed$LT$pyo3..types..num..PyInt$GT$$C$pyo3..err..cast_error..CastError$GT$$GT$17he678878b4c5f9686E', symObjAddr: 0x3D3C, symBinAddr: 0x418F4, symSize: 0x44 }
  - { offset: 0xFE6E6, size: 0x8, addend: 0x0, symName: '__ZN4core3ptr141drop_in_place$LT$pyo3..err..PyErr..new$LT$pyo3..panic..PanicException$C$$LP$alloc..string..String$C$$RP$$GT$..$u7b$$u7b$closure$u7d$$u7d$$GT$17h3687622afe974594E', symObjAddr: 0x3E58, symBinAddr: 0x41938, symSize: 0x24 }
  - { offset: 0xFE715, size: 0x8, addend: 0x0, symName: '__ZN4core3ptr143drop_in_place$LT$core..result..Result$LT$pyo3..instance..Borrowed$LT$pyo3..types..float..PyFloat$GT$$C$pyo3..err..cast_error..CastError$GT$$GT$17h223f0fdb7f815acdE', symObjAddr: 0x3EE4, symBinAddr: 0x4195C, symSize: 0x44 }
  - { offset: 0xFE744, size: 0x8, addend: 0x0, symName: '__ZN4core3ptr144drop_in_place$LT$core..result..Result$LT$$RF$pyo3..instance..Bound$LT$pyo3..types..tuple..PyTuple$GT$$C$pyo3..err..cast_error..CastError$GT$$GT$17hf1e1b7b637176f41E', symObjAddr: 0x3F4C, symBinAddr: 0x419A0, symSize: 0x44 }
  - { offset: 0xFE773, size: 0x8, addend: 0x0, symName: '__ZN4core3ptr148drop_in_place$LT$core..result..Result$LT$$RF$pyo3..instance..Bound$LT$pyo3..types..typeobject..PyType$GT$$C$pyo3..err..cast_error..CastError$GT$$GT$17h2d25189d734ffa9eE', symObjAddr: 0x40E8, symBinAddr: 0x419E4, symSize: 0x44 }
  - { offset: 0xFE7A2, size: 0x8, addend: 0x0, symName: '__ZN4core3ptr150drop_in_place$LT$std..sync..poison..mutex..MutexGuard$LT$alloc..vec..Vec$LT$core..ptr..non_null..NonNull$LT$pyo3_ffi..object..PyObject$GT$$GT$$GT$$GT$17h56bd244e1e9f0d2fE', symObjAddr: 0x4150, symBinAddr: 0x41A28, symSize: 0x24 }
  - { offset: 0xFE7D1, size: 0x8, addend: 0x0, symName: '__ZN4core3ptr152drop_in_place$LT$pyo3..err..PyErr..new$LT$pyo3..exceptions..PyTypeError$C$pyo3..err..cast_error..CastErrorArguments$GT$..$u7b$$u7b$closure$u7d$$u7d$$GT$17ha6337b3c76fd7e3cE', symObjAddr: 0x41B8, symBinAddr: 0x41A4C, symSize: 0x24 }
  - { offset: 0xFE800, size: 0x8, addend: 0x0, symName: '__ZN4core3ptr152drop_in_place$LT$std..sync..poison..PoisonError$LT$std..sync..poison..mutex..MutexGuard$LT$core..option..Option$LT$std..thread..ThreadId$GT$$GT$$GT$$GT$17hd0428a9e307d37a2E', symObjAddr: 0x41DC, symBinAddr: 0x41A70, symSize: 0x24 }
  - { offset: 0xFE82F, size: 0x8, addend: 0x0, symName: '__ZN4core3ptr155drop_in_place$LT$pyo3..err..err_state..PyErrState..lazy_arguments$LT$pyo3..instance..Py$LT$pyo3..types..any..PyAny$GT$$GT$..$u7b$$u7b$closure$u7d$$u7d$$GT$17h688d83bb111ae6e3E', symObjAddr: 0x4224, symBinAddr: 0x41A94, symSize: 0x60 }
  - { offset: 0xFE85E, size: 0x8, addend: 0x0, symName: '__ZN4core3ptr157drop_in_place$LT$pyo3..err..err_state..PyErrState..make_normalized..$u7b$$u7b$closure$u7d$$u7d$..$u7b$$u7b$closure$u7d$$u7d$..$u7b$$u7b$closure$u7d$$u7d$$GT$17h277938f7bfb187d1E', symObjAddr: 0x4284, symBinAddr: 0x41AF4, symSize: 0x24 }
  - { offset: 0xFE88D, size: 0x8, addend: 0x0, symName: '__ZN4core3ptr168drop_in_place$LT$core..iter..adapters..enumerate..Enumerate$LT$core..array..iter..IntoIter$LT$pyo3..instance..Bound$LT$pyo3..types..any..PyAny$GT$$C$1_usize$GT$$GT$$GT$17h8fe9ca544a74eedcE', symObjAddr: 0x42F0, symBinAddr: 0x41B18, symSize: 0x24 }
  - { offset: 0xFE8BC, size: 0x8, addend: 0x0, symName: '__ZN4core3ptr188drop_in_place$LT$std..sync..poison..PoisonError$LT$std..sync..poison..mutex..MutexGuard$LT$alloc..vec..Vec$LT$core..ptr..non_null..NonNull$LT$pyo3_ffi..object..PyObject$GT$$GT$$GT$$GT$$GT$17h0fffb7e228c02264E', symObjAddr: 0x435C, symBinAddr: 0x41B3C, symSize: 0x24 }
  - { offset: 0xFE8EB, size: 0x8, addend: 0x0, symName: '__ZN4core3ptr192drop_in_place$LT$core..array..iter..iter_inner..PolymorphicIter$LT$$u5b$core..mem..maybe_uninit..MaybeUninit$LT$pyo3..instance..Bound$LT$pyo3..types..any..PyAny$GT$$GT$$u3b$$u20$1$u5d$$GT$$GT$17h53d7a357717e041dE', symObjAddr: 0x4380, symBinAddr: 0x41B60, symSize: 0x24 }
  - { offset: 0xFE91A, size: 0x8, addend: 0x0, symName: '__ZN4core3ptr216drop_in_place$LT$$LT$alloc..vec..into_iter..IntoIter$LT$T$C$A$GT$$u20$as$u20$core..ops..drop..Drop$GT$..drop..DropGuard$LT$core..ptr..non_null..NonNull$LT$pyo3_ffi..object..PyObject$GT$$C$alloc..alloc..Global$GT$$GT$17h3b22150c2b438110E', symObjAddr: 0x4458, symBinAddr: 0x41B84, symSize: 0x24 }
  - { offset: 0xFE949, size: 0x8, addend: 0x0, symName: '__ZN4core3ptr219drop_in_place$LT$pyo3..sync..once_lock..init_once_cell_py_attached$LT$pyo3..sync..Interned..get..$u7b$$u7b$closure$u7d$$u7d$$C$pyo3..instance..Py$LT$pyo3..types..string..PyString$GT$$GT$..$u7b$$u7b$closure$u7d$$u7d$$GT$17hd29da9362ae097b9E', symObjAddr: 0x447C, symBinAddr: 0x41BA8, symSize: 0x24 }
  - { offset: 0xFE978, size: 0x8, addend: 0x0, symName: '__ZN4core3ptr236drop_in_place$LT$alloc..boxed..Box$LT$dyn$u20$core..ops..function..FnOnce$LT$$LP$pyo3..marker..Python$C$$RP$$GT$$u2b$Output$u20$$u3d$$u20$pyo3..err..err_state..PyErrStateLazyFnOutput$u2b$core..marker..Sync$u2b$core..marker..Send$GT$$GT$17hb6a1c5efb8e08ddeE', symObjAddr: 0x44A0, symBinAddr: 0x41BCC, symSize: 0x80 }
  - { offset: 0xFE9A7, size: 0x8, addend: 0x0, symName: '__ZN4core3ptr289drop_in_place$LT$pyo3..sync..once_lock..init_once_cell_py_attached$LT$$LT$pyo3..panic..PanicException$u20$as$u20$pyo3..type_object..PyTypeInfo$GT$..type_object_raw..$u7b$$u7b$closure$u7d$$u7d$$C$pyo3..instance..Py$LT$pyo3..types..typeobject..PyType$GT$$GT$..$u7b$$u7b$closure$u7d$$u7d$$GT$17hce259a3b58be8a11E', symObjAddr: 0x45B0, symBinAddr: 0x41C4C, symSize: 0x24 }
  - { offset: 0xFE9D6, size: 0x8, addend: 0x0, symName: '__ZN4core3ptr325drop_in_place$LT$pyo3..sync..once_lock..try_init_once_cell_py_attached$LT$pyo3..sync..once_lock..PyOnceLock$LT$pyo3..instance..Py$LT$pyo3..types..typeobject..PyType$GT$$GT$..import..$u7b$$u7b$closure$u7d$$u7d$$C$pyo3..instance..Py$LT$pyo3..types..typeobject..PyType$GT$$C$pyo3..err..PyErr$GT$..$u7b$$u7b$closure$u7d$$u7d$$GT$17h5086699ca4a5bcc1E', symObjAddr: 0x46C8, symBinAddr: 0x41C70, symSize: 0x24 }
  - { offset: 0xFEA05, size: 0x8, addend: 0x0, symName: '__ZN4core3ptr353drop_in_place$LT$core..option..Option$LT$pyo3..sync..once_lock..try_init_once_cell_py_attached$LT$pyo3..sync..once_lock..PyOnceLock$LT$pyo3..instance..Py$LT$pyo3..types..typeobject..PyType$GT$$GT$..import..$u7b$$u7b$closure$u7d$$u7d$$C$pyo3..instance..Py$LT$pyo3..types..typeobject..PyType$GT$$C$pyo3..err..PyErr$GT$..$u7b$$u7b$closure$u7d$$u7d$$GT$$GT$17h7a425793d0f8a1e9E', symObjAddr: 0x4774, symBinAddr: 0x41C94, symSize: 0x44 }
  - { offset: 0xFEA34, size: 0x8, addend: 0x0, symName: '__ZN4core3ptr357drop_in_place$LT$once_cell..sync..OnceCell$LT$pyo3..instance..Py$LT$pyo3..types..string..PyString$GT$$GT$..get_or_init$LT$pyo3..sync..once_lock..init_once_cell_py_attached$LT$pyo3..sync..Interned..get..$u7b$$u7b$closure$u7d$$u7d$$C$pyo3..instance..Py$LT$pyo3..types..string..PyString$GT$$GT$..$u7b$$u7b$closure$u7d$$u7d$$GT$..$u7b$$u7b$closure$u7d$$u7d$$GT$17h9cd30a35ffbf0552E', symObjAddr: 0x47B8, symBinAddr: 0x41CD8, symSize: 0x24 }
  - { offset: 0xFEA63, size: 0x8, addend: 0x0, symName: '__ZN4core3ptr37drop_in_place$LT$pyo3..err..PyErr$GT$17he4245839d5253997E', symObjAddr: 0x47DC, symBinAddr: 0x41CFC, symSize: 0x24 }
  - { offset: 0xFEA92, size: 0x8, addend: 0x0, symName: '__ZN4core3ptr385drop_in_place$LT$core..option..Option$LT$once_cell..sync..OnceCell$LT$pyo3..instance..Py$LT$pyo3..types..string..PyString$GT$$GT$..get_or_init$LT$pyo3..sync..once_lock..init_once_cell_py_attached$LT$pyo3..sync..Interned..get..$u7b$$u7b$closure$u7d$$u7d$$C$pyo3..instance..Py$LT$pyo3..types..string..PyString$GT$$GT$..$u7b$$u7b$closure$u7d$$u7d$$GT$..$u7b$$u7b$closure$u7d$$u7d$$GT$$GT$17h44879cf09dca85e8E', symObjAddr: 0x4800, symBinAddr: 0x41D20, symSize: 0x44 }
  - { offset: 0xFEAC1, size: 0x8, addend: 0x0, symName: '__ZN4core3ptr429drop_in_place$LT$once_cell..sync..OnceCell$LT$pyo3..instance..Py$LT$pyo3..types..typeobject..PyType$GT$$GT$..get_or_init$LT$pyo3..sync..once_lock..init_once_cell_py_attached$LT$$LT$pyo3..panic..PanicException$u20$as$u20$pyo3..type_object..PyTypeInfo$GT$..type_object_raw..$u7b$$u7b$closure$u7d$$u7d$$C$pyo3..instance..Py$LT$pyo3..types..typeobject..PyType$GT$$GT$..$u7b$$u7b$closure$u7d$$u7d$$GT$..$u7b$$u7b$closure$u7d$$u7d$$GT$17ha7574b25474598c6E', symObjAddr: 0x488C, symBinAddr: 0x41D64, symSize: 0x24 }
  - { offset: 0xFEAF0, size: 0x8, addend: 0x0, symName: '__ZN4core3ptr42drop_in_place$LT$alloc..string..String$GT$17h6187734902e91b99E', symObjAddr: 0x48B0, symBinAddr: 0x41D88, symSize: 0x24 }
  - { offset: 0xFEB1F, size: 0x8, addend: 0x0, symName: '__ZN4core3ptr42drop_in_place$LT$std..io..error..Error$GT$17h1fade53666697686E', symObjAddr: 0x48D4, symBinAddr: 0x41DAC, symSize: 0x24 }
  - { offset: 0xFEB4E, size: 0x8, addend: 0x0, symName: '__ZN4core3ptr43drop_in_place$LT$std..io..error..Custom$GT$17h0acebba72bb6f0f8E', symObjAddr: 0x48F8, symBinAddr: 0x41DD0, symSize: 0x24 }
  - { offset: 0xFEB7D, size: 0x8, addend: 0x0, symName: '__ZN4core3ptr457drop_in_place$LT$core..option..Option$LT$once_cell..sync..OnceCell$LT$pyo3..instance..Py$LT$pyo3..types..typeobject..PyType$GT$$GT$..get_or_init$LT$pyo3..sync..once_lock..init_once_cell_py_attached$LT$$LT$pyo3..panic..PanicException$u20$as$u20$pyo3..type_object..PyTypeInfo$GT$..type_object_raw..$u7b$$u7b$closure$u7d$$u7d$$C$pyo3..instance..Py$LT$pyo3..types..typeobject..PyType$GT$$GT$..$u7b$$u7b$closure$u7d$$u7d$$GT$..$u7b$$u7b$closure$u7d$$u7d$$GT$$GT$17hbfb4ede2403cd8aeE', symObjAddr: 0x4940, symBinAddr: 0x41DF4, symSize: 0x44 }
  - { offset: 0xFEBAC, size: 0x8, addend: 0x0, symName: '__ZN4core3ptr46drop_in_place$LT$alloc..vec..Vec$LT$u8$GT$$GT$17h8b715e6af825cdf7E', symObjAddr: 0x4984, symBinAddr: 0x41E38, symSize: 0x5C }
  - { offset: 0xFEBDB, size: 0x8, addend: 0x0, symName: '__ZN4core3ptr50drop_in_place$LT$alloc..borrow..Cow$LT$str$GT$$GT$17hebe8209e96973c8eE', symObjAddr: 0x4AF0, symBinAddr: 0x41E94, symSize: 0x48 }
  - { offset: 0xFEC0A, size: 0x8, addend: 0x0, symName: '__ZN4core3ptr50drop_in_place$LT$pyo3..impl_..panic..PanicTrap$GT$17h0826ea47d640c20bE', symObjAddr: 0x4B94, symBinAddr: 0x41EDC, symSize: 0x24 }
  - { offset: 0xFEC39, size: 0x8, addend: 0x0, symName: '__ZN4core3ptr51drop_in_place$LT$alloc..vec..Vec$LT$$RF$str$GT$$GT$17h2c2c251b02a4543eE', symObjAddr: 0x4BB8, symBinAddr: 0x41F00, symSize: 0x5C }
  - { offset: 0xFEC68, size: 0x8, addend: 0x0, symName: '__ZN4core3ptr53drop_in_place$LT$$LP$alloc..string..String$C$$RP$$GT$17hb2cbde0f6c9be648E', symObjAddr: 0x4C14, symBinAddr: 0x41F5C, symSize: 0x24 }
  - { offset: 0xFEC97, size: 0x8, addend: 0x0, symName: '__ZN4core3ptr53drop_in_place$LT$alloc..raw_vec..RawVec$LT$u8$GT$$GT$17h9dd7e592ae977caaE', symObjAddr: 0x4C38, symBinAddr: 0x41F80, symSize: 0x24 }
  - { offset: 0xFECC6, size: 0x8, addend: 0x0, symName: '__ZN4core3ptr53drop_in_place$LT$pyo3..err..cast_error..CastError$GT$17h4de2179820f94365E', symObjAddr: 0x4C5C, symBinAddr: 0x41FA4, symSize: 0x24 }
  - { offset: 0xFECF5, size: 0x8, addend: 0x0, symName: '__ZN4core3ptr53drop_in_place$LT$pyo3..err..err_state..PyErrState$GT$17hdaf2ad6a2233663aE', symObjAddr: 0x4C80, symBinAddr: 0x41FC8, symSize: 0x64 }
  - { offset: 0xFED24, size: 0x8, addend: 0x0, symName: '__ZN4core3ptr55drop_in_place$LT$pyo3..internal..state..AttachGuard$GT$17he83f1bd00f3d9486E', symObjAddr: 0x4D08, symBinAddr: 0x4202C, symSize: 0x60 }
  - { offset: 0xFED53, size: 0x8, addend: 0x0, symName: '__ZN4core3ptr57drop_in_place$LT$pyo3..internal..state..SuspendAttach$GT$17h249eb528f9ee697bE', symObjAddr: 0x4DB0, symBinAddr: 0x4208C, symSize: 0x24 }
  - { offset: 0xFED82, size: 0x8, addend: 0x0, symName: '__ZN4core3ptr57drop_in_place$LT$std..io..error..repr_bitpacked..Repr$GT$17h49a8c55b99ff47e2E', symObjAddr: 0x4DD4, symBinAddr: 0x420B0, symSize: 0x24 }
  - { offset: 0xFEDB1, size: 0x8, addend: 0x0, symName: '__ZN4core3ptr58drop_in_place$LT$alloc..raw_vec..RawVec$LT$$RF$str$GT$$GT$17hbeef2de6de4fe7c0E', symObjAddr: 0x4E24, symBinAddr: 0x420D4, symSize: 0x24 }
  - { offset: 0xFEDE0, size: 0x8, addend: 0x0, symName: '__ZN4core3ptr58drop_in_place$LT$pyo3..err..err_state..PyErrStateInner$GT$17h9aed0c9e7dcbedcaE', symObjAddr: 0x4E48, symBinAddr: 0x420F8, symSize: 0x58 }
  - { offset: 0xFEE0F, size: 0x8, addend: 0x0, symName: '__ZN4core3ptr58drop_in_place$LT$std..sys..sync..mutex..pthread..Mutex$GT$17hc3fd00e382b6e5b4E', symObjAddr: 0x4EA0, symBinAddr: 0x42150, symSize: 0x5C }
  - { offset: 0xFEE3E, size: 0x8, addend: 0x0, symName: '__ZN4core3ptr59drop_in_place$LT$pyo3..types..tuple..BoundTupleIterator$GT$17h0ea20db2c28b3601E', symObjAddr: 0x4EFC, symBinAddr: 0x421AC, symSize: 0x24 }
  - { offset: 0xFEE6D, size: 0x8, addend: 0x0, symName: '__ZN4core3ptr60drop_in_place$LT$std..sys..pal..unix..sync..mutex..Mutex$GT$17h4e624a2d1d1f7489E', symObjAddr: 0x4F20, symBinAddr: 0x421D0, symSize: 0x24 }
  - { offset: 0xFEE9C, size: 0x8, addend: 0x0, symName: '__ZN4core3ptr62drop_in_place$LT$alloc..vec..set_len_on_drop..SetLenOnDrop$GT$17h12fc7f7a663161a3E', symObjAddr: 0x4F44, symBinAddr: 0x421F4, symSize: 0x24 }
  - { offset: 0xFEECB, size: 0x8, addend: 0x0, symName: '__ZN4core3ptr62drop_in_place$LT$pyo3..err..cast_error..CastErrorArguments$GT$17hb263f7b1891ee13fE', symObjAddr: 0x4F68, symBinAddr: 0x42218, symSize: 0x60 }
  - { offset: 0xFEEFA, size: 0x8, addend: 0x0, symName: '__ZN4core3ptr63drop_in_place$LT$pyo3..err..err_state..PyErrStateNormalized$GT$17h906c2549fcbbf523E', symObjAddr: 0x4FEC, symBinAddr: 0x42278, symSize: 0x24 }
  - { offset: 0xFEF29, size: 0x8, addend: 0x0, symName: '__ZN4core3ptr65drop_in_place$LT$core..option..Option$LT$pyo3..err..PyErr$GT$$GT$17h368195cccc760885E', symObjAddr: 0x5010, symBinAddr: 0x4229C, symSize: 0x40 }
  - { offset: 0xFEF58, size: 0x8, addend: 0x0, symName: '__ZN4core3ptr68drop_in_place$LT$alloc..boxed..Box$LT$std..io..error..Custom$GT$$GT$17h5968b576e636dfacE', symObjAddr: 0x5098, symBinAddr: 0x422DC, symSize: 0x60 }
  - { offset: 0xFEF87, size: 0x8, addend: 0x0, symName: '__ZN4core3ptr70drop_in_place$LT$core..option..Option$LT$alloc..string..String$GT$$GT$17h38228a9e7805f1a2E', symObjAddr: 0x52CC, symBinAddr: 0x4233C, symSize: 0x48 }
  - { offset: 0xFEFB6, size: 0x8, addend: 0x0, symName: '__ZN4core3ptr70drop_in_place$LT$pyo3..instance..Py$LT$pyo3..types..any..PyAny$GT$$GT$17h62abdf6eba124d17E', symObjAddr: 0x5370, symBinAddr: 0x42384, symSize: 0x24 }
  - { offset: 0xFEFE5, size: 0x8, addend: 0x0, symName: '__ZN4core3ptr73drop_in_place$LT$core..result..Result$LT$usize$C$pyo3..err..PyErr$GT$$GT$17h02df37eeb0c438a0E', symObjAddr: 0x54CC, symBinAddr: 0x423A8, symSize: 0x40 }
  - { offset: 0xFF014, size: 0x8, addend: 0x0, symName: '__ZN4core3ptr73drop_in_place$LT$pyo3..instance..Bound$LT$pyo3..types..any..PyAny$GT$$GT$17h39e8b52739ca5dbdE', symObjAddr: 0x5530, symBinAddr: 0x423E8, symSize: 0x24 }
  - { offset: 0xFF043, size: 0x8, addend: 0x0, symName: '__ZN4core3ptr73drop_in_place$LT$pyo3..instance..Bound$LT$pyo3..types..num..PyInt$GT$$GT$17h479a959d43353ea7E', symObjAddr: 0x5554, symBinAddr: 0x4240C, symSize: 0x24 }
  - { offset: 0xFF072, size: 0x8, addend: 0x0, symName: '__ZN4core3ptr75drop_in_place$LT$core..result..Result$LT$$RF$str$C$pyo3..err..PyErr$GT$$GT$17hceccce30c5a3ff89E', symObjAddr: 0x55F8, symBinAddr: 0x42430, symSize: 0x40 }
  - { offset: 0xFF0A1, size: 0x8, addend: 0x0, symName: '__ZN4core3ptr75drop_in_place$LT$pyo3..instance..Bound$LT$pyo3..types..list..PyList$GT$$GT$17h89ea217a0fb3a870E', symObjAddr: 0x5680, symBinAddr: 0x42470, symSize: 0x24 }
  - { offset: 0xFF0D0, size: 0x8, addend: 0x0, symName: '__ZN4core3ptr76drop_in_place$LT$core..result..Result$LT$$LP$$RP$$C$pyo3..err..PyErr$GT$$GT$17hcb164d00a0696d7aE', symObjAddr: 0x56A4, symBinAddr: 0x42494, symSize: 0x40 }
  - { offset: 0xFF0FF, size: 0x8, addend: 0x0, symName: '__ZN4core3ptr76drop_in_place$LT$pyo3..instance..Py$LT$pyo3..types..string..PyString$GT$$GT$17h365174b746ce4e66E', symObjAddr: 0x5708, symBinAddr: 0x424D4, symSize: 0x24 }
  - { offset: 0xFF12E, size: 0x8, addend: 0x0, symName: '__ZN4core3ptr77drop_in_place$LT$pyo3..instance..Bound$LT$pyo3..types..bytes..PyBytes$GT$$GT$17hbfec6f5886e4e861E', symObjAddr: 0x572C, symBinAddr: 0x424F8, symSize: 0x24 }
  - { offset: 0xFF15D, size: 0x8, addend: 0x0, symName: '__ZN4core3ptr77drop_in_place$LT$pyo3..instance..Bound$LT$pyo3..types..tuple..PyTuple$GT$$GT$17hf8437c69297e05d8E', symObjAddr: 0x5774, symBinAddr: 0x4251C, symSize: 0x24 }
  - { offset: 0xFF18C, size: 0x8, addend: 0x0, symName: '__ZN4core3ptr78drop_in_place$LT$pyo3..instance..Py$LT$pyo3..types..typeobject..PyType$GT$$GT$17ha745366c5978e81eE', symObjAddr: 0x5850, symBinAddr: 0x42540, symSize: 0x24 }
  - { offset: 0xFF1BB, size: 0x8, addend: 0x0, symName: '__ZN4core3ptr79drop_in_place$LT$pyo3..instance..Bound$LT$pyo3..types..module..PyModule$GT$$GT$17hb3b6c2618610d6acE', symObjAddr: 0x59E0, symBinAddr: 0x42564, symSize: 0x24 }
  - { offset: 0xFF1EA, size: 0x8, addend: 0x0, symName: '__ZN4core3ptr79drop_in_place$LT$pyo3..instance..Bound$LT$pyo3..types..string..PyString$GT$$GT$17h65dbdf39a0f8443cE', symObjAddr: 0x5A04, symBinAddr: 0x42588, symSize: 0x24 }
  - { offset: 0xFF219, size: 0x8, addend: 0x0, symName: '__ZN4core3ptr80drop_in_place$LT$pyo3..instance..Py$LT$pyo3..exceptions..PyBaseException$GT$$GT$17h28ca9ef2a2467b42E', symObjAddr: 0x5A94, symBinAddr: 0x425AC, symSize: 0x24 }
  - { offset: 0xFF248, size: 0x8, addend: 0x0, symName: '__ZN4core3ptr81drop_in_place$LT$pyo3..instance..Bound$LT$pyo3..types..typeobject..PyType$GT$$GT$17hbeac21143d5eabbeE', symObjAddr: 0x5B00, symBinAddr: 0x425D0, symSize: 0x24 }
  - { offset: 0xFF277, size: 0x8, addend: 0x0, symName: '__ZN4core3ptr83drop_in_place$LT$$u5b$pyo3..instance..Bound$LT$pyo3..types..any..PyAny$GT$$u5d$$GT$17h963e4f631c7f4be5E', symObjAddr: 0x5B24, symBinAddr: 0x425F4, symSize: 0xB4 }
  - { offset: 0xFF2A6, size: 0x8, addend: 0x0, symName: '__ZN4core3ptr83drop_in_place$LT$pyo3..instance..Bound$LT$pyo3..exceptions..PyBaseException$GT$$GT$17hfe6e6349a5a1976eE', symObjAddr: 0x5BD8, symBinAddr: 0x426A8, symSize: 0x24 }
  - { offset: 0xFF2D5, size: 0x8, addend: 0x0, symName: '__ZN4core3ptr83drop_in_place$LT$pyo3..instance..Bound$LT$pyo3..types..iterator..PyIterator$GT$$GT$17h7fb50a1efff4bf41E', symObjAddr: 0x5BFC, symBinAddr: 0x426CC, symSize: 0x24 }
  - { offset: 0xFF304, size: 0x8, addend: 0x0, symName: '__ZN4core3ptr84drop_in_place$LT$pyo3..instance..Bound$LT$pyo3..types..function..PyCFunction$GT$$GT$17hf16962acb6b6fe86E', symObjAddr: 0x5C20, symBinAddr: 0x426F0, symSize: 0x24 }
  - { offset: 0xFF333, size: 0x8, addend: 0x0, symName: '__ZN4core3ptr85drop_in_place$LT$alloc..boxed..Box$LT$std..sys..pal..unix..sync..mutex..Mutex$GT$$GT$17h63bc469ffdaa6a9fE', symObjAddr: 0x5C44, symBinAddr: 0x42714, symSize: 0x60 }
  - { offset: 0xFF362, size: 0x8, addend: 0x0, symName: '__ZN4core3ptr85drop_in_place$LT$pyo3..instance..Bound$LT$pyo3..types..traceback..PyTraceback$GT$$GT$17h94da88e7fdf9cf2dE', symObjAddr: 0x5D58, symBinAddr: 0x42774, symSize: 0x24 }
  - { offset: 0xFF391, size: 0x8, addend: 0x0, symName: '__ZN4core3ptr86drop_in_place$LT$core..option..Option$LT$pyo3..err..err_state..PyErrStateInner$GT$$GT$17hef1b1c64e90cdd8fE', symObjAddr: 0x5DC4, symBinAddr: 0x42798, symSize: 0x40 }
  - { offset: 0xFF3C0, size: 0x8, addend: 0x0, symName: '__ZN4core3ptr91drop_in_place$LT$alloc..boxed..Box$LT$dyn$u20$core..any..Any$u2b$core..marker..Send$GT$$GT$17h2bab383315f9d0d9E', symObjAddr: 0x5EB8, symBinAddr: 0x427D8, symSize: 0x80 }
  - { offset: 0xFF3EF, size: 0x8, addend: 0x0, symName: '__ZN4core3ptr94drop_in_place$LT$$u5b$pyo3..instance..Bound$LT$pyo3..types..any..PyAny$GT$$u3b$$u20$1$u5d$$GT$17h060b1201f43f055cE', symObjAddr: 0x6080, symBinAddr: 0x42858, symSize: 0xA4 }
  - { offset: 0x1004B7, size: 0x8, addend: 0x0, symName: __ZN4core4iter6traits10exact_size17ExactSizeIterator3len17h185998e336a37de7E, symObjAddr: 0x62F8, symBinAddr: 0x428FC, symSize: 0xC4 }
  - { offset: 0x100679, size: 0x8, addend: 0x0, symName: '__ZN4core3ops8function6FnOnce40call_once$u7b$$u7b$vtable.shim$u7d$$u7d$17h05a07086b1e5af2cE', symObjAddr: 0x1C0C, symBinAddr: 0x40CC0, symSize: 0x30 }
  - { offset: 0x1006B9, size: 0x8, addend: 0x0, symName: '__ZN4core3ops8function6FnOnce40call_once$u7b$$u7b$vtable.shim$u7d$$u7d$17h1a96be6060bbe4adE', symObjAddr: 0x1C84, symBinAddr: 0x40CF0, symSize: 0x24 }
  - { offset: 0x1006FD, size: 0x8, addend: 0x0, symName: '__ZN4core3ops8function6FnOnce40call_once$u7b$$u7b$vtable.shim$u7d$$u7d$17h1e806a0dd3656a2dE', symObjAddr: 0x1CA8, symBinAddr: 0x40D14, symSize: 0x30 }
  - { offset: 0x100741, size: 0x8, addend: 0x0, symName: '__ZN4core3ops8function6FnOnce40call_once$u7b$$u7b$vtable.shim$u7d$$u7d$17h2fdca132852916b9E', symObjAddr: 0x1D08, symBinAddr: 0x40D44, symSize: 0x24 }
  - { offset: 0x100785, size: 0x8, addend: 0x0, symName: '__ZN4core3ops8function6FnOnce40call_once$u7b$$u7b$vtable.shim$u7d$$u7d$17h45ea8ca175876ceaE', symObjAddr: 0x1D74, symBinAddr: 0x40D68, symSize: 0x24 }
  - { offset: 0x1007C9, size: 0x8, addend: 0x0, symName: '__ZN4core3ops8function6FnOnce40call_once$u7b$$u7b$vtable.shim$u7d$$u7d$17h4ef718ad995600c6E', symObjAddr: 0x1DE8, symBinAddr: 0x40D8C, symSize: 0x30 }
  - { offset: 0x10080D, size: 0x8, addend: 0x0, symName: '__ZN4core3ops8function6FnOnce40call_once$u7b$$u7b$vtable.shim$u7d$$u7d$17h51261ff4f04f8b23E', symObjAddr: 0x1E18, symBinAddr: 0x40DBC, symSize: 0x30 }
  - { offset: 0x100851, size: 0x8, addend: 0x0, symName: '__ZN4core3ops8function6FnOnce40call_once$u7b$$u7b$vtable.shim$u7d$$u7d$17h657eeb116bf2c9baE', symObjAddr: 0x1E48, symBinAddr: 0x40DEC, symSize: 0x30 }
  - { offset: 0x100891, size: 0x8, addend: 0x0, symName: '__ZN4core3ops8function6FnOnce40call_once$u7b$$u7b$vtable.shim$u7d$$u7d$17h8702200d790d93c2E', symObjAddr: 0x1FC4, symBinAddr: 0x40E1C, symSize: 0x30 }
  - { offset: 0x1008D1, size: 0x8, addend: 0x0, symName: '__ZN4core3ops8function6FnOnce40call_once$u7b$$u7b$vtable.shim$u7d$$u7d$17h8b4765f1ffd3cfeaE', symObjAddr: 0x1FF4, symBinAddr: 0x40E4C, symSize: 0x30 }
  - { offset: 0x100911, size: 0x8, addend: 0x0, symName: '__ZN4core3ops8function6FnOnce40call_once$u7b$$u7b$vtable.shim$u7d$$u7d$17h97252211044a2041E', symObjAddr: 0x20BC, symBinAddr: 0x40E7C, symSize: 0x24 }
  - { offset: 0x100955, size: 0x8, addend: 0x0, symName: '__ZN4core3ops8function6FnOnce40call_once$u7b$$u7b$vtable.shim$u7d$$u7d$17h9e11230fc288d16aE', symObjAddr: 0x2100, symBinAddr: 0x40EA0, symSize: 0x24 }
  - { offset: 0x100999, size: 0x8, addend: 0x0, symName: '__ZN4core3ops8function6FnOnce40call_once$u7b$$u7b$vtable.shim$u7d$$u7d$17ha7f686a37116ef8eE', symObjAddr: 0x2188, symBinAddr: 0x40EC4, symSize: 0x30 }
  - { offset: 0x1009DD, size: 0x8, addend: 0x0, symName: '__ZN4core3ops8function6FnOnce40call_once$u7b$$u7b$vtable.shim$u7d$$u7d$17hd0206f39470356bbE', symObjAddr: 0x22D0, symBinAddr: 0x40EF4, symSize: 0x24 }
  - { offset: 0x100A21, size: 0x8, addend: 0x0, symName: '__ZN4core3ops8function6FnOnce40call_once$u7b$$u7b$vtable.shim$u7d$$u7d$17hdca2f297bccaf6fbE', symObjAddr: 0x23DC, symBinAddr: 0x40F18, symSize: 0x24 }
  - { offset: 0x100A65, size: 0x8, addend: 0x0, symName: '__ZN4core3ops8function6FnOnce40call_once$u7b$$u7b$vtable.shim$u7d$$u7d$17hfa97c97213cc69d8E', symObjAddr: 0x2504, symBinAddr: 0x40F3C, symSize: 0x30 }
  - { offset: 0x100AA5, size: 0x8, addend: 0x0, symName: __ZN4core3ops8function6FnOnce9call_once17h2ab1ae0eb48bf3ceE, symObjAddr: 0x2634, symBinAddr: 0x40F6C, symSize: 0x4C }
  - { offset: 0x100AE5, size: 0x8, addend: 0x0, symName: __ZN4core3ops8function6FnOnce9call_once17h2ec0af29d87843c3E, symObjAddr: 0x2680, symBinAddr: 0x40FB8, symSize: 0x24 }
  - { offset: 0x100B29, size: 0x8, addend: 0x0, symName: __ZN4core3ops8function6FnOnce9call_once17h2efda0c5b8a1ad57E, symObjAddr: 0x26A4, symBinAddr: 0x40FDC, symSize: 0x4C }
  - { offset: 0x100B6D, size: 0x8, addend: 0x0, symName: __ZN4core3ops8function6FnOnce9call_once17h36f4177a6aaacac9E, symObjAddr: 0x2714, symBinAddr: 0x41028, symSize: 0x2C }
  - { offset: 0x100BB1, size: 0x8, addend: 0x0, symName: __ZN4core3ops8function6FnOnce9call_once17h39056872975212afE, symObjAddr: 0x2740, symBinAddr: 0x41054, symSize: 0x2C }
  - { offset: 0x100BF5, size: 0x8, addend: 0x0, symName: __ZN4core3ops8function6FnOnce9call_once17h52f3d25d94e5aff0E, symObjAddr: 0x27F8, symBinAddr: 0x41080, symSize: 0x24 }
  - { offset: 0x100C39, size: 0x8, addend: 0x0, symName: __ZN4core3ops8function6FnOnce9call_once17h57c09c7fe82de606E, symObjAddr: 0x281C, symBinAddr: 0x410A4, symSize: 0x24 }
  - { offset: 0x100C7D, size: 0x8, addend: 0x0, symName: __ZN4core3ops8function6FnOnce9call_once17h6350f71da76c18b2E, symObjAddr: 0x28B4, symBinAddr: 0x410C8, symSize: 0x4C }
  - { offset: 0x100CBD, size: 0x8, addend: 0x0, symName: __ZN4core3ops8function6FnOnce9call_once17h65f79a7438f37b8eE, symObjAddr: 0x2900, symBinAddr: 0x41114, symSize: 0x24 }
  - { offset: 0x100D01, size: 0x8, addend: 0x0, symName: __ZN4core3ops8function6FnOnce9call_once17h689b6a18dae8eacfE, symObjAddr: 0x2924, symBinAddr: 0x41138, symSize: 0x40 }
  - { offset: 0x100D46, size: 0x8, addend: 0x0, symName: __ZN4core3ops8function6FnOnce9call_once17h6f8ed45abd55ab1fE, symObjAddr: 0x2964, symBinAddr: 0x41178, symSize: 0x4C }
  - { offset: 0x100D86, size: 0x8, addend: 0x0, symName: __ZN4core3ops8function6FnOnce9call_once17h706774742d180d6bE, symObjAddr: 0x29B0, symBinAddr: 0x411C4, symSize: 0x40 }
  - { offset: 0x100DCB, size: 0x8, addend: 0x0, symName: __ZN4core3ops8function6FnOnce9call_once17h773b2a6283cdf059E, symObjAddr: 0x29F0, symBinAddr: 0x41204, symSize: 0x4C }
  - { offset: 0x100E0B, size: 0x8, addend: 0x0, symName: __ZN4core3ops8function6FnOnce9call_once17h8838146795871733E, symObjAddr: 0x2AE0, symBinAddr: 0x41250, symSize: 0x4C }
  - { offset: 0x100E4B, size: 0x8, addend: 0x0, symName: __ZN4core3ops8function6FnOnce9call_once17h8d7096a41301f438E, symObjAddr: 0x2B2C, symBinAddr: 0x4129C, symSize: 0x24 }
  - { offset: 0x100E8F, size: 0x8, addend: 0x0, symName: __ZN4core3ops8function6FnOnce9call_once17h91088a593791e5f8E, symObjAddr: 0x2B50, symBinAddr: 0x412C0, symSize: 0x40 }
  - { offset: 0x100ED4, size: 0x8, addend: 0x0, symName: __ZN4core3ops8function6FnOnce9call_once17h945539fe41ff2559E, symObjAddr: 0x2BD4, symBinAddr: 0x41300, symSize: 0x24 }
  - { offset: 0x100F18, size: 0x8, addend: 0x0, symName: __ZN4core3ops8function6FnOnce9call_once17ha5765a60bd8aaf4eE, symObjAddr: 0x2C5C, symBinAddr: 0x41324, symSize: 0x34 }
  - { offset: 0x100F5C, size: 0x8, addend: 0x0, symName: __ZN4core3ops8function6FnOnce9call_once17ha9c1a12844590a13E, symObjAddr: 0x2C90, symBinAddr: 0x41358, symSize: 0x24 }
  - { offset: 0x100FA0, size: 0x8, addend: 0x0, symName: __ZN4core3ops8function6FnOnce9call_once17hd0cd7a2fd62f1e29E, symObjAddr: 0x2D0C, symBinAddr: 0x4137C, symSize: 0x2C }
  - { offset: 0x100FE4, size: 0x8, addend: 0x0, symName: __ZN4core3ops8function6FnOnce9call_once17hd7926be268bbcb4eE, symObjAddr: 0x2DAC, symBinAddr: 0x413A8, symSize: 0x1C }
  - { offset: 0x101028, size: 0x8, addend: 0x0, symName: __ZN4core3ops8function6FnOnce9call_once17hffae8c5a4181589aE, symObjAddr: 0x2ED0, symBinAddr: 0x413C4, symSize: 0x34 }
  - { offset: 0x1010B0, size: 0x8, addend: 0x0, symName: __ZN4core5slice3raw14from_raw_parts17h17bf616fe71e98a5E, symObjAddr: 0x67CC, symBinAddr: 0x429C0, symSize: 0x58 }
  - { offset: 0x1010F8, size: 0x8, addend: 0x0, symName: __ZN4core5slice3raw14from_raw_parts18precondition_check17h3839ce01b13e2b91E, symObjAddr: 0x6984, symBinAddr: 0x42A18, symSize: 0x1D8 }
  - { offset: 0x102345, size: 0x8, addend: 0x0, symName: '__ZN152_$LT$core..result..Result$LT$pyo3..instance..Bound$LT$pyo3..types..any..PyAny$GT$$C$pyo3..err..PyErr$GT$$u20$as$u20$pyo3..py_result_ext..PyResultExt$GT$19cast_into_unchecked28_$u7b$$u7b$closure$u7d$$u7d$17h16334549e5de3fc7E', symObjAddr: 0x6FC, symBinAddr: 0x405D0, symSize: 0x24 }
  - { offset: 0x102384, size: 0x8, addend: 0x0, symName: '__ZN152_$LT$core..result..Result$LT$pyo3..instance..Bound$LT$pyo3..types..any..PyAny$GT$$C$pyo3..err..PyErr$GT$$u20$as$u20$pyo3..py_result_ext..PyResultExt$GT$19cast_into_unchecked28_$u7b$$u7b$closure$u7d$$u7d$17h2a06c8402ed03d20E', symObjAddr: 0x768, symBinAddr: 0x405F4, symSize: 0x24 }
  - { offset: 0x1023C3, size: 0x8, addend: 0x0, symName: '__ZN152_$LT$core..result..Result$LT$pyo3..instance..Bound$LT$pyo3..types..any..PyAny$GT$$C$pyo3..err..PyErr$GT$$u20$as$u20$pyo3..py_result_ext..PyResultExt$GT$19cast_into_unchecked28_$u7b$$u7b$closure$u7d$$u7d$17h3b2d3e8256daa438E', symObjAddr: 0x7B0, symBinAddr: 0x40618, symSize: 0x24 }
  - { offset: 0x102402, size: 0x8, addend: 0x0, symName: '__ZN152_$LT$core..result..Result$LT$pyo3..instance..Bound$LT$pyo3..types..any..PyAny$GT$$C$pyo3..err..PyErr$GT$$u20$as$u20$pyo3..py_result_ext..PyResultExt$GT$19cast_into_unchecked28_$u7b$$u7b$closure$u7d$$u7d$17hc303beaa19959f87E', symObjAddr: 0x918, symBinAddr: 0x4063C, symSize: 0x24 }
  - { offset: 0x102441, size: 0x8, addend: 0x0, symName: '__ZN152_$LT$core..result..Result$LT$pyo3..instance..Bound$LT$pyo3..types..any..PyAny$GT$$C$pyo3..err..PyErr$GT$$u20$as$u20$pyo3..py_result_ext..PyResultExt$GT$19cast_into_unchecked28_$u7b$$u7b$closure$u7d$$u7d$17hf4cf82af6fb58e75E', symObjAddr: 0x984, symBinAddr: 0x40660, symSize: 0x24 }
  - { offset: 0x1024A9, size: 0x8, addend: 0x0, symName: '__ZN152_$LT$core..result..Result$LT$pyo3..instance..Bound$LT$pyo3..types..any..PyAny$GT$$C$pyo3..err..PyErr$GT$$u20$as$u20$pyo3..py_result_ext..PyResultExt$GT$9cast_into28_$u7b$$u7b$closure$u7d$$u7d$17hd49246917e07eb9dE', symObjAddr: 0xAE0, symBinAddr: 0x40684, symSize: 0x3C }
  - { offset: 0x103B03, size: 0x8, addend: 0x0, symName: '__ZN103_$LT$alloc..vec..into_iter..IntoIter$LT$T$C$A$GT$$u20$as$u20$core..iter..traits..iterator..Iterator$GT$4next17h9c42bec82682e098E', symObjAddr: 0x0, symBinAddr: 0x404C8, symSize: 0xAC }
  - { offset: 0x103C7A, size: 0x8, addend: 0x0, symName: '__ZN103_$LT$alloc..vec..into_iter..IntoIter$LT$T$C$A$GT$$u20$as$u20$core..iter..traits..iterator..Iterator$GT$9size_hint17hfce4fb9b5486c590E', symObjAddr: 0x1D4, symBinAddr: 0x40574, symSize: 0x5C }
  - { offset: 0x103CE5, size: 0x8, addend: 0x0, symName: '__ZN157_$LT$$LT$alloc..vec..into_iter..IntoIter$LT$T$C$A$GT$$u20$as$u20$core..ops..drop..Drop$GT$..drop..DropGuard$LT$T$C$A$GT$$u20$as$u20$core..ops..drop..Drop$GT$4drop17h4ae3d5b697fbd24fE', symObjAddr: 0xB1C, symBinAddr: 0x406C0, symSize: 0x7C }
  - { offset: 0x103E23, size: 0x8, addend: 0x0, symName: '__ZN86_$LT$alloc..vec..into_iter..IntoIter$LT$T$C$A$GT$$u20$as$u20$core..ops..drop..Drop$GT$4drop17hdab34eebbe2237f4E', symObjAddr: 0x785C, symBinAddr: 0x42BF0, symSize: 0x8C }
  - { offset: 0x104472, size: 0x8, addend: 0x0, symName: '__ZN3std6thread5local17LocalKey$LT$T$GT$4with17hd1ab413abdacd36cE', symObjAddr: 0x1000, symBinAddr: 0x4073C, symSize: 0x4C }
  - { offset: 0x1044DD, size: 0x8, addend: 0x0, symName: '__ZN3std6thread5local17LocalKey$LT$T$GT$4with17hf1889a19b6365bd2E', symObjAddr: 0x109C, symBinAddr: 0x40788, symSize: 0x48 }
  - { offset: 0x104596, size: 0x8, addend: 0x0, symName: '__ZN3std6thread5local17LocalKey$LT$T$GT$8try_with17h00e68c4548ffa852E', symObjAddr: 0x1138, symBinAddr: 0x407D0, symSize: 0xCC }
  - { offset: 0x104717, size: 0x8, addend: 0x0, symName: '__ZN3std6thread5local17LocalKey$LT$T$GT$8try_with17h4a1e01e2870f2b48E', symObjAddr: 0x12D4, symBinAddr: 0x4089C, symSize: 0xD8 }
  - { offset: 0x104899, size: 0x8, addend: 0x0, symName: '__ZN3std6thread5local17LocalKey$LT$T$GT$8try_with17h53cf9818a96f954fE', symObjAddr: 0x13AC, symBinAddr: 0x40974, symSize: 0xD8 }
  - { offset: 0x104A1B, size: 0x8, addend: 0x0, symName: '__ZN3std6thread5local17LocalKey$LT$T$GT$8try_with17hbe32c02c33c43f01E', symObjAddr: 0x1728, symBinAddr: 0x40A4C, symSize: 0xD8 }
  - { offset: 0x104B9D, size: 0x8, addend: 0x0, symName: '__ZN3std6thread5local17LocalKey$LT$T$GT$8try_with17hcfe037472d9dcee9E', symObjAddr: 0x1800, symBinAddr: 0x40B24, symSize: 0xD0 }
  - { offset: 0x104D1F, size: 0x8, addend: 0x0, symName: '__ZN3std6thread5local17LocalKey$LT$T$GT$8try_with17hf904b2243fca79b7E', symObjAddr: 0x18D0, symBinAddr: 0x40BF4, symSize: 0xCC }
  - { offset: 0x107C4B, size: 0x8, addend: 0x0, symName: __ZN4pyo35types6module7__all__8INTERNED17h2daee2c5b7539328E, symObjAddr: 0x9340, symBinAddr: 0xC44E0, symSize: 0x0 }
  - { offset: 0x107C6B, size: 0x8, addend: 0x0, symName: __ZN4pyo35types6module8__name__8INTERNED17h12c5f90d97489705E, symObjAddr: 0x9360, symBinAddr: 0xC4500, symSize: 0x0 }
  - { offset: 0x107C83, size: 0x8, addend: 0x0, symName: '__ZN115_$LT$pyo3..instance..Bound$LT$pyo3..types..module..PyModule$GT$$u20$as$u20$pyo3..types..module..PyModuleMethods$GT$3add5inner17hd907452d06324da0E', symObjAddr: 0x29C, symBinAddr: 0x42C7C, symSize: 0x128 }
  - { offset: 0x107DA7, size: 0x8, addend: 0x0, symName: __ZN4pyo35types6module7__all__17h5198ecff75db5512E, symObjAddr: 0x4A58, symBinAddr: 0x437B0, symSize: 0x24 }
  - { offset: 0x107DE1, size: 0x8, addend: 0x0, symName: __ZN4pyo35types6module8__name__17h80175fa41be55c78E, symObjAddr: 0x4FD0, symBinAddr: 0x439B0, symSize: 0x24 }
  - { offset: 0x107E20, size: 0x8, addend: 0x0, symName: '__ZN79_$LT$pyo3..types..module..PyModule$u20$as$u20$pyo3..type_object..PyTypeInfo$GT$10is_type_of17h01b4af1d8bac8c22E', symObjAddr: 0x68D4, symBinAddr: 0x43DC8, symSize: 0x30 }
  - { offset: 0x107E4C, size: 0x8, addend: 0x0, symName: '__ZN79_$LT$pyo3..types..module..PyModule$u20$as$u20$pyo3..type_object..PyTypeInfo$GT$15type_object_raw17hec33c79286c56e79E', symObjAddr: 0x6904, symBinAddr: 0x43DF8, symSize: 0x24 }
  - { offset: 0x107E88, size: 0x8, addend: 0x0, symName: '__ZN79_$LT$pyo3..types..module..PyModule$u20$as$u20$pyo3..type_object..PyTypeInfo$GT$15type_object_raw28_$u7b$$u7b$closure$u7d$$u7d$17he43ec54c7111ce05E', symObjAddr: 0x6928, symBinAddr: 0x43E1C, symSize: 0x18 }
  - { offset: 0x107F5F, size: 0x8, addend: 0x0, symName: '__ZN79_$LT$pyo3..types..string..PyString$u20$as$u20$pyo3..type_object..PyTypeInfo$GT$10is_type_of17h36e0bafb06ea2937E', symObjAddr: 0x6940, symBinAddr: 0x43E34, symSize: 0x30 }
  - { offset: 0x107F8B, size: 0x8, addend: 0x0, symName: '__ZN79_$LT$pyo3..types..string..PyString$u20$as$u20$pyo3..type_object..PyTypeInfo$GT$15type_object_raw17h9d1d606da2094f0eE', symObjAddr: 0x6970, symBinAddr: 0x43E64, symSize: 0x24 }
  - { offset: 0x107FC7, size: 0x8, addend: 0x0, symName: '__ZN79_$LT$pyo3..types..string..PyString$u20$as$u20$pyo3..type_object..PyTypeInfo$GT$15type_object_raw28_$u7b$$u7b$closure$u7d$$u7d$17h448bca48bd4ddc92E', symObjAddr: 0x6994, symBinAddr: 0x43E88, symSize: 0x18 }
  - { offset: 0x108037, size: 0x8, addend: 0x0, symName: '__ZN73_$LT$pyo3..types..num..PyInt$u20$as$u20$pyo3..type_object..PyTypeInfo$GT$10is_type_of17he3c8a99e04843119E', symObjAddr: 0x653C, symBinAddr: 0x43BD8, symSize: 0x30 }
  - { offset: 0x108063, size: 0x8, addend: 0x0, symName: '__ZN73_$LT$pyo3..types..num..PyInt$u20$as$u20$pyo3..type_object..PyTypeInfo$GT$15type_object_raw17hf85dbb54a154a627E', symObjAddr: 0x656C, symBinAddr: 0x43C08, symSize: 0x24 }
  - { offset: 0x10809F, size: 0x8, addend: 0x0, symName: '__ZN73_$LT$pyo3..types..num..PyInt$u20$as$u20$pyo3..type_object..PyTypeInfo$GT$15type_object_raw28_$u7b$$u7b$closure$u7d$$u7d$17h6e2558690bcc6301E', symObjAddr: 0x6590, symBinAddr: 0x43C2C, symSize: 0x18 }
  - { offset: 0x108137, size: 0x8, addend: 0x0, symName: '__ZN77_$LT$pyo3..panic..PanicException$u20$as$u20$pyo3..type_object..PyTypeInfo$GT$15type_object_raw11TYPE_OBJECT17hbf17368c5d41c906E', symObjAddr: 0x43738, symBinAddr: 0xC4FD8, symSize: 0x0 }
  - { offset: 0x108144, size: 0x8, addend: 0x0, symName: '__ZN77_$LT$pyo3..panic..PanicException$u20$as$u20$pyo3..type_object..PyTypeInfo$GT$15type_object_raw28_$u7b$$u7b$closure$u7d$$u7d$17hda76d19279cf8cccE', symObjAddr: 0x6718, symBinAddr: 0x43C78, symSize: 0xE0 }
  - { offset: 0x10818F, size: 0x8, addend: 0x0, symName: '__ZN77_$LT$pyo3..panic..PanicException$u20$as$u20$pyo3..type_object..PyTypeInfo$GT$15type_object_raw17h39fb37d22367038bE', symObjAddr: 0x66E4, symBinAddr: 0x43C44, symSize: 0x34 }
  - { offset: 0x10823D, size: 0x8, addend: 0x0, symName: __ZN4pyo311conversions3std3num20err_if_invalid_value17hdc42631e6879f67fE, symObjAddr: 0x1904, symBinAddr: 0x43174, symSize: 0xD8 }
  - { offset: 0x1082C2, size: 0x8, addend: 0x0, symName: '__ZN4pyo311conversions3std3num64_$LT$impl$u20$pyo3..conversion..FromPyObject$u20$for$u20$u64$GT$7extract17h610dbb57215f5287E', symObjAddr: 0x23A4, symBinAddr: 0x4324C, symSize: 0x1CC }
  - { offset: 0x10835B, size: 0x8, addend: 0x0, symName: '__ZN4pyo311conversions3std3num66_$LT$impl$u20$pyo3..conversion..FromPyObject$u20$for$u20$usize$GT$7extract17h2167d4d067572ba6E', symObjAddr: 0x279C, symBinAddr: 0x43418, symSize: 0x94 }
  - { offset: 0x1083C7, size: 0x8, addend: 0x0, symName: '__ZN4pyo311conversions3std3num66_$LT$impl$u20$pyo3..conversion..FromPyObject$u20$for$u20$usize$GT$7extract28_$u7b$$u7b$closure$u7d$$u7d$17h21d86fbfdc6c84f0E', symObjAddr: 0x2830, symBinAddr: 0x434AC, symSize: 0x38 }
  - { offset: 0x108411, size: 0x8, addend: 0x0, symName: __ZN4pyo311conversions3std3num8nb_index17h7308472389c27920E, symObjAddr: 0x2908, symBinAddr: 0x434E4, symSize: 0x5C }
  - { offset: 0x108695, size: 0x8, addend: 0x0, symName: '__ZN79_$LT$pyo3..exceptions..PyTypeError$u20$as$u20$pyo3..type_object..PyTypeInfo$GT$15type_object_raw17h2af1c4ff3a68387eE', symObjAddr: 0x6864, symBinAddr: 0x43D58, symSize: 0x24 }
  - { offset: 0x1086D1, size: 0x8, addend: 0x0, symName: '__ZN79_$LT$pyo3..exceptions..PyTypeError$u20$as$u20$pyo3..type_object..PyTypeInfo$GT$15type_object_raw28_$u7b$$u7b$closure$u7d$$u7d$17h71af6747c5d4b870E', symObjAddr: 0x6888, symBinAddr: 0x43D7C, symSize: 0x4C }
  - { offset: 0x108724, size: 0x8, addend: 0x0, symName: '__ZN80_$LT$pyo3..exceptions..PyValueError$u20$as$u20$pyo3..type_object..PyTypeInfo$GT$15type_object_raw17h7359f03f69ceda1bE', symObjAddr: 0x69AC, symBinAddr: 0x43EA0, symSize: 0x24 }
  - { offset: 0x108760, size: 0x8, addend: 0x0, symName: '__ZN80_$LT$pyo3..exceptions..PyValueError$u20$as$u20$pyo3..type_object..PyTypeInfo$GT$15type_object_raw28_$u7b$$u7b$closure$u7d$$u7d$17hf8d32cdbba0c5b9fE', symObjAddr: 0x69D0, symBinAddr: 0x43EC4, symSize: 0x4C }
  - { offset: 0x1087B3, size: 0x8, addend: 0x0, symName: '__ZN83_$LT$pyo3..exceptions..PyBaseException$u20$as$u20$pyo3..type_object..PyTypeInfo$GT$10is_type_of17hac88214d7eef9d38E', symObjAddr: 0x6CE8, symBinAddr: 0x43F10, symSize: 0x30 }
  - { offset: 0x1087DF, size: 0x8, addend: 0x0, symName: '__ZN83_$LT$pyo3..exceptions..PyBaseException$u20$as$u20$pyo3..type_object..PyTypeInfo$GT$15type_object_raw17hbce0aeeb87ecfffeE', symObjAddr: 0x6D18, symBinAddr: 0x43F40, symSize: 0x24 }
  - { offset: 0x10881B, size: 0x8, addend: 0x0, symName: '__ZN83_$LT$pyo3..exceptions..PyBaseException$u20$as$u20$pyo3..type_object..PyTypeInfo$GT$15type_object_raw28_$u7b$$u7b$closure$u7d$$u7d$17hd80d6c58d29bd8dfE', symObjAddr: 0x6D3C, symBinAddr: 0x43F64, symSize: 0x4C }
  - { offset: 0x10886E, size: 0x8, addend: 0x0, symName: '__ZN83_$LT$pyo3..exceptions..PyOverflowError$u20$as$u20$pyo3..type_object..PyTypeInfo$GT$15type_object_raw17h0c0e3672b5022093E', symObjAddr: 0x6D88, symBinAddr: 0x43FB0, symSize: 0x24 }
  - { offset: 0x1088AA, size: 0x8, addend: 0x0, symName: '__ZN83_$LT$pyo3..exceptions..PyOverflowError$u20$as$u20$pyo3..type_object..PyTypeInfo$GT$15type_object_raw28_$u7b$$u7b$closure$u7d$$u7d$17h2ad4fa718e3b9660E', symObjAddr: 0x6DAC, symBinAddr: 0x43FD4, symSize: 0x4C }
  - { offset: 0x1088FD, size: 0x8, addend: 0x0, symName: '__ZN84_$LT$pyo3..exceptions..PyAttributeError$u20$as$u20$pyo3..type_object..PyTypeInfo$GT$15type_object_raw17h3a61f0e739f05e11E', symObjAddr: 0x6DF8, symBinAddr: 0x44020, symSize: 0x24 }
  - { offset: 0x108939, size: 0x8, addend: 0x0, symName: '__ZN84_$LT$pyo3..exceptions..PyAttributeError$u20$as$u20$pyo3..type_object..PyTypeInfo$GT$15type_object_raw28_$u7b$$u7b$closure$u7d$$u7d$17hc74a5326dc2a4228E', symObjAddr: 0x6E1C, symBinAddr: 0x44044, symSize: 0x4C }
  - { offset: 0x108B34, size: 0x8, addend: 0x0, symName: __ZN4pyo311type_object10PyTypeInfo11type_object17h3abef0b3fc3fccfeE, symObjAddr: 0x3CB4, symBinAddr: 0x43540, symSize: 0x30 }
  - { offset: 0x108B74, size: 0x8, addend: 0x0, symName: __ZN4pyo311type_object10PyTypeInfo11type_object17h54c32c0e3fc9d23fE, symObjAddr: 0x3D14, symBinAddr: 0x43570, symSize: 0x30 }
  - { offset: 0x108BB4, size: 0x8, addend: 0x0, symName: __ZN4pyo311type_object10PyTypeInfo11type_object17h81b4cfa55ca76bb2E, symObjAddr: 0x3E34, symBinAddr: 0x435A0, symSize: 0x30 }
  - { offset: 0x108BF4, size: 0x8, addend: 0x0, symName: __ZN4pyo311type_object10PyTypeInfo11type_object17ha5c33ab777f81344E, symObjAddr: 0x3EC4, symBinAddr: 0x435D0, symSize: 0x30 }
  - { offset: 0x108C34, size: 0x8, addend: 0x0, symName: __ZN4pyo311type_object10PyTypeInfo11type_object17hb1d0009bc090a387E, symObjAddr: 0x3EF4, symBinAddr: 0x43600, symSize: 0x30 }
  - { offset: 0x108C74, size: 0x8, addend: 0x0, symName: __ZN4pyo311type_object10PyTypeInfo11type_object17hc0be3ce4a28d22b6E, symObjAddr: 0x3F54, symBinAddr: 0x43630, symSize: 0x30 }
  - { offset: 0x108CB4, size: 0x8, addend: 0x0, symName: __ZN4pyo311type_object10PyTypeInfo11type_object17hd333f7a6c2425384E, symObjAddr: 0x3FB4, symBinAddr: 0x43660, symSize: 0x30 }
  - { offset: 0x108CF4, size: 0x8, addend: 0x0, symName: __ZN4pyo311type_object10PyTypeInfo11type_object17hea2d7bb834df2245E, symObjAddr: 0x4014, symBinAddr: 0x43690, symSize: 0x30 }
  - { offset: 0x108D34, size: 0x8, addend: 0x0, symName: __ZN4pyo311type_object10PyTypeInfo11type_object17hf346466a2f21c505E, symObjAddr: 0x4044, symBinAddr: 0x436C0, symSize: 0x30 }
  - { offset: 0x108D74, size: 0x8, addend: 0x0, symName: __ZN4pyo311type_object10PyTypeInfo16is_exact_type_of17ha02979026952ec87E, symObjAddr: 0x40A4, symBinAddr: 0x436F0, symSize: 0x58 }
  - { offset: 0x108DD4, size: 0x8, addend: 0x0, symName: '__ZN52_$LT$T$u20$as$u20$pyo3..type_object..PyTypeCheck$GT$10type_check17h22e9f072589020deE', symObjAddr: 0x5E8C, symBinAddr: 0x43AC8, symSize: 0x24 }
  - { offset: 0x108E09, size: 0x8, addend: 0x0, symName: '__ZN52_$LT$T$u20$as$u20$pyo3..type_object..PyTypeCheck$GT$10type_check17h483207b4961687c9E', symObjAddr: 0x5ED4, symBinAddr: 0x43AEC, symSize: 0x24 }
  - { offset: 0x108E3E, size: 0x8, addend: 0x0, symName: '__ZN52_$LT$T$u20$as$u20$pyo3..type_object..PyTypeCheck$GT$10type_check17hc80d72d4859a29e7E', symObjAddr: 0x5F40, symBinAddr: 0x43B10, symSize: 0x24 }
  - { offset: 0x108E73, size: 0x8, addend: 0x0, symName: '__ZN52_$LT$T$u20$as$u20$pyo3..type_object..PyTypeCheck$GT$10type_check17hdc4c7d42aa1df5f6E', symObjAddr: 0x5F88, symBinAddr: 0x43B34, symSize: 0x24 }
  - { offset: 0x108EA8, size: 0x8, addend: 0x0, symName: '__ZN52_$LT$T$u20$as$u20$pyo3..type_object..PyTypeCheck$GT$16classinfo_object17h1ddd290e7cb368faE', symObjAddr: 0x5FAC, symBinAddr: 0x43B58, symSize: 0x20 }
  - { offset: 0x108EE8, size: 0x8, addend: 0x0, symName: '__ZN52_$LT$T$u20$as$u20$pyo3..type_object..PyTypeCheck$GT$16classinfo_object17h20e3f64db49c9540E', symObjAddr: 0x5FCC, symBinAddr: 0x43B78, symSize: 0x20 }
  - { offset: 0x108F28, size: 0x8, addend: 0x0, symName: '__ZN52_$LT$T$u20$as$u20$pyo3..type_object..PyTypeCheck$GT$16classinfo_object17hed19ee2bd48f3a3bE', symObjAddr: 0x606C, symBinAddr: 0x43B98, symSize: 0x20 }
  - { offset: 0x108F68, size: 0x8, addend: 0x0, symName: '__ZN52_$LT$T$u20$as$u20$pyo3..type_object..PyTypeCheck$GT$16classinfo_object17hfcf23e28abec3710E', symObjAddr: 0x608C, symBinAddr: 0x43BB8, symSize: 0x20 }
  - { offset: 0x1096E5, size: 0x8, addend: 0x0, symName: __ZN8pyo3_ffi12methodobject17PyCFunction_NewEx17hf0e6fb107dd602c9E, symObjAddr: 0x766C, symBinAddr: 0x4424C, symSize: 0x38 }
  - { offset: 0x1098B6, size: 0x8, addend: 0x0, symName: __ZN8pyo3_ffi10listobject12PyList_Check17h44974286bef1aa46E, symObjAddr: 0x763C, symBinAddr: 0x4421C, symSize: 0x30 }
  - { offset: 0x109F22, size: 0x8, addend: 0x0, symName: '__ZN3std3sys4sync5mutex7pthread5Mutex3get28_$u7b$$u7b$closure$u7d$$u7d$17h7b7b1eab03226c78E', symObjAddr: 0x858, symBinAddr: 0x42DA4, symSize: 0x10C }
  - { offset: 0x10A1A3, size: 0x8, addend: 0x0, symName: '__ZN84_$LT$std..sys..sync..once_box..OnceBox$LT$T$GT$$u20$as$u20$core..ops..drop..Drop$GT$4drop17ha7d36b05556ffdbbE', symObjAddr: 0x6E68, symBinAddr: 0x44090, symSize: 0x84 }
  - { offset: 0x10A4C0, size: 0x8, addend: 0x0, symName: '__ZN3std4sync6poison5mutex19MutexGuard$LT$T$GT$3new28_$u7b$$u7b$closure$u7d$$u7d$17h51199f9690fca78dE', symObjAddr: 0xD38, symBinAddr: 0x430B4, symSize: 0x18 }
  - { offset: 0x10A508, size: 0x8, addend: 0x0, symName: '__ZN3std4sync6poison5mutex19MutexGuard$LT$T$GT$3new28_$u7b$$u7b$closure$u7d$$u7d$17hdd476a3da70ab3b2E', symObjAddr: 0xD68, symBinAddr: 0x430CC, symSize: 0x18 }
  - { offset: 0x10A557, size: 0x8, addend: 0x0, symName: '__ZN87_$LT$std..sync..poison..mutex..MutexGuard$LT$T$GT$$u20$as$u20$core..ops..drop..Drop$GT$4drop17h061d0676db94e031E', symObjAddr: 0x7268, symBinAddr: 0x44114, symSize: 0x68 }
  - { offset: 0x10A5D2, size: 0x8, addend: 0x0, symName: '__ZN87_$LT$std..sync..poison..mutex..MutexGuard$LT$T$GT$$u20$as$u20$core..ops..drop..Drop$GT$4drop17hae3f2448183c055cE', symObjAddr: 0x7338, symBinAddr: 0x4417C, symSize: 0x68 }
  - { offset: 0x10A653, size: 0x8, addend: 0x0, symName: '__ZN89_$LT$std..sync..poison..mutex..MutexGuard$LT$T$GT$$u20$as$u20$core..ops..deref..Deref$GT$5deref17h67d2fd3e73de0cdcE', symObjAddr: 0x75E8, symBinAddr: 0x441E4, symSize: 0x1C }
  - { offset: 0x10A69F, size: 0x8, addend: 0x0, symName: '__ZN89_$LT$std..sync..poison..mutex..MutexGuard$LT$T$GT$$u20$as$u20$core..ops..deref..Deref$GT$5deref17h681aaa94e8a98017E', symObjAddr: 0x7604, symBinAddr: 0x44200, symSize: 0x1C }
  - { offset: 0x10A6F1, size: 0x8, addend: 0x0, symName: '__ZN92_$LT$std..sync..poison..mutex..MutexGuard$LT$T$GT$$u20$as$u20$core..ops..deref..DerefMut$GT$9deref_mut17h2b7e9c653d7eb35fE', symObjAddr: 0x780C, symBinAddr: 0x44284, symSize: 0x1C }
  - { offset: 0x10A73D, size: 0x8, addend: 0x0, symName: '__ZN92_$LT$std..sync..poison..mutex..MutexGuard$LT$T$GT$$u20$as$u20$core..ops..deref..DerefMut$GT$9deref_mut17h96a3644eaa0678c5E', symObjAddr: 0x7844, symBinAddr: 0x442A0, symSize: 0x1C }
  - { offset: 0x10AECE, size: 0x8, addend: 0x0, symName: '__ZN3std3sys4sync8once_box16OnceBox$LT$T$GT$10initialize17h473f9897764bb482E', symObjAddr: 0x964, symBinAddr: 0x7D880, symSize: 0xE8 }
  - { offset: 0x10B0A5, size: 0x8, addend: 0x0, symName: '__ZN3std3sys4sync8once_box16OnceBox$LT$T$GT$11get_or_init17hd46cb6bff03ce920E', symObjAddr: 0xA4C, symBinAddr: 0x42EB0, symSize: 0xC8 }
  - { offset: 0x10B1B1, size: 0x8, addend: 0x0, symName: '__ZN3std4sync6poison5mutex14Mutex$LT$T$GT$3new17h267bd4c11a658afdE', symObjAddr: 0xBB0, symBinAddr: 0x42F78, symSize: 0x60 }
  - { offset: 0x10B28D, size: 0x8, addend: 0x0, symName: '__ZN3std4sync6poison5mutex14Mutex$LT$T$GT$3new17h4d1ed7a9501fac13E', symObjAddr: 0xC10, symBinAddr: 0x42FD8, symSize: 0x44 }
  - { offset: 0x10B37C, size: 0x8, addend: 0x0, symName: '__ZN3std4sync6poison5mutex14Mutex$LT$T$GT$4lock17ha85e448ee080baefE', symObjAddr: 0xCA0, symBinAddr: 0x4301C, symSize: 0x4C }
  - { offset: 0x10B44E, size: 0x8, addend: 0x0, symName: '__ZN3std4sync6poison5mutex14Mutex$LT$T$GT$4lock17hcd570f9e9542fb38E', symObjAddr: 0xCEC, symBinAddr: 0x43068, symSize: 0x4C }
  - { offset: 0x10B52F, size: 0x8, addend: 0x0, symName: __ZN4pyo310exceptions11PyTypeError7new_err17h7e756c5f38e63c25E, symObjAddr: 0xFFC, symBinAddr: 0x430E4, symSize: 0x2C }
  - { offset: 0x10B55A, size: 0x8, addend: 0x0, symName: __ZN4pyo310exceptions11PyTypeError7new_err17hb21cd1bc670db0c4E, symObjAddr: 0x103C, symBinAddr: 0x43110, symSize: 0x14 }
  - { offset: 0x10B586, size: 0x8, addend: 0x0, symName: __ZN4pyo310exceptions11PyTypeError7new_err17he088412851adb509E, symObjAddr: 0x1050, symBinAddr: 0x43124, symSize: 0x28 }
  - { offset: 0x10B5B1, size: 0x8, addend: 0x0, symName: __ZN4pyo310exceptions12PyValueError7new_err17h9ea155998be9ea82E, symObjAddr: 0x112C, symBinAddr: 0x4314C, symSize: 0x14 }
  - { offset: 0x10B5DD, size: 0x8, addend: 0x0, symName: __ZN4pyo310exceptions15PyOverflowError7new_err17h42e7b939c4420f82E, symObjAddr: 0x1228, symBinAddr: 0x43160, symSize: 0x14 }
  - { offset: 0x10B683, size: 0x8, addend: 0x0, symName: __ZN4pyo35impl_8pymodule9ModuleDef16init_multi_phase17hd53f5cb9476fcd27E, symObjAddr: 0x480C, symBinAddr: 0x43748, symSize: 0x2C }
  - { offset: 0x10B6D3, size: 0x8, addend: 0x0, symName: __ZN4pyo35panic14PanicException18from_panic_payload17hc449fe0b89370bc3E, symObjAddr: 0x4838, symBinAddr: 0x7D968, symSize: 0x14C }
  - { offset: 0x10B732, size: 0x8, addend: 0x0, symName: __ZN4pyo35panic14PanicException7new_err17h4ffb4b177a0ce530E, symObjAddr: 0x4984, symBinAddr: 0x43774, symSize: 0x28 }
  - { offset: 0x10B770, size: 0x8, addend: 0x0, symName: __ZN4pyo35panic14PanicException7new_err17h9f34c4e1e2aafe32E, symObjAddr: 0x49AC, symBinAddr: 0x4379C, symSize: 0x14 }
  - { offset: 0x10B79C, size: 0x8, addend: 0x0, symName: __ZN4pyo35types6module8PyModule6import17h7a365e486db2a452E, symObjAddr: 0x4C2C, symBinAddr: 0x437D4, symSize: 0xFC }
  - { offset: 0x10B83E, size: 0x8, addend: 0x0, symName: __ZN4pyo35types6module8PyModule6import17hc4ed004648ee6551E, symObjAddr: 0x4D28, symBinAddr: 0x438D0, symSize: 0xE0 }
  - { offset: 0x10B8DF, size: 0x8, addend: 0x0, symName: __ZN4pyo35types6string8PyString3new17h31431400efe4a59cE, symObjAddr: 0x59E8, symBinAddr: 0x439D4, symSize: 0x68 }
  - { offset: 0x10B954, size: 0x8, addend: 0x0, symName: __ZN4pyo35types6string8PyString6intern17h0fc3c904fe385cd4E, symObjAddr: 0x5A50, symBinAddr: 0x43A3C, symSize: 0x8C }
  - { offset: 0x10D4B9, size: 0x8, addend: 0x0, symName: __ZN4core9panicking13assert_failed17h558e1e4b746d137fE, symObjAddr: 0x13F0, symBinAddr: 0x7DAB4, symSize: 0x3C }
  - { offset: 0x10D523, size: 0x8, addend: 0x0, symName: __ZN4core9panicking13panic_display17h5106e76dc88477e6E, symObjAddr: 0x14A4, symBinAddr: 0x44C9C, symSize: 0x88 }
  - { offset: 0x10D5BE, size: 0x8, addend: 0x0, symName: '__ZN102_$LT$core..iter..adapters..zip..Zip$LT$A$C$B$GT$$u20$as$u20$core..iter..traits..iterator..Iterator$GT$4next17h2b9f5c29e73401cbE', symObjAddr: 0xAC, symBinAddr: 0x442BC, symSize: 0x24 }
  - { offset: 0x10D5FC, size: 0x8, addend: 0x0, symName: '__ZN102_$LT$core..iter..adapters..zip..Zip$LT$A$C$B$GT$$u20$as$u20$core..iter..traits..iterator..Iterator$GT$4next17ha290d9f05c87a950E', symObjAddr: 0xD0, symBinAddr: 0x442E0, symSize: 0x24 }
  - { offset: 0x10D63A, size: 0x8, addend: 0x0, symName: '__ZN102_$LT$core..iter..adapters..zip..Zip$LT$A$C$B$GT$$u20$as$u20$core..iter..traits..iterator..Iterator$GT$9size_hint17h095b4249e65e638eE', symObjAddr: 0x118, symBinAddr: 0x44304, symSize: 0x24 }
  - { offset: 0x10D678, size: 0x8, addend: 0x0, symName: '__ZN102_$LT$core..iter..adapters..zip..Zip$LT$A$C$B$GT$$u20$as$u20$core..iter..traits..iterator..Iterator$GT$9size_hint17h8d61563920388e9dE', symObjAddr: 0x13C, symBinAddr: 0x44328, symSize: 0x24 }
  - { offset: 0x10D6BC, size: 0x8, addend: 0x0, symName: '__ZN111_$LT$core..iter..adapters..zip..Zip$LT$A$C$B$GT$$u20$as$u20$core..iter..adapters..zip..ZipImpl$LT$A$C$B$GT$$GT$3new17h25e650af79030edeE', symObjAddr: 0x248, symBinAddr: 0x4434C, symSize: 0xBC }
  - { offset: 0x10D74F, size: 0x8, addend: 0x0, symName: '__ZN111_$LT$core..iter..adapters..zip..Zip$LT$A$C$B$GT$$u20$as$u20$core..iter..adapters..zip..ZipImpl$LT$A$C$B$GT$$GT$4next17h50a4bf449d5fc80fE', symObjAddr: 0x4DC, symBinAddr: 0x44444, symSize: 0xB0 }
  - { offset: 0x10D7A5, size: 0x8, addend: 0x0, symName: '__ZN111_$LT$core..iter..adapters..zip..Zip$LT$A$C$B$GT$$u20$as$u20$core..iter..adapters..zip..ZipImpl$LT$A$C$B$GT$$GT$9size_hint17h965fab2a9de225f7E', symObjAddr: 0x8B0, symBinAddr: 0x44710, symSize: 0x34 }
  - { offset: 0x10D7EB, size: 0x8, addend: 0x0, symName: '__ZN111_$LT$core..iter..adapters..zip..Zip$LT$A$C$B$GT$$u20$as$u20$core..iter..adapters..zip..ZipImpl$LT$A$C$B$GT$$GT$3new17hc0a139217aa18be3E', symObjAddr: 0x3E4, symBinAddr: 0x44408, symSize: 0x3C }
  - { offset: 0x10D837, size: 0x8, addend: 0x0, symName: '__ZN111_$LT$core..iter..adapters..zip..Zip$LT$A$C$B$GT$$u20$as$u20$core..iter..adapters..zip..ZipImpl$LT$A$C$B$GT$$GT$4next17ha4b9ce6ac49c389eE', symObjAddr: 0x58C, symBinAddr: 0x444F4, symSize: 0xE0 }
  - { offset: 0x10D998, size: 0x8, addend: 0x0, symName: '__ZN111_$LT$core..iter..adapters..zip..Zip$LT$A$C$B$GT$$u20$as$u20$core..iter..adapters..zip..ZipImpl$LT$A$C$B$GT$$GT$9size_hint17h39f619155eed7b37E', symObjAddr: 0x740, symBinAddr: 0x445D4, symSize: 0x13C }
  - { offset: 0x10DC9E, size: 0x8, addend: 0x0, symName: __ZN4core4iter6traits8iterator8Iterator10filter_map17h27db6a30853da186E, symObjAddr: 0xE18, symBinAddr: 0x44804, symSize: 0x30 }
  - { offset: 0x10DD0C, size: 0x8, addend: 0x0, symName: __ZN4core4iter6traits8iterator8Iterator10filter_map17h29e39c13620f2196E, symObjAddr: 0xE48, symBinAddr: 0x44834, symSize: 0x30 }
  - { offset: 0x10DD7A, size: 0x8, addend: 0x0, symName: __ZN4core4iter6traits8iterator8Iterator8find_map17h96ef9935490778a8E, symObjAddr: 0xF34, symBinAddr: 0x44864, symSize: 0x8C }
  - { offset: 0x10DE02, size: 0x8, addend: 0x0, symName: __ZN4core4iter6traits8iterator8Iterator8find_map17ha1d0752e9340b463E, symObjAddr: 0xFC0, symBinAddr: 0x448F0, symSize: 0x8C }
  - { offset: 0x10DE8A, size: 0x8, addend: 0x0, symName: __ZN4core4iter6traits8iterator8Iterator8try_fold17h5a6d0ee402eed092E, symObjAddr: 0x104C, symBinAddr: 0x4497C, symSize: 0x190 }
  - { offset: 0x10DF40, size: 0x8, addend: 0x0, symName: __ZN4core4iter6traits8iterator8Iterator8try_fold17hee86ddeaf216e130E, symObjAddr: 0x11DC, symBinAddr: 0x44B0C, symSize: 0x190 }
  - { offset: 0x10E28E, size: 0x8, addend: 0x0, symName: __ZN4core3mem4drop17h3e9d6436b5f423d6E, symObjAddr: 0xB94, symBinAddr: 0x44744, symSize: 0x2C }
  - { offset: 0x10E2C1, size: 0x8, addend: 0x0, symName: __ZN4core3mem4drop17hea563aee5a1c9deeE, symObjAddr: 0xBEC, symBinAddr: 0x44770, symSize: 0x2C }
  - { offset: 0x10E327, size: 0x8, addend: 0x0, symName: __ZN4core3mem4take17h7ac2196b03f7b64fE, symObjAddr: 0xCC0, symBinAddr: 0x4479C, symSize: 0x54 }
  - { offset: 0x10E384, size: 0x8, addend: 0x0, symName: __ZN4core3mem6forget17h223edd6f3d767934E, symObjAddr: 0xD28, symBinAddr: 0x447F0, symSize: 0x14 }
  - { offset: 0x10F4E7, size: 0x8, addend: 0x0, symName: __ZN8pyo3_ffi11floatobject13PyFloat_Check17h5f249b7c54a6df0dE, symObjAddr: 0x5D78, symBinAddr: 0x454D8, symSize: 0x2C }
  - { offset: 0x10FD9E, size: 0x8, addend: 0x0, symName: '__ZN4pyo34sync9once_lock19PyOnceLock$LT$T$GT$11get_or_init28_$u7b$$u7b$closure$u7d$$u7d$17hb0aea3b6622bbcc6E', symObjAddr: 0x17B8, symBinAddr: 0x44E7C, symSize: 0x38 }
  - { offset: 0x10FDFD, size: 0x8, addend: 0x0, symName: '__ZN4pyo34sync9once_lock19PyOnceLock$LT$T$GT$11get_or_init28_$u7b$$u7b$closure$u7d$$u7d$17hb27391a55c867167E', symObjAddr: 0x17F0, symBinAddr: 0x44EB4, symSize: 0x28 }
  - { offset: 0x10FE62, size: 0x8, addend: 0x0, symName: '__ZN4pyo34sync9once_lock19PyOnceLock$LT$T$GT$15get_or_try_init28_$u7b$$u7b$closure$u7d$$u7d$17h7bd74fbc21c51c83E', symObjAddr: 0x1B50, symBinAddr: 0x44F84, symSize: 0x38 }
  - { offset: 0x10FEFF, size: 0x8, addend: 0x0, symName: '__ZN4pyo34sync9once_lock45PyOnceLock$LT$pyo3..instance..Py$LT$T$GT$$GT$6import28_$u7b$$u7b$closure$u7d$$u7d$17h382b0dbbad35637bE', symObjAddr: 0x261C, symBinAddr: 0x451CC, symSize: 0x230 }
  - { offset: 0x10FFF8, size: 0x8, addend: 0x0, symName: '__ZN4pyo34sync9once_lock45PyOnceLock$LT$pyo3..instance..Py$LT$T$GT$$GT$6import28_$u7b$$u7b$closure$u7d$$u7d$17h3938617c86bf5399E', symObjAddr: 0x284C, symBinAddr: 0x453FC, symSize: 0x30 }
  - { offset: 0x11005B, size: 0x8, addend: 0x0, symName: __ZN4pyo34sync9once_lock26init_once_cell_py_attached17h1b4e38a47eb04338E, symObjAddr: 0x1CA8, symBinAddr: 0x7DAF0, symSize: 0xAC }
  - { offset: 0x1100DD, size: 0x8, addend: 0x0, symName: __ZN4pyo34sync9once_lock26init_once_cell_py_attached17h40c5d2af8d94ea58E, symObjAddr: 0x1D54, symBinAddr: 0x7DB9C, symSize: 0xB4 }
  - { offset: 0x110165, size: 0x8, addend: 0x0, symName: '__ZN4pyo34sync9once_lock26init_once_cell_py_attached28_$u7b$$u7b$closure$u7d$$u7d$17h2481fa6fc87f921aE', symObjAddr: 0x1E08, symBinAddr: 0x44FBC, symSize: 0x80 }
  - { offset: 0x1101B5, size: 0x8, addend: 0x0, symName: '__ZN4pyo34sync9once_lock26init_once_cell_py_attached28_$u7b$$u7b$closure$u7d$$u7d$17hba773c788bcae66aE', symObjAddr: 0x1E88, symBinAddr: 0x4503C, symSize: 0x90 }
  - { offset: 0x110242, size: 0x8, addend: 0x0, symName: __ZN4pyo34sync9once_lock30try_init_once_cell_py_attached17h9ab9486a2402b96cE, symObjAddr: 0x1FC4, symBinAddr: 0x7DC50, symSize: 0xB4 }
  - { offset: 0x1102D3, size: 0x8, addend: 0x0, symName: '__ZN4pyo34sync9once_lock30try_init_once_cell_py_attached28_$u7b$$u7b$closure$u7d$$u7d$17hb11a1ad116a0e9edE', symObjAddr: 0x239C, symBinAddr: 0x450CC, symSize: 0x90 }
  - { offset: 0x1109A5, size: 0x8, addend: 0x0, symName: '__ZN9once_cell4sync17OnceCell$LT$T$GT$11get_or_init28_$u7b$$u7b$closure$u7d$$u7d$17h38e568cf53188c02E', symObjAddr: 0x60C4, symBinAddr: 0x45590, symSize: 0x34 }
  - { offset: 0x1109E7, size: 0x8, addend: 0x0, symName: '__ZN9once_cell4sync17OnceCell$LT$T$GT$11get_or_init28_$u7b$$u7b$closure$u7d$$u7d$17hb7426b8e078d9d2cE', symObjAddr: 0x60F8, symBinAddr: 0x455C4, symSize: 0x38 }
  - { offset: 0x110F27, size: 0x8, addend: 0x0, symName: '__ZN5alloc3str56_$LT$impl$u20$alloc..borrow..ToOwned$u20$for$u20$str$GT$8to_owned17h492f6c31480164d6E', symObjAddr: 0x5494, symBinAddr: 0x45488, symSize: 0x50 }
  - { offset: 0x1114AC, size: 0x8, addend: 0x0, symName: '__ZN4pyo34sync9once_lock19PyOnceLock$LT$T$GT$11get_or_init17h0440e095cba02f48E', symObjAddr: 0x1660, symBinAddr: 0x44D24, symSize: 0xB0 }
  - { offset: 0x111522, size: 0x8, addend: 0x0, symName: '__ZN4pyo34sync9once_lock19PyOnceLock$LT$T$GT$11get_or_init17hbde31f9c7a6a8ae9E', symObjAddr: 0x1710, symBinAddr: 0x44DD4, symSize: 0xA8 }
  - { offset: 0x11157D, size: 0x8, addend: 0x0, symName: '__ZN4pyo34sync9once_lock19PyOnceLock$LT$T$GT$15get_or_try_init17h202c23da8ed23d43E', symObjAddr: 0x1818, symBinAddr: 0x44EDC, symSize: 0xA8 }
  - { offset: 0x1115FC, size: 0x8, addend: 0x0, symName: '__ZN4pyo34sync9once_lock45PyOnceLock$LT$pyo3..instance..Py$LT$T$GT$$GT$6import17hbe605490346a2595E', symObjAddr: 0x25AC, symBinAddr: 0x4515C, symSize: 0x70 }
  - { offset: 0x11165C, size: 0x8, addend: 0x0, symName: __ZN4pyo35types8iterator10PyIterator11from_object17h81819a3cdf7d4b83E, symObjAddr: 0x35E0, symBinAddr: 0x4542C, symSize: 0x5C }
  - { offset: 0x11179B, size: 0x8, addend: 0x0, symName: '__ZN9once_cell4sync17OnceCell$LT$T$GT$11get_or_init17hcb3b8a3ad9b3b629E', symObjAddr: 0x6038, symBinAddr: 0x45504, symSize: 0x48 }
  - { offset: 0x1117ED, size: 0x8, addend: 0x0, symName: '__ZN9once_cell4sync17OnceCell$LT$T$GT$11get_or_init17he7258468590a08feE', symObjAddr: 0x6080, symBinAddr: 0x4554C, symSize: 0x44 }
  - { offset: 0x111832, size: 0x8, addend: 0x0, symName: '__ZN9once_cell4sync17OnceCell$LT$T$GT$13get_unchecked17h685b5cce97ec54f1E', symObjAddr: 0x619C, symBinAddr: 0x455FC, symSize: 0x24 }
  - { offset: 0x11185E, size: 0x8, addend: 0x0, symName: '__ZN9once_cell4sync17OnceCell$LT$T$GT$13get_unchecked17h7e2db5e99eec2393E', symObjAddr: 0x61C0, symBinAddr: 0x45620, symSize: 0x24 }
  - { offset: 0x11188A, size: 0x8, addend: 0x0, symName: '__ZN9once_cell4sync17OnceCell$LT$T$GT$15get_or_try_init17h48a64bc8d43398deE', symObjAddr: 0x61E4, symBinAddr: 0x45644, symSize: 0x14C }
  - { offset: 0x1118EE, size: 0x8, addend: 0x0, symName: '__ZN9once_cell4sync17OnceCell$LT$T$GT$15get_or_try_init17h516b34c2936a2b50E', symObjAddr: 0x64E0, symBinAddr: 0x45790, symSize: 0x1B4 }
  - { offset: 0x111969, size: 0x8, addend: 0x0, symName: '__ZN9once_cell4sync17OnceCell$LT$T$GT$15get_or_try_init17h77086de9eb08493cE', symObjAddr: 0x6848, symBinAddr: 0x45944, symSize: 0x150 }
  - { offset: 0x1119CD, size: 0x8, addend: 0x0, symName: '__ZN9once_cell4sync17OnceCell$LT$T$GT$3get17h05054fde9a959a9aE', symObjAddr: 0x6CFC, symBinAddr: 0x45A94, symSize: 0x4C }
  - { offset: 0x1119F9, size: 0x8, addend: 0x0, symName: '__ZN9once_cell4sync17OnceCell$LT$T$GT$3get17h3ab14215ffef24b2E', symObjAddr: 0x6D94, symBinAddr: 0x45AE0, symSize: 0x4C }
  - { offset: 0x111B13, size: 0x8, addend: 0x0, symName: '__ZN3std4sync6poison4once4Once15call_once_force28_$u7b$$u7b$closure$u7d$$u7d$17h957b6092a21c51f2E', symObjAddr: 0x9BC, symBinAddr: 0x45E80, symSize: 0x84 }
  - { offset: 0x111BA5, size: 0x8, addend: 0x0, symName: '__ZN3std4sync6poison4once4Once15call_once_force28_$u7b$$u7b$closure$u7d$$u7d$17h9a10544a90d2fe72E', symObjAddr: 0xA40, symBinAddr: 0x45F04, symSize: 0x68 }
  - { offset: 0x111C37, size: 0x8, addend: 0x0, symName: '__ZN3std4sync6poison4once4Once15call_once_force28_$u7b$$u7b$closure$u7d$$u7d$17he6dc09fe393a5b52E', symObjAddr: 0xAA8, symBinAddr: 0x45F6C, symSize: 0x68 }
  - { offset: 0x111CCF, size: 0x8, addend: 0x0, symName: '__ZN3std4sync6poison4once4Once9call_once28_$u7b$$u7b$closure$u7d$$u7d$17hcb5b10c849f88fd3E', symObjAddr: 0xD20, symBinAddr: 0x461E4, symSize: 0x68 }
  - { offset: 0x111D5D, size: 0x8, addend: 0x0, symName: '__ZN3std4sync6poison4once4Once9call_once28_$u7b$$u7b$closure$u7d$$u7d$17hff1fc21699091aa4E', symObjAddr: 0xD88, symBinAddr: 0x4624C, symSize: 0x60 }
  - { offset: 0x11484E, size: 0x8, addend: 0x0, symName: '__ZN185_$LT$core..ops..control_flow..ControlFlow$LT$B$C$C$GT$$u20$as$u20$core..ops..try_trait..FromResidual$LT$core..ops..control_flow..ControlFlow$LT$B$C$core..convert..Infallible$GT$$GT$$GT$13from_residual17h1582d4e904d630ebE', symObjAddr: 0x33C, symBinAddr: 0x45B2C, symSize: 0x18 }
  - { offset: 0x114892, size: 0x8, addend: 0x0, symName: '__ZN95_$LT$core..ops..control_flow..ControlFlow$LT$B$C$C$GT$$u20$as$u20$core..ops..try_trait..Try$GT$11from_output17hcfd755d3f0b82166E', symObjAddr: 0x4694, symBinAddr: 0x46584, symSize: 0x10 }
  - { offset: 0x1148D0, size: 0x8, addend: 0x0, symName: '__ZN95_$LT$core..ops..control_flow..ControlFlow$LT$B$C$C$GT$$u20$as$u20$core..ops..try_trait..Try$GT$6branch17hc509b19a3aa3f230E', symObjAddr: 0x46DC, symBinAddr: 0x46594, symSize: 0x54 }
  - { offset: 0x114B10, size: 0x8, addend: 0x0, symName: '__ZN4core7convert3num71_$LT$impl$u20$core..convert..TryFrom$LT$usize$GT$$u20$for$u20$isize$GT$8try_from17h74de053c058b4b7dE', symObjAddr: 0x18A8, symBinAddr: 0x462AC, symSize: 0x5C }
  - { offset: 0x114FFC, size: 0x8, addend: 0x0, symName: '__ZN4pyo34sync8Interned3get28_$u7b$$u7b$closure$u7d$$u7d$17h4cde3ff2b0c9fdf7E', symObjAddr: 0x2BD8, symBinAddr: 0x46350, symSize: 0x34 }
  - { offset: 0x115A51, size: 0x8, addend: 0x0, symName: '__ZN77_$LT$alloc..raw_vec..RawVec$LT$T$C$A$GT$$u20$as$u20$core..ops..drop..Drop$GT$4drop17h45323e9aa9aca543E', symObjAddr: 0x3CE0, symBinAddr: 0x46520, symSize: 0x34 }
  - { offset: 0x115A8D, size: 0x8, addend: 0x0, symName: '__ZN77_$LT$alloc..raw_vec..RawVec$LT$T$C$A$GT$$u20$as$u20$core..ops..drop..Drop$GT$4drop17hc8cc06db363f6123E', symObjAddr: 0x3E18, symBinAddr: 0x46554, symSize: 0x30 }
  - { offset: 0x116CAD, size: 0x8, addend: 0x0, symName: '__ZN9once_cell3imp17OnceCell$LT$T$GT$10initialize28_$u7b$$u7b$closure$u7d$$u7d$17he4b0f92627e6ad15E', symObjAddr: 0x5580, symBinAddr: 0x465E8, symSize: 0x174 }
  - { offset: 0x116D48, size: 0x8, addend: 0x0, symName: '__ZN9once_cell3imp17OnceCell$LT$T$GT$10initialize28_$u7b$$u7b$closure$u7d$$u7d$17hf2d66bc044d1035fE', symObjAddr: 0x56F4, symBinAddr: 0x4675C, symSize: 0x174 }
  - { offset: 0x116DE3, size: 0x8, addend: 0x0, symName: '__ZN9once_cell3imp17OnceCell$LT$T$GT$10initialize28_$u7b$$u7b$closure$u7d$$u7d$17hfee4714a670d205fE', symObjAddr: 0x5868, symBinAddr: 0x468D0, symSize: 0x238 }
  - { offset: 0x116F80, size: 0x8, addend: 0x0, symName: __ZN3std4sync6poison4once4Once12is_completed17h70e8c9162a18087fE, symObjAddr: 0x368, symBinAddr: 0x45B44, symSize: 0x54 }
  - { offset: 0x117011, size: 0x8, addend: 0x0, symName: __ZN3std4sync6poison4once4Once15call_once_force17h0ffd14b895c372deE, symObjAddr: 0x3BC, symBinAddr: 0x45B98, symSize: 0x108 }
  - { offset: 0x1170D6, size: 0x8, addend: 0x0, symName: __ZN3std4sync6poison4once4Once15call_once_force17h2548677814032ce1E, symObjAddr: 0x5CC, symBinAddr: 0x45CA0, symSize: 0xF0 }
  - { offset: 0x117199, size: 0x8, addend: 0x0, symName: __ZN3std4sync6poison4once4Once15call_once_force17hc50e01eb24dae88eE, symObjAddr: 0x7C4, symBinAddr: 0x45D90, symSize: 0xF0 }
  - { offset: 0x117337, size: 0x8, addend: 0x0, symName: __ZN3std4sync6poison4once4Once3new17h29761c6cc1a8e7daE, symObjAddr: 0xB10, symBinAddr: 0x45FD4, symSize: 0x28 }
  - { offset: 0x1173AF, size: 0x8, addend: 0x0, symName: __ZN3std4sync6poison4once4Once9call_once17h490d9c5d1019a8bbE, symObjAddr: 0xB38, symBinAddr: 0x45FFC, symSize: 0xF0 }
  - { offset: 0x117472, size: 0x8, addend: 0x0, symName: __ZN3std4sync6poison4once4Once9call_once17hedc2d7d96977b16bE, symObjAddr: 0xC28, symBinAddr: 0x460EC, symSize: 0xF8 }
  - { offset: 0x1176B5, size: 0x8, addend: 0x0, symName: __ZN4pyo34sync8Interned3get17hc6a50531e9a8caa6E, symObjAddr: 0x2B90, symBinAddr: 0x46308, symSize: 0x48 }
  - { offset: 0x117760, size: 0x8, addend: 0x0, symName: '__ZN5alloc7raw_vec19RawVec$LT$T$C$A$GT$8grow_one17h27a91b048bfa3bd9E', symObjAddr: 0x2D18, symBinAddr: 0x46384, symSize: 0x8C }
  - { offset: 0x117907, size: 0x8, addend: 0x0, symName: '__ZN5alloc7raw_vec20RawVecInner$LT$A$GT$16with_capacity_in17h0419a51d98306560E', symObjAddr: 0x3968, symBinAddr: 0x46410, symSize: 0x110 }
  - { offset: 0x117A9C, size: 0x8, addend: 0x0, symName: '__ZN9once_cell3imp17OnceCell$LT$T$GT$10initialize17h0399fae08b033ee7E', symObjAddr: 0x4730, symBinAddr: 0x7DD04, symSize: 0xD4 }
  - { offset: 0x117B55, size: 0x8, addend: 0x0, symName: '__ZN9once_cell3imp17OnceCell$LT$T$GT$10initialize17h44bf7db280789967E', symObjAddr: 0x48D4, symBinAddr: 0x7DDD8, symSize: 0xA8 }
  - { offset: 0x117C3B, size: 0x8, addend: 0x0, symName: '__ZN9once_cell3imp17OnceCell$LT$T$GT$10initialize17hb2231fae099bd5bbE', symObjAddr: 0x4B20, symBinAddr: 0x7DE80, symSize: 0xAC }
  - { offset: 0x117CEC, size: 0x8, addend: 0x0, symName: '__ZN9once_cell3imp17OnceCell$LT$T$GT$13get_unchecked17h558c49d8c7e6647dE', symObjAddr: 0x5AA0, symBinAddr: 0x46B08, symSize: 0xC0 }
  - { offset: 0x117D41, size: 0x8, addend: 0x0, symName: '__ZN9once_cell3imp17OnceCell$LT$T$GT$13get_unchecked17h9f8ed23205e6b8abE', symObjAddr: 0x5CE0, symBinAddr: 0x46BC8, symSize: 0xC0 }
  - { offset: 0x117D89, size: 0x8, addend: 0x0, symName: '__ZN9once_cell3imp17OnceCell$LT$T$GT$14is_initialized17h6e992789dd3984c6E', symObjAddr: 0x5E60, symBinAddr: 0x46C88, symSize: 0x30 }
  - { offset: 0x117DB4, size: 0x8, addend: 0x0, symName: '__ZN9once_cell3imp17OnceCell$LT$T$GT$14is_initialized17hbe1862331f913202E', symObjAddr: 0x5EC0, symBinAddr: 0x46CB8, symSize: 0x30 }
  - { offset: 0x117E31, size: 0x8, addend: 0x0, symName: __ZN3std6thread6Thread6unpark17h9bf149ecdda19c0bE, symObjAddr: 0x0, symBinAddr: 0x46CE8, symSize: 0x48 }
  - { offset: 0x117F41, size: 0x8, addend: 0x0, symName: __ZN4core4sync6atomic11atomic_load17h01fb068295443a48E, symObjAddr: 0x394, symBinAddr: 0x46F90, symSize: 0x150 }
  - { offset: 0x117FB3, size: 0x8, addend: 0x0, symName: __ZN4core4sync6atomic11atomic_load17h773bc246e1856e10E, symObjAddr: 0x4E4, symBinAddr: 0x470E0, symSize: 0x150 }
  - { offset: 0x118025, size: 0x8, addend: 0x0, symName: __ZN4core4sync6atomic12atomic_store17h83ad05baf8e7cf6eE, symObjAddr: 0x634, symBinAddr: 0x47230, symSize: 0x154 }
  - { offset: 0x11817F, size: 0x8, addend: 0x0, symName: __ZN4core4sync6atomic23atomic_compare_exchange17h29c9773b93dfedd2E, symObjAddr: 0x8DC, symBinAddr: 0x474D8, symSize: 0x514 }
  - { offset: 0x1184D7, size: 0x8, addend: 0x0, symName: '__ZN72_$LT$core..option..Option$LT$T$GT$$u20$as$u20$core..default..Default$GT$7default17he536c8b43bc5aa16E', symObjAddr: 0x10FC, symBinAddr: 0x47CF8, symSize: 0x8 }
  - { offset: 0x1187B5, size: 0x8, addend: 0x0, symName: '__ZN4core3ptr40drop_in_place$LT$std..thread..Thread$GT$17h38a6fc4c103a18deE', symObjAddr: 0x150, symBinAddr: 0x46D64, symSize: 0x24 }
  - { offset: 0x1187E4, size: 0x8, addend: 0x0, symName: '__ZN4core3ptr42drop_in_place$LT$once_cell..imp..Guard$GT$17h4893734aa48fc853E', symObjAddr: 0x174, symBinAddr: 0x46D88, symSize: 0x24 }
  - { offset: 0x118813, size: 0x8, addend: 0x0, symName: '__ZN4core3ptr43drop_in_place$LT$once_cell..imp..Waiter$GT$17hf64755e8d997b46aE', symObjAddr: 0x198, symBinAddr: 0x46DAC, symSize: 0x24 }
  - { offset: 0x118842, size: 0x8, addend: 0x0, symName: '__ZN4core3ptr63drop_in_place$LT$alloc..sync..Arc$LT$std..thread..Inner$GT$$GT$17headb1b18c482b38aE', symObjAddr: 0x1BC, symBinAddr: 0x46DD0, symSize: 0x24 }
  - { offset: 0x118871, size: 0x8, addend: 0x0, symName: '__ZN4core3ptr68drop_in_place$LT$core..option..Option$LT$std..thread..Thread$GT$$GT$17ha3646bdd227e0464E', symObjAddr: 0x1E0, symBinAddr: 0x46DF4, symSize: 0x44 }
  - { offset: 0x1188E7, size: 0x8, addend: 0x0, symName: '__ZN4core3ptr7mut_ptr31_$LT$impl$u20$$BP$mut$u20$T$GT$7is_null17hb09f28c21024bb2aE', symObjAddr: 0x224, symBinAddr: 0x46E38, symSize: 0x18 }
  - { offset: 0x11897B, size: 0x8, addend: 0x0, symName: '__ZN4core3ptr85drop_in_place$LT$core..pin..Pin$LT$alloc..sync..Arc$LT$std..thread..Inner$GT$$GT$$GT$17hfd2dd76db56a35e7E', symObjAddr: 0x23C, symBinAddr: 0x46E50, symSize: 0x24 }
  - { offset: 0x1189AA, size: 0x8, addend: 0x0, symName: '__ZN4core3ptr92drop_in_place$LT$core..cell..Cell$LT$core..option..Option$LT$std..thread..Thread$GT$$GT$$GT$17h2466d58d8af8de7aE', symObjAddr: 0x260, symBinAddr: 0x46E74, symSize: 0x24 }
  - { offset: 0x1189D9, size: 0x8, addend: 0x0, symName: '__ZN4core3ptr98drop_in_place$LT$core..cell..UnsafeCell$LT$core..option..Option$LT$std..thread..Thread$GT$$GT$$GT$17hfd44f5fa36221343E', symObjAddr: 0x284, symBinAddr: 0x46E98, symSize: 0x24 }
  - { offset: 0x118D7B, size: 0x8, addend: 0x0, symName: '__ZN4core3ops8function5impls79_$LT$impl$u20$core..ops..function..FnMut$LT$A$GT$$u20$for$u20$$RF$mut$u20$F$GT$8call_mut17ha9701bdd53eeaa49E', symObjAddr: 0x11C, symBinAddr: 0x46D30, symSize: 0x34 }
  - { offset: 0x118ED9, size: 0x8, addend: 0x0, symName: '__ZN71_$LT$alloc..sync..Arc$LT$T$C$A$GT$$u20$as$u20$core..ops..drop..Drop$GT$4drop17h353806362090afaeE', symObjAddr: 0x1054, symBinAddr: 0x47C50, symSize: 0xA8 }
  - { offset: 0x119270, size: 0x8, addend: 0x0, symName: __ZN3std6thread6Thread6unpark17h9bf149ecdda19c0bE, symObjAddr: 0x0, symBinAddr: 0x46CE8, symSize: 0x48 }
  - { offset: 0x11950E, size: 0x8, addend: 0x0, symName: '__ZN63_$LT$once_cell..imp..Guard$u20$as$u20$core..ops..drop..Drop$GT$4drop17hb5163aea3cc8b2e8E', symObjAddr: 0xDF0, symBinAddr: 0x479EC, symSize: 0x250 }
  - { offset: 0x11960E, size: 0x8, addend: 0x0, symName: '__ZN63_$LT$once_cell..imp..Guard$u20$as$u20$core..ops..drop..Drop$GT$4drop28_$u7b$$u7b$closure$u7d$$u7d$17haffd4faa1908aedcE', symObjAddr: 0x1040, symBinAddr: 0x47C3C, symSize: 0x14 }
  - { offset: 0x11964D, size: 0x8, addend: 0x0, symName: __ZN9once_cell3imp18initialize_or_wait17h08aae217948cf290E, symObjAddr: 0x1104, symBinAddr: 0x47D00, symSize: 0x18C }
  - { offset: 0x11970F, size: 0x8, addend: 0x0, symName: '__ZN9once_cell3imp18initialize_or_wait28_$u7b$$u7b$closure$u7d$$u7d$17h23e769951a0e6d34E', symObjAddr: 0x1290, symBinAddr: 0x47E8C, symSize: 0x18 }
  - { offset: 0x11974D, size: 0x8, addend: 0x0, symName: __ZN9once_cell3imp4wait17h40b2085438a0dc4cE, symObjAddr: 0x12A8, symBinAddr: 0x47EA4, symSize: 0x1EC }
  - { offset: 0x1197F4, size: 0x8, addend: 0x0, symName: '__ZN9once_cell3imp4wait28_$u7b$$u7b$closure$u7d$$u7d$17h25559ca9caba098fE', symObjAddr: 0x1494, symBinAddr: 0x48090, symSize: 0x14 }
  - { offset: 0x11982A, size: 0x8, addend: 0x0, symName: '__ZN9once_cell3imp4wait28_$u7b$$u7b$closure$u7d$$u7d$17h550568ea80d3cf09E', symObjAddr: 0x14A8, symBinAddr: 0x480A4, symSize: 0x20 }
  - { offset: 0x119886, size: 0x8, addend: 0x0, symName: __ZN9once_cell3imp6strict4addr17h371c892c83afc2ffE, symObjAddr: 0x14C8, symBinAddr: 0x480C4, symSize: 0x10 }
  - { offset: 0x1198BB, size: 0x8, addend: 0x0, symName: __ZN9once_cell3imp6strict8map_addr17h3c8bf2f32a8bd31aE, symObjAddr: 0x14D8, symBinAddr: 0x480D4, symSize: 0x94 }
  - { offset: 0x11990A, size: 0x8, addend: 0x0, symName: __ZN9once_cell3imp6strict8map_addr17h6b4c4864ca91a94bE, symObjAddr: 0x156C, symBinAddr: 0x48168, symSize: 0x88 }
  - { offset: 0x119959, size: 0x8, addend: 0x0, symName: __ZN9once_cell3imp6strict8map_addr17hbf8e541074e7f4ecE, symObjAddr: 0x15F4, symBinAddr: 0x481F0, symSize: 0x88 }
  - { offset: 0x1199A8, size: 0x8, addend: 0x0, symName: __ZN9once_cell3imp6strict8map_addr17hddbfbd4f47377c16E, symObjAddr: 0x167C, symBinAddr: 0x48278, symSize: 0x88 }
  - { offset: 0x1199F7, size: 0x8, addend: 0x0, symName: __ZN9once_cell3imp6strict9with_addr17h62d1716960ab0e17E, symObjAddr: 0x1704, symBinAddr: 0x48300, symSize: 0x64 }
  - { offset: 0x119B14, size: 0x8, addend: 0x0, symName: '__ZN4core4cell13Cell$LT$T$GT$3new17hb8f5821c0ee349b2E', symObjAddr: 0x2C0, symBinAddr: 0x46EBC, symSize: 0x14 }
  - { offset: 0x119B75, size: 0x8, addend: 0x0, symName: '__ZN4core4cell13Cell$LT$T$GT$4take17h5a07296f344e1761E', symObjAddr: 0x2D4, symBinAddr: 0x46ED0, symSize: 0x3C }
  - { offset: 0x119BDC, size: 0x8, addend: 0x0, symName: __ZN4core4sync6atomic10AtomicBool3new17h7e031be5d2d55f31E, symObjAddr: 0x310, symBinAddr: 0x46F0C, symSize: 0x18 }
  - { offset: 0x119C0C, size: 0x8, addend: 0x0, symName: __ZN4core4sync6atomic10AtomicBool4load17h3f94f4676fb7cfc2E, symObjAddr: 0x328, symBinAddr: 0x46F24, symSize: 0x38 }
  - { offset: 0x119C3E, size: 0x8, addend: 0x0, symName: __ZN4core4sync6atomic10AtomicBool5store17h5bd072fd69f59d61E, symObjAddr: 0x360, symBinAddr: 0x46F5C, symSize: 0x34 }
  - { offset: 0x119CC5, size: 0x8, addend: 0x0, symName: '__ZN4core4sync6atomic18AtomicPtr$LT$T$GT$16compare_exchange17hb21c3c7cf40000cbE', symObjAddr: 0x788, symBinAddr: 0x47384, symSize: 0x44 }
  - { offset: 0x119D2D, size: 0x8, addend: 0x0, symName: '__ZN4core4sync6atomic18AtomicPtr$LT$T$GT$4load17h6db2028258c49355E', symObjAddr: 0x7CC, symBinAddr: 0x473C8, symSize: 0x30 }
  - { offset: 0x119D9E, size: 0x8, addend: 0x0, symName: '__ZN4core4sync6atomic18AtomicPtr$LT$T$GT$4swap17h2068e4817b12409dE', symObjAddr: 0x7FC, symBinAddr: 0x473F8, symSize: 0xE0 }
  - { offset: 0x11A1C7, size: 0x8, addend: 0x0, symName: __ZN4core4sync6atomic11atomic_load17h991945c604160f32E, symObjAddr: 0xA94, symBinAddr: 0x483FC, symSize: 0x150 }
  - { offset: 0x11A67F, size: 0x8, addend: 0x0, symName: __ZN8pyo3_ffi32_cstr_from_utf8_with_nul_checked17h7a777d78bafa9407E, symObjAddr: 0x100C, symBinAddr: 0x4854C, symSize: 0x78 }
  - { offset: 0x11A87D, size: 0x8, addend: 0x0, symName: '__ZN4core3fmt2rt38_$LT$impl$u20$core..fmt..Arguments$GT$6new_v117hde569ed27b6fc681E', symObjAddr: 0x230, symBinAddr: 0x48364, symSize: 0x50 }
  - { offset: 0x11A8AD, size: 0x8, addend: 0x0, symName: '__ZN4core3fmt2rt38_$LT$impl$u20$core..fmt..Arguments$GT$9new_const17hd8f49ee9143804b6E', symObjAddr: 0x280, symBinAddr: 0x483B4, symSize: 0x48 }
  - { offset: 0x11A969, size: 0x8, addend: 0x0, symName: __RNvCskdKJRKLKjqM_7___rustc10rust_panic, symObjAddr: 0x0, symBinAddr: 0x7DF2C, symSize: 0x60 }
  - { offset: 0x11AC21, size: 0x8, addend: 0x0, symName: '__ZN42_$LT$$RF$T$u20$as$u20$core..fmt..Debug$GT$3fmt17h1657bda62079795fE', symObjAddr: 0x22C30, symBinAddr: 0x53400, symSize: 0x74 }
  - { offset: 0x11AD38, size: 0x8, addend: 0x0, symName: '__ZN42_$LT$$RF$T$u20$as$u20$core..fmt..Debug$GT$3fmt17h1afb9163f1905b06E', symObjAddr: 0x22CA4, symBinAddr: 0x53474, symSize: 0x10 }
  - { offset: 0x11AD69, size: 0x8, addend: 0x0, symName: '__ZN42_$LT$$RF$T$u20$as$u20$core..fmt..Debug$GT$3fmt17h624b3b1b2bc3ccaaE', symObjAddr: 0x230F0, symBinAddr: 0x53484, symSize: 0x10 }
  - { offset: 0x11AD7D, size: 0x8, addend: 0x0, symName: '__ZN42_$LT$$RF$T$u20$as$u20$core..fmt..Debug$GT$3fmt17h962ee5d805df0a43E', symObjAddr: 0x232AC, symBinAddr: 0x53494, symSize: 0x1C }
  - { offset: 0x11ADD1, size: 0x8, addend: 0x0, symName: '__ZN42_$LT$$RF$T$u20$as$u20$core..fmt..Debug$GT$3fmt17hbd1e035ac7e08f25E', symObjAddr: 0x23400, symBinAddr: 0x534B0, symSize: 0x1C }
  - { offset: 0x11AE2B, size: 0x8, addend: 0x0, symName: '__ZN44_$LT$$RF$T$u20$as$u20$core..fmt..Display$GT$3fmt17h42b41cde78dd7a40E', symObjAddr: 0x23740, symBinAddr: 0x534CC, symSize: 0x10 }
  - { offset: 0x11AE46, size: 0x8, addend: 0x0, symName: '__ZN44_$LT$$RF$T$u20$as$u20$core..fmt..Display$GT$3fmt17h97ddbbc1a338291fE', symObjAddr: 0x23760, symBinAddr: 0x534DC, symSize: 0x74 }
  - { offset: 0x11AEF1, size: 0x8, addend: 0x0, symName: '__ZN4core3fmt3num50_$LT$impl$u20$core..fmt..Debug$u20$for$u20$i32$GT$3fmt17h0ee72d503607d7feE', symObjAddr: 0x23AE0, symBinAddr: 0x535A4, symSize: 0x18 }
  - { offset: 0x11AF08, size: 0x8, addend: 0x0, symName: '__ZN4core3fmt3num50_$LT$impl$u20$core..fmt..Debug$u20$for$u20$i32$GT$3fmt17h0ee72d503607d7feE', symObjAddr: 0x23AE0, symBinAddr: 0x535A4, symSize: 0x18 }
  - { offset: 0x11AF33, size: 0x8, addend: 0x0, symName: '__ZN4core3fmt3num52_$LT$impl$u20$core..fmt..Debug$u20$for$u20$usize$GT$3fmt17hecd777b1c3510085E', symObjAddr: 0x23B40, symBinAddr: 0x535BC, symSize: 0x18 }
  - { offset: 0x11AF4A, size: 0x8, addend: 0x0, symName: '__ZN4core3fmt3num52_$LT$impl$u20$core..fmt..Debug$u20$for$u20$usize$GT$3fmt17hecd777b1c3510085E', symObjAddr: 0x23B40, symBinAddr: 0x535BC, symSize: 0x18 }
  - { offset: 0x11AF70, size: 0x8, addend: 0x0, symName: __ZN4core3fmt5Write10write_char17h69d96c692ad3d067E, symObjAddr: 0x23DE8, symBinAddr: 0x535D4, symSize: 0x168 }
  - { offset: 0x11B0EB, size: 0x8, addend: 0x0, symName: __ZN4core3fmt5Write10write_char17hca427d9223c5b6e1E, symObjAddr: 0x23F50, symBinAddr: 0x5373C, symSize: 0x138 }
  - { offset: 0x11B27A, size: 0x8, addend: 0x0, symName: __ZN4core3fmt5Write10write_char17he9318f738a0331ecE, symObjAddr: 0x24088, symBinAddr: 0x53874, symSize: 0x110 }
  - { offset: 0x11B42E, size: 0x8, addend: 0x0, symName: __ZN4core3fmt5Write10write_char17hea8d74b23fe03b68E, symObjAddr: 0x24198, symBinAddr: 0x53984, symSize: 0x128 }
  - { offset: 0x11B4F5, size: 0x8, addend: 0x0, symName: __ZN4core3fmt5Write9write_fmt17h0e54e39e3cec6689E, symObjAddr: 0x242F8, symBinAddr: 0x53AAC, symSize: 0x38 }
  - { offset: 0x11B524, size: 0x8, addend: 0x0, symName: __ZN4core3fmt5Write9write_fmt17h19fd30b4ad025d60E, symObjAddr: 0x24330, symBinAddr: 0x53AE4, symSize: 0x38 }
  - { offset: 0x11B553, size: 0x8, addend: 0x0, symName: __ZN4core3fmt5Write9write_fmt17h1ad028e9e2596ed7E, symObjAddr: 0x24368, symBinAddr: 0x53B1C, symSize: 0x38 }
  - { offset: 0x11B582, size: 0x8, addend: 0x0, symName: __ZN4core3fmt5Write9write_fmt17h2a94cca2598c1fb1E, symObjAddr: 0x243A0, symBinAddr: 0x53B54, symSize: 0x38 }
  - { offset: 0x11B5B1, size: 0x8, addend: 0x0, symName: __ZN4core3fmt5Write9write_fmt17heb18d397fb6127d0E, symObjAddr: 0x24410, symBinAddr: 0x53B8C, symSize: 0x38 }
  - { offset: 0x11B60E, size: 0x8, addend: 0x0, symName: '__ZN50_$LT$$BP$mut$u20$T$u20$as$u20$core..fmt..Debug$GT$3fmt17hc506ef24e45fcfffE', symObjAddr: 0x31FD4, symBinAddr: 0x5D27C, symSize: 0x8 }
  - { offset: 0x11B62C, size: 0x8, addend: 0x0, symName: '__ZN50_$LT$$BP$mut$u20$T$u20$as$u20$core..fmt..Debug$GT$3fmt17hc506ef24e45fcfffE', symObjAddr: 0x31FD4, symBinAddr: 0x5D27C, symSize: 0x8 }
  - { offset: 0x11B65B, size: 0x8, addend: 0x0, symName: '__ZN52_$LT$$RF$mut$u20$T$u20$as$u20$core..fmt..Display$GT$3fmt17hbaf30795b8d3c4d8E', symObjAddr: 0x3262C, symBinAddr: 0x5D284, symSize: 0x10 }
  - { offset: 0x11D27B, size: 0x8, addend: 0x0, symName: '__ZN4core3ptr107drop_in_place$LT$core..pin..Pin$LT$alloc..boxed..Box$LT$std..sys..pal..unix..sync..mutex..Mutex$GT$$GT$$GT$17hbd21784a02a2f8d1E', symObjAddr: 0x24A20, symBinAddr: 0x53C7C, symSize: 0x2C }
  - { offset: 0x11D312, size: 0x8, addend: 0x0, symName: '__ZN4core3ptr109drop_in_place$LT$alloc..sync..Arc$LT$std..sync..poison..mutex..Mutex$LT$alloc..vec..Vec$LT$u8$GT$$GT$$GT$$GT$17h5646c21d902a9b21E', symObjAddr: 0x24A4C, symBinAddr: 0x53CA8, symSize: 0x20 }
  - { offset: 0x11D329, size: 0x8, addend: 0x0, symName: '__ZN4core3ptr109drop_in_place$LT$alloc..sync..Arc$LT$std..sync..poison..mutex..Mutex$LT$alloc..vec..Vec$LT$u8$GT$$GT$$GT$$GT$17h5646c21d902a9b21E', symObjAddr: 0x24A4C, symBinAddr: 0x53CA8, symSize: 0x20 }
  - { offset: 0x11D33E, size: 0x8, addend: 0x0, symName: '__ZN4core3ptr109drop_in_place$LT$alloc..sync..Arc$LT$std..sync..poison..mutex..Mutex$LT$alloc..vec..Vec$LT$u8$GT$$GT$$GT$$GT$17h5646c21d902a9b21E', symObjAddr: 0x24A4C, symBinAddr: 0x53CA8, symSize: 0x20 }
  - { offset: 0x11D353, size: 0x8, addend: 0x0, symName: '__ZN4core3ptr109drop_in_place$LT$alloc..sync..Arc$LT$std..sync..poison..mutex..Mutex$LT$alloc..vec..Vec$LT$u8$GT$$GT$$GT$$GT$17h5646c21d902a9b21E', symObjAddr: 0x24A4C, symBinAddr: 0x53CA8, symSize: 0x20 }
  - { offset: 0x11D3A7, size: 0x8, addend: 0x0, symName: '__ZN4core3ptr119drop_in_place$LT$std..io..default_write_fmt..Adapter$LT$std..io..cursor..Cursor$LT$$RF$mut$u20$$u5b$u8$u5d$$GT$$GT$$GT$17hd94de8f89bec7782E', symObjAddr: 0x24AE8, symBinAddr: 0x53CC8, symSize: 0x10 }
  - { offset: 0x11D3BE, size: 0x8, addend: 0x0, symName: '__ZN4core3ptr119drop_in_place$LT$std..io..default_write_fmt..Adapter$LT$std..io..cursor..Cursor$LT$$RF$mut$u20$$u5b$u8$u5d$$GT$$GT$$GT$17hd94de8f89bec7782E', symObjAddr: 0x24AE8, symBinAddr: 0x53CC8, symSize: 0x10 }
  - { offset: 0x11D3D1, size: 0x8, addend: 0x0, symName: '__ZN4core3ptr123drop_in_place$LT$addr2line..Context$LT$gimli..read..endian_slice..EndianSlice$LT$gimli..endianity..LittleEndian$GT$$GT$$GT$17h60120d8b61f786aeE', symObjAddr: 0x24AF8, symBinAddr: 0x53CD8, symSize: 0x70 }
  - { offset: 0x11D48A, size: 0x8, addend: 0x0, symName: '__ZN4core3ptr128drop_in_place$LT$core..result..Result$LT$$RF$std..thread..Thread$C$$LP$$RF$std..thread..Thread$C$std..thread..Thread$RP$$GT$$GT$17h75718b8337910809E', symObjAddr: 0x24B68, symBinAddr: 0x53D48, symSize: 0x28 }
  - { offset: 0x11D5E0, size: 0x8, addend: 0x0, symName: '__ZN4core3ptr129drop_in_place$LT$addr2line..unit..ResUnit$LT$gimli..read..endian_slice..EndianSlice$LT$gimli..endianity..LittleEndian$GT$$GT$$GT$17h61db7baa14403ae7E', symObjAddr: 0x24B90, symBinAddr: 0x53D70, symSize: 0xE4 }
  - { offset: 0x11D7FE, size: 0x8, addend: 0x0, symName: '__ZN4core3ptr129drop_in_place$LT$addr2line..unit..SupUnit$LT$gimli..read..endian_slice..EndianSlice$LT$gimli..endianity..LittleEndian$GT$$GT$$GT$17hbd87d71db3a78ec7E', symObjAddr: 0x24C74, symBinAddr: 0x53E54, symSize: 0x54 }
  - { offset: 0x11D8BD, size: 0x8, addend: 0x0, symName: '__ZN4core3ptr130drop_in_place$LT$addr2line..unit..ResUnits$LT$gimli..read..endian_slice..EndianSlice$LT$gimli..endianity..LittleEndian$GT$$GT$$GT$17hb2ce511d8969e07fE', symObjAddr: 0x24CC8, symBinAddr: 0x53EA8, symSize: 0xD0 }
  - { offset: 0x11DA65, size: 0x8, addend: 0x0, symName: '__ZN4core3ptr130drop_in_place$LT$addr2line..unit..SupUnits$LT$gimli..read..endian_slice..EndianSlice$LT$gimli..endianity..LittleEndian$GT$$GT$$GT$17h3d17c95ef0deb2d2E', symObjAddr: 0x24D98, symBinAddr: 0x53F78, symSize: 0xE4 }
  - { offset: 0x11DC15, size: 0x8, addend: 0x0, symName: '__ZN4core3ptr130drop_in_place$LT$gimli..read..dwarf..Dwarf$LT$gimli..read..endian_slice..EndianSlice$LT$gimli..endianity..LittleEndian$GT$$GT$$GT$17hc9e7ef4be229448fE', symObjAddr: 0x24E7C, symBinAddr: 0x5405C, symSize: 0x58 }
  - { offset: 0x11DCAB, size: 0x8, addend: 0x0, symName: '__ZN4core3ptr131drop_in_place$LT$$u5b$core..option..Option$LT$core..option..Option$LT$std..backtrace_rs..symbolize..gimli..Mapping$GT$$GT$$u5d$$GT$17hbc1f61e360e1245cE', symObjAddr: 0x24ED4, symBinAddr: 0x540B4, symSize: 0xCC }
  - { offset: 0x11DD55, size: 0x8, addend: 0x0, symName: '__ZN4core3ptr131drop_in_place$LT$alloc..boxed..Box$LT$dyn$u20$core..ops..function..FnOnce$LT$$LP$$RP$$GT$$u2b$Output$u20$$u3d$$u20$$LP$$RP$$GT$$GT$17hcd6787f4796be228E', symObjAddr: 0x24FA0, symBinAddr: 0x54180, symSize: 0x78 }
  - { offset: 0x11DE40, size: 0x8, addend: 0x0, symName: '__ZN4core3ptr137drop_in_place$LT$gimli..read..dwarf..Unit$LT$gimli..read..endian_slice..EndianSlice$LT$gimli..endianity..LittleEndian$GT$$C$usize$GT$$GT$17ha92b70ae8706df64E', symObjAddr: 0x25018, symBinAddr: 0x541F8, symSize: 0x54 }
  - { offset: 0x11DF3D, size: 0x8, addend: 0x0, symName: '__ZN4core3ptr138drop_in_place$LT$addr2line..function..LazyFunction$LT$gimli..read..endian_slice..EndianSlice$LT$gimli..endianity..LittleEndian$GT$$GT$$GT$17h5b1532da9ccb5096E', symObjAddr: 0x2506C, symBinAddr: 0x5424C, symSize: 0x64 }
  - { offset: 0x11DF54, size: 0x8, addend: 0x0, symName: '__ZN4core3ptr138drop_in_place$LT$addr2line..function..LazyFunction$LT$gimli..read..endian_slice..EndianSlice$LT$gimli..endianity..LittleEndian$GT$$GT$$GT$17h5b1532da9ccb5096E', symObjAddr: 0x2506C, symBinAddr: 0x5424C, symSize: 0x64 }
  - { offset: 0x11DF69, size: 0x8, addend: 0x0, symName: '__ZN4core3ptr138drop_in_place$LT$addr2line..function..LazyFunction$LT$gimli..read..endian_slice..EndianSlice$LT$gimli..endianity..LittleEndian$GT$$GT$$GT$17h5b1532da9ccb5096E', symObjAddr: 0x2506C, symBinAddr: 0x5424C, symSize: 0x64 }
  - { offset: 0x11DF7E, size: 0x8, addend: 0x0, symName: '__ZN4core3ptr138drop_in_place$LT$addr2line..function..LazyFunction$LT$gimli..read..endian_slice..EndianSlice$LT$gimli..endianity..LittleEndian$GT$$GT$$GT$17h5b1532da9ccb5096E', symObjAddr: 0x2506C, symBinAddr: 0x5424C, symSize: 0x64 }
  - { offset: 0x11E0B2, size: 0x8, addend: 0x0, symName: '__ZN4core3ptr144drop_in_place$LT$alloc..vec..Vec$LT$core..option..Option$LT$core..option..Option$LT$std..backtrace_rs..symbolize..gimli..Mapping$GT$$GT$$GT$$GT$17h76825e3abe87d450E', symObjAddr: 0x250D0, symBinAddr: 0x542B0, symSize: 0x78 }
  - { offset: 0x11E20C, size: 0x8, addend: 0x0, symName: '__ZN4core3ptr152drop_in_place$LT$alloc..vec..Vec$LT$addr2line..unit..ResUnit$LT$gimli..read..endian_slice..EndianSlice$LT$gimli..endianity..LittleEndian$GT$$GT$$GT$$GT$17h6c57a6c544237a87E', symObjAddr: 0x25204, symBinAddr: 0x54328, symSize: 0xC4 }
  - { offset: 0x11E37A, size: 0x8, addend: 0x0, symName: '__ZN4core3ptr152drop_in_place$LT$alloc..vec..Vec$LT$addr2line..unit..SupUnit$LT$gimli..read..endian_slice..EndianSlice$LT$gimli..endianity..LittleEndian$GT$$GT$$GT$$GT$17h5ad4c72a1632250dE', symObjAddr: 0x252C8, symBinAddr: 0x543EC, symSize: 0xF4 }
  - { offset: 0x11E592, size: 0x8, addend: 0x0, symName: '__ZN4core3ptr156drop_in_place$LT$alloc..boxed..Box$LT$$u5b$core..option..Option$LT$core..option..Option$LT$std..backtrace_rs..symbolize..gimli..Mapping$GT$$GT$$u5d$$GT$$GT$17hcb1b2da851a6d067E', symObjAddr: 0x253BC, symBinAddr: 0x544E0, symSize: 0xF8 }
  - { offset: 0x11E6BB, size: 0x8, addend: 0x0, symName: '__ZN4core3ptr159drop_in_place$LT$alloc..sync..ArcInner$LT$gimli..read..dwarf..Dwarf$LT$gimli..read..endian_slice..EndianSlice$LT$gimli..endianity..LittleEndian$GT$$GT$$GT$$GT$17h7de780a0c68b30e9E', symObjAddr: 0x25544, symBinAddr: 0x545D8, symSize: 0x5C }
  - { offset: 0x11E780, size: 0x8, addend: 0x0, symName: '__ZN4core3ptr161drop_in_place$LT$alloc..vec..Vec$LT$addr2line..function..LazyFunction$LT$gimli..read..endian_slice..EndianSlice$LT$gimli..endianity..LittleEndian$GT$$GT$$GT$$GT$17h3d6d53657b9c2934E', symObjAddr: 0x255A0, symBinAddr: 0x54634, symSize: 0xAC }
  - { offset: 0x11E9BD, size: 0x8, addend: 0x0, symName: '__ZN4core3ptr172drop_in_place$LT$core..result..Result$LT$addr2line..Context$LT$gimli..read..endian_slice..EndianSlice$LT$gimli..endianity..LittleEndian$GT$$GT$$C$gimli..read..Error$GT$$GT$17h4bff534e67e3d6dbE', symObjAddr: 0x256F8, symBinAddr: 0x546E0, symSize: 0x80 }
  - { offset: 0x11EA52, size: 0x8, addend: 0x0, symName: '__ZN4core3ptr173drop_in_place$LT$alloc..boxed..Box$LT$$u5b$addr2line..function..LazyFunction$LT$gimli..read..endian_slice..EndianSlice$LT$gimli..endianity..LittleEndian$GT$$GT$$u5d$$GT$$GT$17h2cad5765df2f5de8E', symObjAddr: 0x25778, symBinAddr: 0x54760, symSize: 0x9C }
  - { offset: 0x11EA69, size: 0x8, addend: 0x0, symName: '__ZN4core3ptr173drop_in_place$LT$alloc..boxed..Box$LT$$u5b$addr2line..function..LazyFunction$LT$gimli..read..endian_slice..EndianSlice$LT$gimli..endianity..LittleEndian$GT$$GT$$u5d$$GT$$GT$17h2cad5765df2f5de8E', symObjAddr: 0x25778, symBinAddr: 0x54760, symSize: 0x9C }
  - { offset: 0x11EC3E, size: 0x8, addend: 0x0, symName: '__ZN4core3ptr181drop_in_place$LT$core..option..Option$LT$gimli..read..line..IncompleteLineProgram$LT$gimli..read..endian_slice..EndianSlice$LT$gimli..endianity..LittleEndian$GT$$C$usize$GT$$GT$$GT$17h4072838a3a3bc029E', symObjAddr: 0x25884, symBinAddr: 0x547FC, symSize: 0x98 }
  - { offset: 0x11EE97, size: 0x8, addend: 0x0, symName: '__ZN4core3ptr181drop_in_place$LT$core..result..Result$LT$addr2line..frame..FrameIter$LT$gimli..read..endian_slice..EndianSlice$LT$gimli..endianity..LittleEndian$GT$$GT$$C$gimli..read..Error$GT$$GT$17h1a8da6a3f705e13bE', symObjAddr: 0x2591C, symBinAddr: 0x54894, symSize: 0x34 }
  - { offset: 0x11EFD5, size: 0x8, addend: 0x0, symName: '__ZN4core3ptr184drop_in_place$LT$core..result..Result$LT$addr2line..function..Functions$LT$gimli..read..endian_slice..EndianSlice$LT$gimli..endianity..LittleEndian$GT$$GT$$C$gimli..read..Error$GT$$GT$17h9a3bad25e1bdcbe6E', symObjAddr: 0x25950, symBinAddr: 0x548C8, symSize: 0xD8 }
  - { offset: 0x11F28F, size: 0x8, addend: 0x0, symName: '__ZN4core3ptr231drop_in_place$LT$core..result..Result$LT$core..option..Option$LT$alloc..boxed..Box$LT$addr2line..unit..DwoUnit$LT$gimli..read..endian_slice..EndianSlice$LT$gimli..endianity..LittleEndian$GT$$GT$$GT$$GT$$C$gimli..read..Error$GT$$GT$17h6cb514b393938b83E', symObjAddr: 0x25AE8, symBinAddr: 0x549A0, symSize: 0xD4 }
  - { offset: 0x11F469, size: 0x8, addend: 0x0, symName: '__ZN4core3ptr238drop_in_place$LT$alloc..boxed..convert..$LT$impl$u20$core..convert..From$LT$alloc..string..String$GT$$u20$for$u20$alloc..boxed..Box$LT$dyn$u20$core..error..Error$u2b$core..marker..Sync$u2b$core..marker..Send$GT$$GT$..from..StringError$GT$17h021cfce481c078aaE', symObjAddr: 0x25BBC, symBinAddr: 0x54A74, symSize: 0x18 }
  - { offset: 0x11F480, size: 0x8, addend: 0x0, symName: '__ZN4core3ptr238drop_in_place$LT$alloc..boxed..convert..$LT$impl$u20$core..convert..From$LT$alloc..string..String$GT$$u20$for$u20$alloc..boxed..Box$LT$dyn$u20$core..error..Error$u2b$core..marker..Sync$u2b$core..marker..Send$GT$$GT$..from..StringError$GT$17h021cfce481c078aaE', symObjAddr: 0x25BBC, symBinAddr: 0x54A74, symSize: 0x18 }
  - { offset: 0x11F495, size: 0x8, addend: 0x0, symName: '__ZN4core3ptr238drop_in_place$LT$alloc..boxed..convert..$LT$impl$u20$core..convert..From$LT$alloc..string..String$GT$$u20$for$u20$alloc..boxed..Box$LT$dyn$u20$core..error..Error$u2b$core..marker..Sync$u2b$core..marker..Send$GT$$GT$..from..StringError$GT$17h021cfce481c078aaE', symObjAddr: 0x25BBC, symBinAddr: 0x54A74, symSize: 0x18 }
  - { offset: 0x11F514, size: 0x8, addend: 0x0, symName: '__ZN4core3ptr275drop_in_place$LT$gimli..read..line..LineRows$LT$gimli..read..endian_slice..EndianSlice$LT$gimli..endianity..LittleEndian$GT$$C$gimli..read..line..IncompleteLineProgram$LT$gimli..read..endian_slice..EndianSlice$LT$gimli..endianity..LittleEndian$GT$$C$usize$GT$$C$usize$GT$$GT$17h53f25b84add21487E', symObjAddr: 0x25BD4, symBinAddr: 0x54A8C, symSize: 0x8C }
  - { offset: 0x11F789, size: 0x8, addend: 0x0, symName: '__ZN4core3ptr280drop_in_place$LT$$LT$alloc..collections..btree..map..IntoIter$LT$K$C$V$C$A$GT$$u20$as$u20$core..ops..drop..Drop$GT$..drop..DropGuard$LT$u64$C$core..result..Result$LT$alloc..sync..Arc$LT$gimli..read..abbrev..Abbreviations$GT$$C$gimli..read..Error$GT$$C$alloc..alloc..Global$GT$$GT$17hcc27088c1e07f147E', symObjAddr: 0x25C60, symBinAddr: 0x54B18, symSize: 0x84 }
  - { offset: 0x11F8F9, size: 0x8, addend: 0x0, symName: '__ZN4core3ptr284drop_in_place$LT$core..result..Result$LT$$RF$core..result..Result$LT$addr2line..line..Lines$C$gimli..read..Error$GT$$C$$LP$$RF$core..result..Result$LT$addr2line..line..Lines$C$gimli..read..Error$GT$$C$core..result..Result$LT$addr2line..line..Lines$C$gimli..read..Error$GT$$RP$$GT$$GT$17hb193a9c217a4a4c1E', symObjAddr: 0x25CE4, symBinAddr: 0x54B9C, symSize: 0x10 }
  - { offset: 0x11F92A, size: 0x8, addend: 0x0, symName: '__ZN4core3ptr42drop_in_place$LT$alloc..string..String$GT$17hf6a0412a3add09b1E', symObjAddr: 0x25EA8, symBinAddr: 0x54BAC, symSize: 0x18 }
  - { offset: 0x11F941, size: 0x8, addend: 0x0, symName: '__ZN4core3ptr42drop_in_place$LT$alloc..string..String$GT$17hf6a0412a3add09b1E', symObjAddr: 0x25EA8, symBinAddr: 0x54BAC, symSize: 0x18 }
  - { offset: 0x11F9BF, size: 0x8, addend: 0x0, symName: '__ZN4core3ptr42drop_in_place$LT$std..io..error..Error$GT$17hf851d76d73342388E', symObjAddr: 0x25EC0, symBinAddr: 0x54BC4, symSize: 0xAC }
  - { offset: 0x11FBA3, size: 0x8, addend: 0x0, symName: '__ZN4core3ptr44drop_in_place$LT$object..read..ObjectMap$GT$17h0847af56bc5df22dE', symObjAddr: 0x25F6C, symBinAddr: 0x54C70, symSize: 0x58 }
  - { offset: 0x11FCD2, size: 0x8, addend: 0x0, symName: '__ZN4core3ptr46drop_in_place$LT$alloc..vec..Vec$LT$u8$GT$$GT$17hba5d5d275589670eE', symObjAddr: 0x26030, symBinAddr: 0x54CC8, symSize: 0x18 }
  - { offset: 0x11FD51, size: 0x8, addend: 0x0, symName: '__ZN4core3ptr46drop_in_place$LT$std..io..stdio..StdinLock$GT$17h0f6294c31e8bd6fbE', symObjAddr: 0x26048, symBinAddr: 0x54CE0, symSize: 0x54 }
  - { offset: 0x11FD68, size: 0x8, addend: 0x0, symName: '__ZN4core3ptr46drop_in_place$LT$std..io..stdio..StdinLock$GT$17h0f6294c31e8bd6fbE', symObjAddr: 0x26048, symBinAddr: 0x54CE0, symSize: 0x54 }
  - { offset: 0x11FD7D, size: 0x8, addend: 0x0, symName: '__ZN4core3ptr46drop_in_place$LT$std..io..stdio..StdinLock$GT$17h0f6294c31e8bd6fbE', symObjAddr: 0x26048, symBinAddr: 0x54CE0, symSize: 0x54 }
  - { offset: 0x11FE5F, size: 0x8, addend: 0x0, symName: '__ZN4core3ptr48drop_in_place$LT$alloc..ffi..c_str..NulError$GT$17h4b149f15bda11918E', symObjAddr: 0x26180, symBinAddr: 0x54D34, symSize: 0x18 }
  - { offset: 0x11FE76, size: 0x8, addend: 0x0, symName: '__ZN4core3ptr48drop_in_place$LT$alloc..ffi..c_str..NulError$GT$17h4b149f15bda11918E', symObjAddr: 0x26180, symBinAddr: 0x54D34, symSize: 0x18 }
  - { offset: 0x11FF02, size: 0x8, addend: 0x0, symName: '__ZN4core3ptr557drop_in_place$LT$core..result..Result$LT$$RF$core..result..Result$LT$addr2line..function..Function$LT$gimli..read..endian_slice..EndianSlice$LT$gimli..endianity..LittleEndian$GT$$GT$$C$gimli..read..Error$GT$$C$$LP$$RF$core..result..Result$LT$addr2line..function..Function$LT$gimli..read..endian_slice..EndianSlice$LT$gimli..endianity..LittleEndian$GT$$GT$$C$gimli..read..Error$GT$$C$core..result..Result$LT$addr2line..function..Function$LT$gimli..read..endian_slice..EndianSlice$LT$gimli..endianity..LittleEndian$GT$$GT$$C$gimli..read..Error$GT$$RP$$GT$$GT$17hddd2d7300f8297eaE', symObjAddr: 0x26458, symBinAddr: 0x54D4C, symSize: 0x64 }
  - { offset: 0x1200EC, size: 0x8, addend: 0x0, symName: '__ZN4core3ptr55drop_in_place$LT$gimli..read..abbrev..Abbreviations$GT$17h8587e1680933f2fcE', symObjAddr: 0x264BC, symBinAddr: 0x54DB0, symSize: 0x118 }
  - { offset: 0x12045B, size: 0x8, addend: 0x0, symName: '__ZN4core3ptr560drop_in_place$LT$core..result..Result$LT$$RF$core..result..Result$LT$addr2line..function..Functions$LT$gimli..read..endian_slice..EndianSlice$LT$gimli..endianity..LittleEndian$GT$$GT$$C$gimli..read..Error$GT$$C$$LP$$RF$core..result..Result$LT$addr2line..function..Functions$LT$gimli..read..endian_slice..EndianSlice$LT$gimli..endianity..LittleEndian$GT$$GT$$C$gimli..read..Error$GT$$C$core..result..Result$LT$addr2line..function..Functions$LT$gimli..read..endian_slice..EndianSlice$LT$gimli..endianity..LittleEndian$GT$$GT$$C$gimli..read..Error$GT$$RP$$GT$$GT$17he4dc02a625b1da45E', symObjAddr: 0x266E4, symBinAddr: 0x54EC8, symSize: 0x10 }
  - { offset: 0x1204B6, size: 0x8, addend: 0x0, symName: '__ZN4core3ptr60drop_in_place$LT$gimli..read..abbrev..AbbreviationsCache$GT$17h05dc331b510e23d9E', symObjAddr: 0x266F4, symBinAddr: 0x54ED8, symSize: 0xCC }
  - { offset: 0x12065F, size: 0x8, addend: 0x0, symName: '__ZN4core3ptr61drop_in_place$LT$std..panicking..resume_unwind..RewrapBox$GT$17hee7b0556d18824b4E', symObjAddr: 0x267C0, symBinAddr: 0x54FA4, symSize: 0x6C }
  - { offset: 0x120758, size: 0x8, addend: 0x0, symName: '__ZN4core3ptr64drop_in_place$LT$std..sys..pal..unix..sync..mutex..AttrGuard$GT$17he7e52a9dfb22022eE', symObjAddr: 0x2682C, symBinAddr: 0x55010, symSize: 0x48 }
  - { offset: 0x120796, size: 0x8, addend: 0x0, symName: '__ZN4core3ptr65drop_in_place$LT$alloc..vec..Vec$LT$alloc..string..String$GT$$GT$17h1a875569544aab8bE', symObjAddr: 0x26940, symBinAddr: 0x55058, symSize: 0x80 }
  - { offset: 0x1208FB, size: 0x8, addend: 0x0, symName: '__ZN4core3ptr65drop_in_place$LT$std..backtrace_rs..symbolize..gimli..Context$GT$17h29923633989d7a97E', symObjAddr: 0x269C0, symBinAddr: 0x550D8, symSize: 0xE8 }
  - { offset: 0x120B8D, size: 0x8, addend: 0x0, symName: '__ZN4core3ptr66drop_in_place$LT$std..backtrace_rs..backtrace..libunwind..Bomb$GT$17hf3cf99a2a39305f3E', symObjAddr: 0x26AA8, symBinAddr: 0x551C0, symSize: 0x40 }
  - { offset: 0x120BD9, size: 0x8, addend: 0x0, symName: '__ZN4core3ptr701drop_in_place$LT$core..result..Result$LT$$RF$core..result..Result$LT$core..option..Option$LT$alloc..boxed..Box$LT$addr2line..unit..DwoUnit$LT$gimli..read..endian_slice..EndianSlice$LT$gimli..endianity..LittleEndian$GT$$GT$$GT$$GT$$C$gimli..read..Error$GT$$C$$LP$$RF$core..result..Result$LT$core..option..Option$LT$alloc..boxed..Box$LT$addr2line..unit..DwoUnit$LT$gimli..read..endian_slice..EndianSlice$LT$gimli..endianity..LittleEndian$GT$$GT$$GT$$GT$$C$gimli..read..Error$GT$$C$core..result..Result$LT$core..option..Option$LT$alloc..boxed..Box$LT$addr2line..unit..DwoUnit$LT$gimli..read..endian_slice..EndianSlice$LT$gimli..endianity..LittleEndian$GT$$GT$$GT$$GT$$C$gimli..read..Error$GT$$RP$$GT$$GT$17hf93357a84d00fc7eE', symObjAddr: 0x26AE8, symBinAddr: 0x55200, symSize: 0x14 }
  - { offset: 0x120C7A, size: 0x8, addend: 0x0, symName: '__ZN4core3ptr70drop_in_place$LT$std..backtrace_rs..symbolize..gimli..stash..Stash$GT$17hed8a877d9cede334E', symObjAddr: 0x26AFC, symBinAddr: 0x55214, symSize: 0xB8 }
  - { offset: 0x120F1F, size: 0x8, addend: 0x0, symName: '__ZN4core3ptr71drop_in_place$LT$std..backtrace_rs..symbolize..gimli..macho..Object$GT$17h869151e7b414cfd4E', symObjAddr: 0x26BB4, symBinAddr: 0x552CC, symSize: 0xD8 }
  - { offset: 0x1211E4, size: 0x8, addend: 0x0, symName: '__ZN4core3ptr71drop_in_place$LT$std..panicking..panic_handler..FormatStringPayload$GT$17h837459f0acb2901dE', symObjAddr: 0x26C8C, symBinAddr: 0x553A4, symSize: 0x1C }
  - { offset: 0x1212A0, size: 0x8, addend: 0x0, symName: '__ZN4core3ptr72drop_in_place$LT$core..option..Option$LT$object..read..ObjectMap$GT$$GT$17h379eb7351ada8367E', symObjAddr: 0x26CA8, symBinAddr: 0x553C0, symSize: 0x64 }
  - { offset: 0x12141D, size: 0x8, addend: 0x0, symName: '__ZN4core3ptr73drop_in_place$LT$alloc..vec..Vec$LT$addr2line..line..LineSequence$GT$$GT$17h677f3e6952565af2E', symObjAddr: 0x26D0C, symBinAddr: 0x55424, symSize: 0x84 }
  - { offset: 0x121575, size: 0x8, addend: 0x0, symName: '__ZN4core3ptr77drop_in_place$LT$alloc..boxed..Box$LT$$u5b$alloc..string..String$u5d$$GT$$GT$17h78b274672de7575aE', symObjAddr: 0x26DC8, symBinAddr: 0x554A8, symSize: 0x70 }
  - { offset: 0x12158C, size: 0x8, addend: 0x0, symName: '__ZN4core3ptr77drop_in_place$LT$alloc..boxed..Box$LT$$u5b$alloc..string..String$u5d$$GT$$GT$17h78b274672de7575aE', symObjAddr: 0x26DC8, symBinAddr: 0x554A8, symSize: 0x70 }
  - { offset: 0x121689, size: 0x8, addend: 0x0, symName: '__ZN4core3ptr79drop_in_place$LT$std..sync..poison..rwlock..RwLockReadGuard$LT$$LP$$RP$$GT$$GT$17ha956672fedf200a4E', symObjAddr: 0x26E48, symBinAddr: 0x55518, symSize: 0x58 }
  - { offset: 0x121723, size: 0x8, addend: 0x0, symName: '__ZN4core3ptr81drop_in_place$LT$core..result..Result$LT$$LP$$RP$$C$std..io..error..Error$GT$$GT$17h655ff33c339b6cb1E', symObjAddr: 0x26F48, symBinAddr: 0x55570, symSize: 0x10 }
  - { offset: 0x121753, size: 0x8, addend: 0x0, symName: '__ZN4core3ptr82drop_in_place$LT$alloc..sync..ArcInner$LT$std..sys..fs..unix..InnerReadDir$GT$$GT$17hef996e0988305eb0E', symObjAddr: 0x27028, symBinAddr: 0x55580, symSize: 0x60 }
  - { offset: 0x121920, size: 0x8, addend: 0x0, symName: '__ZN4core3ptr92drop_in_place$LT$core..result..Result$LT$addr2line..line..Lines$C$gimli..read..Error$GT$$GT$17ha1897ab6fc371eb0E', symObjAddr: 0x271BC, symBinAddr: 0x555E0, symSize: 0xE4 }
  - { offset: 0x121B65, size: 0x8, addend: 0x0, symName: '__ZN4core3ptr93drop_in_place$LT$core..option..Option$LT$std..backtrace_rs..symbolize..gimli..Mapping$GT$$GT$17hd2c3071a4d1fdf1cE', symObjAddr: 0x272A0, symBinAddr: 0x556C4, symSize: 0x6C }
  - { offset: 0x1232B3, size: 0x8, addend: 0x0, symName: __ZN4core5panic12PanicPayload6as_str17h1071335dd01dc3a9E, symObjAddr: 0x2A418, symBinAddr: 0x55760, symSize: 0x8 }
  - { offset: 0x124B6D, size: 0x8, addend: 0x0, symName: __ZN4core5slice4sort8unstable7ipnsort17h5d7543a75d941cffE, symObjAddr: 0x310D0, symBinAddr: 0x5C418, symSize: 0xEC }
  - { offset: 0x124CAE, size: 0x8, addend: 0x0, symName: __ZN4core5slice4sort8unstable7ipnsort17h62c8a47683a638f3E, symObjAddr: 0x311BC, symBinAddr: 0x5C504, symSize: 0x1A8 }
  - { offset: 0x124F89, size: 0x8, addend: 0x0, symName: __ZN4core5slice4sort8unstable8heapsort8heapsort17h301a034dfcc890faE, symObjAddr: 0x31364, symBinAddr: 0x5C6AC, symSize: 0x100 }
  - { offset: 0x125185, size: 0x8, addend: 0x0, symName: __ZN4core5slice4sort8unstable8heapsort8heapsort17h5ff97107d3f154adE, symObjAddr: 0x31464, symBinAddr: 0x5C7AC, symSize: 0x160 }
  - { offset: 0x125529, size: 0x8, addend: 0x0, symName: __ZN4core5slice4sort8unstable9quicksort9quicksort17h0ba40b7285a59f52E, symObjAddr: 0x315C4, symBinAddr: 0x5C90C, symSize: 0x3F8 }
  - { offset: 0x125DED, size: 0x8, addend: 0x0, symName: __ZN4core5slice4sort8unstable9quicksort9quicksort17h98476d76dc825101E, symObjAddr: 0x319BC, symBinAddr: 0x5CD04, symSize: 0x578 }
  - { offset: 0x1269F8, size: 0x8, addend: 0x0, symName: __ZN4core5slice4sort6stable14driftsort_main17h7ade04ab22cdd8f2E, symObjAddr: 0x2BCA0, symBinAddr: 0x56FE8, symSize: 0x140 }
  - { offset: 0x126CB0, size: 0x8, addend: 0x0, symName: __ZN4core5slice4sort6stable14driftsort_main17h7b5faaae84c7cbb7E, symObjAddr: 0x2BDE0, symBinAddr: 0x57128, symSize: 0x140 }
  - { offset: 0x126EE6, size: 0x8, addend: 0x0, symName: __ZN4core5slice4sort6stable14driftsort_main17ha9c3ec71caecf83fE, symObjAddr: 0x2BF20, symBinAddr: 0x57268, symSize: 0x140 }
  - { offset: 0x12719E, size: 0x8, addend: 0x0, symName: __ZN4core5slice4sort6stable14driftsort_main17had35389d5dd234b1E, symObjAddr: 0x2C060, symBinAddr: 0x573A8, symSize: 0x158 }
  - { offset: 0x1274CC, size: 0x8, addend: 0x0, symName: __ZN4core5slice4sort6stable14driftsort_main17hda7ba3b19d6fc900E, symObjAddr: 0x2C1B8, symBinAddr: 0x57500, symSize: 0x158 }
  - { offset: 0x1277FA, size: 0x8, addend: 0x0, symName: __ZN4core5slice4sort6stable14driftsort_main17he0ade99dc0cb88f1E, symObjAddr: 0x2C310, symBinAddr: 0x57658, symSize: 0x140 }
  - { offset: 0x127CC6, size: 0x8, addend: 0x0, symName: __ZN4core5slice4sort6stable5drift4sort17h085f3b0b9c131daaE, symObjAddr: 0x2C450, symBinAddr: 0x57798, symSize: 0x53C }
  - { offset: 0x1283CE, size: 0x8, addend: 0x0, symName: __ZN4core5slice4sort6stable5drift4sort17h0b0941fd53d2eb36E, symObjAddr: 0x2C98C, symBinAddr: 0x57CD4, symSize: 0x5EC }
  - { offset: 0x128AFC, size: 0x8, addend: 0x0, symName: __ZN4core5slice4sort6stable5drift4sort17h6874b5ff9a1e9842E, symObjAddr: 0x2CF78, symBinAddr: 0x582C0, symSize: 0x4F4 }
  - { offset: 0x1291EE, size: 0x8, addend: 0x0, symName: __ZN4core5slice4sort6stable5drift4sort17hacafb250fe287f02E, symObjAddr: 0x2D46C, symBinAddr: 0x587B4, symSize: 0x4F4 }
  - { offset: 0x1298E0, size: 0x8, addend: 0x0, symName: __ZN4core5slice4sort6stable5drift4sort17hb5c3f298be29b63dE, symObjAddr: 0x2D960, symBinAddr: 0x58CA8, symSize: 0x4D8 }
  - { offset: 0x129F3E, size: 0x8, addend: 0x0, symName: __ZN4core5slice4sort6stable5drift4sort17hd24339b1ba8572adE, symObjAddr: 0x2DE38, symBinAddr: 0x59180, symSize: 0x538 }
  - { offset: 0x12A843, size: 0x8, addend: 0x0, symName: __ZN4core5slice4sort6stable9quicksort9quicksort17h6b022558501172b1E, symObjAddr: 0x2E370, symBinAddr: 0x596B8, symSize: 0x820 }
  - { offset: 0x12B826, size: 0x8, addend: 0x0, symName: __ZN4core5slice4sort6stable9quicksort9quicksort17h77925009546caf48E, symObjAddr: 0x2EB90, symBinAddr: 0x59ED8, symSize: 0x834 }
  - { offset: 0x12C468, size: 0x8, addend: 0x0, symName: __ZN4core5slice4sort6stable9quicksort9quicksort17h99c833017676aa53E, symObjAddr: 0x2F3C4, symBinAddr: 0x5A70C, symSize: 0x6D8 }
  - { offset: 0x12CF6B, size: 0x8, addend: 0x0, symName: __ZN4core5slice4sort6stable9quicksort9quicksort17h9b2801c31f3c9e70E, symObjAddr: 0x2FA9C, symBinAddr: 0x5ADE4, symSize: 0x810 }
  - { offset: 0x12DB9F, size: 0x8, addend: 0x0, symName: __ZN4core5slice4sort6stable9quicksort9quicksort17ha3ab17a848a79a77E, symObjAddr: 0x302AC, symBinAddr: 0x5B5F4, symSize: 0x6E0 }
  - { offset: 0x12E6A2, size: 0x8, addend: 0x0, symName: __ZN4core5slice4sort6stable9quicksort9quicksort17hd0cb711591baa19cE, symObjAddr: 0x3098C, symBinAddr: 0x5BCD4, symSize: 0x744 }
  - { offset: 0x12EEEE, size: 0x8, addend: 0x0, symName: __ZN4core5slice4sort6shared9smallsort12sort4_stable17h0da1ce099c210ce9E, symObjAddr: 0x2AB44, symBinAddr: 0x55E8C, symSize: 0x180 }
  - { offset: 0x12F2D7, size: 0x8, addend: 0x0, symName: __ZN4core5slice4sort6shared9smallsort12sort4_stable17h139ca5c859589941E, symObjAddr: 0x2ACC4, symBinAddr: 0x5600C, symSize: 0x194 }
